
sched.pfprr_quantum_static.global.sched:     file format elf64-x86-64


Disassembly of section .text:

0000000000400000 <printc>:
	return cos_print_str(s, strlen(s));
}

static int  __attribute__((format(printf, 1, 2)))
printc(char *fmt, ...)
{
  400000:	55                   	push   rbp
  400001:	49 89 fa             	mov    r10,rdi
  400004:	48 89 e5             	mov    rbp,rsp
  400007:	48 81 ec 90 01 00 00 	sub    rsp,0x190
  40000e:	48 89 b5 58 ff ff ff 	mov    QWORD PTR [rbp-0xa8],rsi
  400015:	48 89 95 60 ff ff ff 	mov    QWORD PTR [rbp-0xa0],rdx
  40001c:	48 89 8d 68 ff ff ff 	mov    QWORD PTR [rbp-0x98],rcx
  400023:	4c 89 85 70 ff ff ff 	mov    QWORD PTR [rbp-0x90],r8
  40002a:	4c 89 8d 78 ff ff ff 	mov    QWORD PTR [rbp-0x88],r9
  400031:	84 c0                	test   al,al
  400033:	74 20                	je     400055 <printc+0x55>
  400035:	0f 29 45 80          	movaps XMMWORD PTR [rbp-0x80],xmm0
  400039:	0f 29 4d 90          	movaps XMMWORD PTR [rbp-0x70],xmm1
  40003d:	0f 29 55 a0          	movaps XMMWORD PTR [rbp-0x60],xmm2
  400041:	0f 29 5d b0          	movaps XMMWORD PTR [rbp-0x50],xmm3
  400045:	0f 29 65 c0          	movaps XMMWORD PTR [rbp-0x40],xmm4
  400049:	0f 29 6d d0          	movaps XMMWORD PTR [rbp-0x30],xmm5
  40004d:	0f 29 75 e0          	movaps XMMWORD PTR [rbp-0x20],xmm6
  400051:	0f 29 7d f0          	movaps XMMWORD PTR [rbp-0x10],xmm7
	char    s[180];
	va_list arg_ptr;
	size_t  ret;

	va_start(arg_ptr, fmt);
  400055:	48 8d 45 10          	lea    rax,[rbp+0x10]
	ret = vsnprintf(s, 180, fmt, arg_ptr);
  400059:	48 8d 8d 78 fe ff ff 	lea    rcx,[rbp-0x188]
  400060:	4c 89 d2             	mov    rdx,r10
  400063:	be b4 00 00 00       	mov    esi,0xb4
	va_start(arg_ptr, fmt);
  400068:	48 89 85 80 fe ff ff 	mov    QWORD PTR [rbp-0x180],rax
	ret = vsnprintf(s, 180, fmt, arg_ptr);
  40006f:	48 8d bd 90 fe ff ff 	lea    rdi,[rbp-0x170]
	va_start(arg_ptr, fmt);
  400076:	48 8d 85 50 ff ff ff 	lea    rax,[rbp-0xb0]
  40007d:	c7 85 78 fe ff ff 08 	mov    DWORD PTR [rbp-0x188],0x8
  400084:	00 00 00 
  400087:	c7 85 7c fe ff ff 30 	mov    DWORD PTR [rbp-0x184],0x30
  40008e:	00 00 00 
  400091:	48 89 85 88 fe ff ff 	mov    QWORD PTR [rbp-0x178],rax
	ret = vsnprintf(s, 180, fmt, arg_ptr);
  400098:	e8 c3 54 01 00       	call   415560 <vsnprintf>
	va_end(arg_ptr);
	ret = cos_print_str(s, ret);
  40009d:	48 8d bd 90 fe ff ff 	lea    rdi,[rbp-0x170]
	ret = vsnprintf(s, 180, fmt, arg_ptr);
  4000a4:	89 c6                	mov    esi,eax
	ret = cos_print_str(s, ret);
  4000a6:	e8 25 a0 00 00       	call   40a0d0 <cos_print_str>

	return ret;
}
  4000ab:	c9                   	leave  
  4000ac:	c3                   	ret    
  4000ad:	0f 1f 00             	nop    DWORD PTR [rax]

00000000004000b0 <exit_init_thd>:

struct slm_thd *slm_thd_current_extern(void);

static __attribute__((noreturn)) void
exit_init_thd(void)
{
  4000b0:	55                   	push   rbp
  4000b1:	48 89 e5             	mov    rbp,rsp
  4000b4:	41 54                	push   r12
  4000b6:	48 83 ec 08          	sub    rsp,0x8
	struct slm_thd *current = slm_thd_current_extern();
  4000ba:	e8 81 18 00 00       	call   401940 <slm_thd_current_extern>

	if (cos_coreid() == 0) printc("\tScheduler %ld: Exiting thread %ld from component %ld\n", cos_compid(), cos_thdid(), (compid_t)cos_inv_token());
  4000bf:	48 8b 35 7a 6f 02 00 	mov    rsi,QWORD PTR [rip+0x26f7a]        # 427040 <__cosrt_comp_info+0x40>
  4000c6:	bf e0 c1 41 00       	mov    edi,0x41c1e0
	struct slm_thd *current = slm_thd_current_extern();
  4000cb:	49 89 c4             	mov    r12,rax
static inline long
get_stk_data(int offset)
{
	unsigned long curr_stk_pointer;

	__asm__("mov %%rsp, %0;" : "=r"(curr_stk_pointer));
  4000ce:	48 89 e0             	mov    rax,rsp
	 * access.  We want to find the struct cos_stk (see the stkmgr
	 * interface) so that we can then offset into it and get the
	 * cpu_id.  This struct is at the _top_ of the current stack,
	 * and cpu_id is at the top of the struct (it is a u32_t).
	 */
	return *(long *)((curr_stk_pointer & ~(COS_STACK_SZ - 1)) + COS_STACK_SZ - offset * sizeof(unsigned long));
  4000d1:	48 25 00 e0 ff ff    	and    rax,0xffffffffffffe000
	if (cos_coreid() == 0) printc("\tScheduler %ld: Exiting thread %ld from component %ld\n", cos_compid(), cos_thdid(), (compid_t)cos_inv_token());
  4000d7:	48 8b 88 e8 1f 00 00 	mov    rcx,QWORD PTR [rax+0x1fe8]
typedef u16_t cos_thdid_t;

static thdid_t
cos_thdid(void)
{
	return cos_get_thd_id();
  4000de:	0f b7 90 f0 1f 00 00 	movzx  edx,WORD PTR [rax+0x1ff0]
  4000e5:	31 c0                	xor    eax,eax
  4000e7:	e8 14 ff ff ff       	call   400000 <printc>
	slm_cs_cached_t cached;
	sched_tok_t     tok;
	struct slm_thd  *owner;
	int             contended;

	assert(current);
  4000ec:	4d 85 e4             	test   r12,r12
  4000ef:	0f 84 09 01 00 00    	je     4001fe <exit_init_thd+0x14e>
	cs = &(slm_global()->lock);

	while (1) {
		tok    = cos_sched_sync();
  4000f5:	e8 06 12 01 00       	call   411300 <cos_sched_sync>
  4000fa:	41 89 c1             	mov    r9d,eax
 * - @ret - a *cached* version of the critical section metadata to be passed into `__slm_cs_cas`.
 */
static inline slm_cs_cached_t
__slm_cs_data(struct slm_cs *cs, struct slm_thd **thd, int *contention)
{
	unsigned long oc = ps_load(&cs->owner_contention);
  4000fd:	48 8b 05 bc 1d 1a 00 	mov    rax,QWORD PTR [rip+0x1a1dbc]        # 5a1ec0 <__slm_global>
		cached = __slm_cs_data(cs, &owner, &contended);

		if (unlikely(owner)) {
  400104:	48 89 c1             	mov    rcx,rax
  400107:	48 83 e1 fe          	and    rcx,0xfffffffffffffffe
  40010b:	0f 85 b1 00 00 00    	jne    4001c2 <exit_init_thd+0x112>
 */
static inline int
ps_cas(unsigned long *target, unsigned long old, unsigned long updated)
{
        char z;
        __asm__ __volatile__("lock " PS_CAS_STR
  400111:	f0 4c 0f b1 25 a6 1d 	lock cmpxchg QWORD PTR [rip+0x1a1da6],r12        # 5a1ec0 <__slm_global>
  400118:	1a 00 
  40011a:	0f 94 c0             	sete   al

			continue;
		}

		/* success! common case */
		if (likely(!__slm_cs_cas(cs, cached, current, 0))) return 0;
  40011d:	84 c0                	test   al,al
  40011f:	74 d4                	je     4000f5 <exit_init_thd+0x45>

	slm_cs_enter(current, SLM_CS_NONE);
	slm_thd_deinit(current);		/* I'm out! */
  400121:	4c 89 e7             	mov    rdi,r12
  400124:	e8 b7 36 01 00       	call   4137e0 <slm_thd_deinit>
slm_cs_exit(struct slm_thd *switchto, slm_cs_flags_t flags)
{
	int ret = 1;
	struct slm_cs *cs = &(slm_global()->lock);

	while (ret != 0) {
  400129:	eb 15                	jmp    400140 <exit_init_thd+0x90>
  40012b:	0f 1f 44 00 00       	nop    DWORD PTR [rax+rax*1+0x0]
  400130:	f0 48 0f b1 15 87 1d 	lock cmpxchg QWORD PTR [rip+0x1a1d87],rdx        # 5a1ec0 <__slm_global>
  400137:	1a 00 
  400139:	0f 94 c0             	sete   al
  40013c:	84 c0                	test   al,al
  40013e:	75 2e                	jne    40016e <exit_init_thd+0xbe>
		int             contention;
		sched_tok_t     tok;
		slm_cs_cached_t cached;
		struct slm_thd *current;

		tok    = cos_sched_sync();
  400140:	e8 bb 11 01 00       	call   411300 <cos_sched_sync>
  400145:	89 c1                	mov    ecx,eax
  400147:	48 8b 05 72 1d 1a 00 	mov    rax,QWORD PTR [rip+0x1a1d72]        # 5a1ec0 <__slm_global>
		cached = __slm_cs_data(cs, &current, &contention);
		/* Another thread attempted to enter the critical section */
		if (unlikely(contention)) {
  40014e:	48 89 c2             	mov    rdx,rax
  400151:	83 e2 01             	and    edx,0x1
  400154:	74 da                	je     400130 <exit_init_thd+0x80>
	/* least significant bit signifies contention */
	*thd        = (struct slm_thd *)(oc & (~0UL << 1));
  400156:	48 89 c6             	mov    rsi,rax
			if (!slm_cs_exit_contention(cs, current, cached, tok)) return;
  400159:	48 89 c2             	mov    rdx,rax
  40015c:	bf c0 1e 5a 00       	mov    edi,0x5a1ec0
  400161:	48 83 e6 fe          	and    rsi,0xfffffffffffffffe
  400165:	e8 f6 36 01 00       	call   413860 <slm_cs_exit_contention>
  40016a:	85 c0                	test   eax,eax
  40016c:	75 d2                	jne    400140 <exit_init_thd+0x90>
	slm_cs_exit(NULL, SLM_CS_NONE);

	/* Switch to the scheduler thread */
	if (cos_defswitch(BOOT_CAPTBL_SELF_INITTHD_CPU_BASE, TCAP_PRIO_MAX, TCAP_RES_INF, cos_sched_sync())) BUG();
  40016e:	e8 8d 11 01 00       	call   411300 <cos_sched_sync>
  400173:	be 01 00 00 00       	mov    esi,0x1
  400178:	bf 28 00 00 00       	mov    edi,0x28
  40017d:	48 c7 c2 ff ff ff ff 	mov    rdx,0xffffffffffffffff
  400184:	89 c1                	mov    ecx,eax
  400186:	e8 d5 c5 00 00       	call   40c760 <cos_defswitch>
	return cos_print_str(s, strlen(s));
  40018b:	be 11 00 00 00       	mov    esi,0x11
  400190:	85 c0                	test   eax,eax
  400192:	75 17                	jne    4001ab <exit_init_thd+0xfb>
  400194:	bf e4 c2 41 00       	mov    edi,0x41c2e4
  400199:	e8 32 9f 00 00       	call   40a0d0 <cos_print_str>

	BUG();
  40019e:	c7 04 25 00 00 00 00 	mov    DWORD PTR ds:0x0,0x0
  4001a5:	00 00 00 00 
  4001a9:	0f 0b                	ud2    
  4001ab:	bf d2 c2 41 00       	mov    edi,0x41c2d2
  4001b0:	e8 1b 9f 00 00       	call   40a0d0 <cos_print_str>
	if (cos_defswitch(BOOT_CAPTBL_SELF_INITTHD_CPU_BASE, TCAP_PRIO_MAX, TCAP_RES_INF, cos_sched_sync())) BUG();
  4001b5:	c7 04 25 00 00 00 00 	mov    DWORD PTR ds:0x0,0x0
  4001bc:	00 00 00 00 
  4001c0:	0f 0b                	ud2    
			ret = slm_cs_enter_contention(cs, cached, current, owner, contended, tok);
  4001c2:	41 89 c0             	mov    r8d,eax
  4001c5:	4c 89 e2             	mov    rdx,r12
  4001c8:	48 89 c6             	mov    rsi,rax
  4001cb:	bf c0 1e 5a 00       	mov    edi,0x5a1ec0
  4001d0:	41 83 e0 01          	and    r8d,0x1
  4001d4:	e8 37 36 01 00       	call   413810 <slm_cs_enter_contention>
			assert(ret != -EBUSY);
  4001d9:	83 f8 f0             	cmp    eax,0xfffffff0
  4001dc:	0f 85 13 ff ff ff    	jne    4000f5 <exit_init_thd+0x45>
  4001e2:	be 59 00 00 00       	mov    esi,0x59
  4001e7:	bf 78 c2 41 00       	mov    edi,0x41c278
  4001ec:	e8 df 9e 00 00       	call   40a0d0 <cos_print_str>
  4001f1:	c7 04 25 00 00 00 00 	mov    DWORD PTR ds:0x0,0x0
  4001f8:	00 00 00 00 
  4001fc:	0f 0b                	ud2    
  4001fe:	be 59 00 00 00       	mov    esi,0x59
  400203:	bf 18 c2 41 00       	mov    edi,0x41c218
  400208:	e8 c3 9e 00 00       	call   40a0d0 <cos_print_str>
	assert(current);
  40020d:	c7 04 25 00 00 00 00 	mov    DWORD PTR ds:0x0,0x0
  400214:	00 00 00 00 
  400218:	0f 0b                	ud2    
  40021a:	66 0f 1f 44 00 00    	nop    WORD PTR [rax+rax*1+0x0]

0000000000400220 <calculate_initialization_schedule>:
{
  400220:	f3 0f 1e fa          	endbr64 
  400224:	55                   	push   rbp
	ret = args_get_entry("execute", &exec_entries);
  400225:	bf f6 c2 41 00       	mov    edi,0x41c2f6
{
  40022a:	48 89 e5             	mov    rbp,rsp
  40022d:	41 54                	push   r12
  40022f:	53                   	push   rbx
	ret = args_get_entry("execute", &exec_entries);
  400230:	48 8d 75 90          	lea    rsi,[rbp-0x70]
{
  400234:	48 83 ec 70          	sub    rsp,0x70
	ret = args_get_entry("execute", &exec_entries);
  400238:	e8 43 ae 00 00       	call   40b080 <args_get_entry>
	assert(!ret);
  40023d:	85 c0                	test   eax,eax
  40023f:	0f 85 9b 01 00 00    	jne    4003e0 <calculate_initialization_schedule+0x1c0>
	printc("\tSched %ld: %d components that need execution\n", cos_compid(), args_len(&exec_entries));
  400245:	48 8d 7d 90          	lea    rdi,[rbp-0x70]
  400249:	e8 32 a8 00 00       	call   40aa80 <args_len>
  40024e:	48 8b 35 eb 6d 02 00 	mov    rsi,QWORD PTR [rip+0x26deb]        # 427040 <__cosrt_comp_info+0x40>
  400255:	bf 28 c3 41 00       	mov    edi,0x41c328
  40025a:	89 c2                	mov    edx,eax
  40025c:	31 c0                	xor    eax,eax
  40025e:	e8 9d fd ff ff       	call   400000 <printc>
	for (cont = args_iter(&exec_entries, &i, &curr) ; cont ; cont = args_iter_next(&i, &curr)) {
  400263:	48 8d 55 b0          	lea    rdx,[rbp-0x50]
  400267:	48 8d 75 d0          	lea    rsi,[rbp-0x30]
  40026b:	48 8d 7d 90          	lea    rdi,[rbp-0x70]
  40026f:	e8 cc a8 00 00       	call   40ab40 <args_iter>
  400274:	85 c0                	test   eax,eax
  400276:	0f 84 ea 00 00 00    	je     400366 <calculate_initialization_schedule+0x146>
		compid_t id        = atoi(args_key(&curr, &keylen));
  40027c:	48 8d 75 8c          	lea    rsi,[rbp-0x74]
  400280:	48 8d 7d b0          	lea    rdi,[rbp-0x50]
  400284:	e8 57 a7 00 00       	call   40a9e0 <args_key>
  400289:	48 89 c7             	mov    rdi,rax
  40028c:	e8 1f 54 01 00       	call   4156b0 <atoi>
		char    *exec_type = args_value(&curr);
  400291:	48 8d 7d b0          	lea    rdi,[rbp-0x50]
		compid_t id        = atoi(args_key(&curr, &keylen));
  400295:	48 63 d8             	movsxd rbx,eax
		char    *exec_type = args_value(&curr);
  400298:	e8 a3 a7 00 00       	call   40aa40 <args_value>
  40029d:	48 89 c7             	mov    rdi,rax
		assert(exec_type);
  4002a0:	48 85 c0             	test   rax,rax
  4002a3:	0f 84 e3 00 00 00    	je     40038c <calculate_initialization_schedule+0x16c>
	} while (0)

static inline long
cos_spd_id(void)
{
	return __cosrt_comp_info.cos_this_spd_id;
  4002a9:	4c 8b 25 90 6d 02 00 	mov    r12,QWORD PTR [rip+0x26d90]        # 427040 <__cosrt_comp_info+0x40>
		assert(id != cos_compid());
  4002b0:	4c 39 e3             	cmp    rbx,r12
  4002b3:	0f 84 ef 00 00 00    	je     4003a8 <calculate_initialization_schedule+0x188>
		if (strcmp(exec_type, "init")) BUG();	/* TODO: no support for hierarchical scheduling yet */
  4002b9:	be a5 c3 41 00       	mov    esi,0x41c3a5
  4002be:	e8 cd 56 01 00       	call   415990 <strcmp>
  4002c3:	85 c0                	test   eax,eax
  4002c5:	0f 85 a5 00 00 00    	jne    400370 <calculate_initialization_schedule+0x150>
	printc("\tSched %ld: %ld is the %ldth component to initialize\n", cos_compid(), cid, init_schedule_off);
  4002cb:	48 8b 0d 6e dd 05 00 	mov    rcx,QWORD PTR [rip+0x5dd6e]        # 45e040 <init_schedule_off>
  4002d2:	48 89 da             	mov    rdx,rbx
  4002d5:	4c 89 e6             	mov    rsi,r12
  4002d8:	31 c0                	xor    eax,eax
  4002da:	bf c0 c3 41 00       	mov    edi,0x41c3c0
	assert(s->status == SCHEDINIT_FREE);
  4002df:	4c 8d 24 9b          	lea    r12,[rbx+rbx*4]
	printc("\tSched %ld: %ld is the %ldth component to initialize\n", cos_compid(), cid, init_schedule_off);
  4002e3:	e8 18 fd ff ff       	call   400000 <printc>
	init_schedule[init_schedule_off] = cid;
  4002e8:	48 8b 05 51 dd 05 00 	mov    rax,QWORD PTR [rip+0x5dd51]        # 45e040 <init_schedule_off>
  4002ef:	48 89 1c c5 40 de 45 	mov    QWORD PTR [rax*8+0x45de40],rbx
  4002f6:	00 
	init_schedule_off++;
  4002f7:	48 83 c0 01          	add    rax,0x1
	assert(s->status == SCHEDINIT_FREE);
  4002fb:	4a 8d 1c e5 40 d4 45 	lea    rbx,[r12*8+0x45d440]
  400302:	00 
	init_schedule_off++;
  400303:	48 89 05 36 dd 05 00 	mov    QWORD PTR [rip+0x5dd36],rax        # 45e040 <init_schedule_off>
	assert(s->status == SCHEDINIT_FREE);
  40030a:	8b 43 10             	mov    eax,DWORD PTR [rbx+0x10]
  40030d:	85 c0                	test   eax,eax
  40030f:	0f 85 af 00 00 00    	jne    4003c4 <calculate_initialization_schedule+0x1a4>
	*s = (struct schedinit_status) {
  400315:	66 0f ef c0          	pxor   xmm0,xmm0
  400319:	42 0f 11 04 e5 40 d4 	movups XMMWORD PTR [r12*8+0x45d440],xmm0
  400320:	45 00 
  400322:	0f 11 43 10          	movups XMMWORD PTR [rbx+0x10],xmm0
  400326:	48 c7 43 20 00 00 00 	mov    QWORD PTR [rbx+0x20],0x0
  40032d:	00 
  40032e:	c7 43 10 01 00 00 00 	mov    DWORD PTR [rbx+0x10],0x1
  400335:	48 c7 43 18 ff ff ff 	mov    QWORD PTR [rbx+0x18],0xffffffffffffffff
  40033c:	ff 
	simple_barrier_init(&s->barrier, init_parallelism());
  40033d:	e8 de 99 00 00       	call   409d20 <init_parallelism>
	for (cont = args_iter(&exec_entries, &i, &curr) ; cont ; cont = args_iter_next(&i, &curr)) {
  400342:	48 8d 75 b0          	lea    rsi,[rbp-0x50]
  400346:	48 8d 7d d0          	lea    rdi,[rbp-0x30]
}

static inline void
simple_barrier_init(struct simple_barrier *b, unsigned int ncores)
{
	*b = (struct simple_barrier) {
  40034a:	4a c7 04 e5 40 d4 45 	mov    QWORD PTR [r12*8+0x45d440],0x0
  400351:	00 00 00 00 00 
  400356:	89 43 08             	mov    DWORD PTR [rbx+0x8],eax
  400359:	e8 72 a7 00 00       	call   40aad0 <args_iter_next>
  40035e:	85 c0                	test   eax,eax
  400360:	0f 85 16 ff ff ff    	jne    40027c <calculate_initialization_schedule+0x5c>
}
  400366:	48 83 c4 70          	add    rsp,0x70
  40036a:	5b                   	pop    rbx
  40036b:	41 5c                	pop    r12
  40036d:	5d                   	pop    rbp
  40036e:	c3                   	ret    
  40036f:	90                   	nop
  400370:	be 11 00 00 00       	mov    esi,0x11
  400375:	bf aa c3 41 00       	mov    edi,0x41c3aa
  40037a:	e8 51 9d 00 00       	call   40a0d0 <cos_print_str>
		if (strcmp(exec_type, "init")) BUG();	/* TODO: no support for hierarchical scheduling yet */
  40037f:	c7 04 25 00 00 00 00 	mov    DWORD PTR ds:0x0,0x0
  400386:	00 00 00 00 
  40038a:	0f 0b                	ud2    
  40038c:	be 24 00 00 00       	mov    esi,0x24
  400391:	bf 58 c3 41 00       	mov    edi,0x41c358
  400396:	e8 35 9d 00 00       	call   40a0d0 <cos_print_str>
		assert(exec_type);
  40039b:	c7 04 25 00 00 00 00 	mov    DWORD PTR ds:0x0,0x0
  4003a2:	00 00 00 00 
  4003a6:	0f 0b                	ud2    
  4003a8:	be 24 00 00 00       	mov    esi,0x24
  4003ad:	bf 80 c3 41 00       	mov    edi,0x41c380
  4003b2:	e8 19 9d 00 00       	call   40a0d0 <cos_print_str>
		assert(id != cos_compid());
  4003b7:	c7 04 25 00 00 00 00 	mov    DWORD PTR ds:0x0,0x0
  4003be:	00 00 00 00 
  4003c2:	0f 0b                	ud2    
  4003c4:	be 23 00 00 00       	mov    esi,0x23
  4003c9:	bf f8 c3 41 00       	mov    edi,0x41c3f8
  4003ce:	e8 fd 9c 00 00       	call   40a0d0 <cos_print_str>
	assert(s->status == SCHEDINIT_FREE);
  4003d3:	c7 04 25 00 00 00 00 	mov    DWORD PTR ds:0x0,0x0
  4003da:	00 00 00 00 
  4003de:	0f 0b                	ud2    
  4003e0:	be 23 00 00 00       	mov    esi,0x23
  4003e5:	bf 00 c3 41 00       	mov    edi,0x41c300
  4003ea:	e8 e1 9c 00 00       	call   40a0d0 <cos_print_str>
	assert(!ret);
  4003ef:	c7 04 25 00 00 00 00 	mov    DWORD PTR ds:0x0,0x0
  4003f6:	00 00 00 00 
  4003fa:	0f 0b                	ud2    
  4003fc:	0f 1f 40 00          	nop    DWORD PTR [rax+0x0]

0000000000400400 <init_done>:
	while (1) ;
}

void
init_done(int parallel_init, init_main_t cont)
{
  400400:	f3 0f 1e fa          	endbr64 
  400404:	55                   	push   rbp
	__asm__("mov %%rsp, %0;" : "=r"(curr_stk_pointer));
  400405:	48 89 e0             	mov    rax,rsp
	return *(long *)((curr_stk_pointer & ~(COS_STACK_SZ - 1)) + COS_STACK_SZ - offset * sizeof(unsigned long));
  400408:	48 25 00 e0 ff ff    	and    rax,0xffffffffffffe000
  40040e:	48 89 e5             	mov    rbp,rsp
  400411:	41 54                	push   r12
  400413:	53                   	push   rbx
	return get_stk_data(INVTOKEN_OFFSET);
  400414:	48 8b b8 e8 1f 00 00 	mov    rdi,QWORD PTR [rax+0x1fe8]
	compid_t client = (compid_t)cos_inv_token();
	struct schedinit_status *s;

	s = &initialization_state[client];
	assert(s->status != SCHEDINIT_FREE);
  40041b:	48 8d 14 bf          	lea    rdx,[rdi+rdi*4]
  40041f:	48 c1 e2 03          	shl    rdx,0x3
  400423:	8b 82 50 d4 45 00    	mov    eax,DWORD PTR [rdx+0x45d450]
  400429:	85 c0                	test   eax,eax
  40042b:	0f 84 a3 00 00 00    	je     4004d4 <init_done+0xd4>
  400431:	89 f3                	mov    ebx,esi
  400433:	48 8d 8a 40 d4 45 00 	lea    rcx,[rdx+0x45d440]
  40043a:	31 f6                	xor    esi,esi
  40043c:	48 c7 c0 ff ff ff ff 	mov    rax,0xffffffffffffffff
  400443:	f0 48 0f b1 b2 58 d4 	lock cmpxchg QWORD PTR [rdx+0x45d458],rsi
  40044a:	45 00 
  40044c:	0f 94 c0             	sete   al

	/*
	 * `init_done` should not be called once initialization is
	 * completed. This is an error.
	 */
	if (s->status == SCHEDINIT_MAIN) {
  40044f:	8b 41 10             	mov    eax,DWORD PTR [rcx+0x10]
  400452:	83 f8 03             	cmp    eax,0x3
  400455:	0f 84 b1 00 00 00    	je     40050c <init_done+0x10c>

	/*
	 * This should *ONLY* happen for the initialization thread
	 * *after* it executes `cos_init`.
	 */
	if (s->status == SCHEDINIT_INITING) {
  40045b:	83 f8 01             	cmp    eax,0x1
  40045e:	74 68                	je     4004c8 <init_done+0xc8>
	assert(*barrier <= ncore);
  400460:	8b 71 08             	mov    esi,DWORD PTR [rcx+0x8]
  400463:	48 39 b2 40 d4 45 00 	cmp    QWORD PTR [rdx+0x45d440],rsi
  40046a:	0f 87 80 00 00 00    	ja     4004f0 <init_done+0xf0>
ps_faa(unsigned long *target, long inc)
{
#pragma GCC diagnostic push
#pragma GCC diagnostic ignored "-Warray-bounds"
/* GCC has bug of processing a warning(-Warray-bounds) and not get fixed, thus close the warning in this function */
        __asm__ __volatile__("lock " PS_FAA_STR
  400470:	b8 01 00 00 00       	mov    eax,0x1
  400475:	f0 48 0f c1 82 40 d4 	lock xadd QWORD PTR [rdx+0x45d440],rax
  40047c:	45 00 
                             : "+m" (*target), "+q" (inc)
                             : : "memory", "cc");
        return inc;
  40047e:	66 90                	xchg   ax,ax
	while (ps_load(barrier) < ncore) ;
  400480:	48 8b 01             	mov    rax,QWORD PTR [rcx]
  400483:	48 39 c6             	cmp    rsi,rax
  400486:	77 f8                	ja     400480 <init_done+0x80>
 	 * If this barrier is hit *after* the parallel initialization
	 * has finished, no blocking will occur as its count has
	 * already been hit.
	 */
	simple_barrier(&s->barrier);
	s->status = SCHEDINIT_MAIN;
  400488:	48 8d 04 bf          	lea    rax,[rdi+rdi*4]
  40048c:	4c 8d 24 c5 40 d4 45 	lea    r12,[rax*8+0x45d440]
  400493:	00 
  400494:	41 c7 44 24 10 03 00 	mov    DWORD PTR [r12+0x10],0x3
  40049b:	00 00 

	s->initialization_thds[cos_coreid()] = slm_thd_current_extern();
  40049d:	e8 9e 14 00 00       	call   401940 <slm_thd_current_extern>
  4004a2:	49 89 44 24 20       	mov    QWORD PTR [r12+0x20],rax
	extern int thd_block(void);
	thd_block(); 		/* block until initialization is completed */
  4004a7:	e8 04 1f 00 00       	call   4023b0 <thd_block>

 	/*
	 * After initialization, we're done with the parallel threads
	 * in some cases.
	 */
	if ((cos_coreid() != s->init_core && cont == INIT_MAIN_SINGLE) || cont == INIT_MAIN_NONE) {
  4004ac:	49 83 7c 24 18 00    	cmp    QWORD PTR [r12+0x18],0x0
  4004b2:	74 05                	je     4004b9 <init_done+0xb9>
  4004b4:	83 fb 01             	cmp    ebx,0x1
  4004b7:	74 53                	je     40050c <init_done+0x10c>
  4004b9:	85 db                	test   ebx,ebx
  4004bb:	74 4f                	je     40050c <init_done+0x10c>
	 * main execution. We'd expect the next API call here to be
	 * `init_exit`.
	 */

	return;
}
  4004bd:	5b                   	pop    rbx
  4004be:	41 5c                	pop    r12
  4004c0:	5d                   	pop    rbp
  4004c1:	c3                   	ret    
  4004c2:	66 0f 1f 44 00 00    	nop    WORD PTR [rax+rax*1+0x0]
		ps_store(&s->status, SCHEDINIT_PARINIT);
  4004c8:	c7 41 10 02 00 00 00 	mov    DWORD PTR [rcx+0x10],0x2
}
  4004cf:	5b                   	pop    rbx
  4004d0:	41 5c                	pop    r12
  4004d2:	5d                   	pop    rbp
  4004d3:	c3                   	ret    
  4004d4:	be 24 00 00 00       	mov    esi,0x24
  4004d9:	bf 20 c4 41 00       	mov    edi,0x41c420
  4004de:	e8 ed 9b 00 00       	call   40a0d0 <cos_print_str>
	assert(s->status != SCHEDINIT_FREE);
  4004e3:	c7 04 25 00 00 00 00 	mov    DWORD PTR ds:0x0,0x0
  4004ea:	00 00 00 00 
  4004ee:	0f 0b                	ud2    
  4004f0:	be 5d 00 00 00       	mov    esi,0x5d
  4004f5:	bf 48 c4 41 00       	mov    edi,0x41c448
  4004fa:	e8 d1 9b 00 00       	call   40a0d0 <cos_print_str>
	assert(*barrier <= ncore);
  4004ff:	c7 04 25 00 00 00 00 	mov    DWORD PTR ds:0x0,0x0
  400506:	00 00 00 00 
  40050a:	0f 0b                	ud2    
		exit_init_thd();
  40050c:	e8 9f fb ff ff       	call   4000b0 <exit_init_thd>
  400511:	66 66 2e 0f 1f 84 00 	data16 cs nop WORD PTR [rax+rax*1+0x0]
  400518:	00 00 00 00 
  40051c:	0f 1f 40 00          	nop    DWORD PTR [rax+0x0]

0000000000400520 <init_exit>:

void
init_exit(int retval)
{
  400520:	f3 0f 1e fa          	endbr64 
  400524:	55                   	push   rbp
  400525:	48 89 e5             	mov    rbp,rsp
	exit_init_thd();
  400528:	e8 83 fb ff ff       	call   4000b0 <exit_init_thd>
  40052d:	0f 1f 00             	nop    DWORD PTR [rax]

0000000000400530 <slm_idle_comp_initialization>:
	return;
}

void
slm_idle_comp_initialization(void)
{
  400530:	f3 0f 1e fa          	endbr64 
  400534:	55                   	push   rbp
	if (cos_coreid() == 0) printc("Scheduler %ld: Running initialization thread.\n", cos_compid());
  400535:	bf a8 c4 41 00       	mov    edi,0x41c4a8
  40053a:	31 c0                	xor    eax,eax
{
  40053c:	48 89 e5             	mov    rbp,rsp
  40053f:	41 56                	push   r14
  400541:	41 55                	push   r13
  400543:	41 54                	push   r12
  400545:	53                   	push   rbx
  400546:	31 db                	xor    ebx,ebx
  400548:	48 83 ec 10          	sub    rsp,0x10
	if (cos_coreid() == 0) printc("Scheduler %ld: Running initialization thread.\n", cos_compid());
  40054c:	48 8b 35 ed 6a 02 00 	mov    rsi,QWORD PTR [rip+0x26aed]        # 427040 <__cosrt_comp_info+0x40>
  400553:	e8 a8 fa ff ff       	call   400000 <printc>
	while (init_schedule_current != ps_load(&init_schedule_off)) {
  400558:	48 8b 05 e1 da 05 00 	mov    rax,QWORD PTR [rip+0x5dae1]        # 45e040 <init_schedule_off>
  40055f:	4c 8b 25 d2 c1 01 00 	mov    r12,QWORD PTR [rip+0x1c1d2]        # 41c738 <__unlock+0x608>
  400566:	48 85 c0             	test   rax,rax
  400569:	74 72                	je     4005dd <slm_idle_comp_initialization+0xad>
  40056b:	0f 1f 44 00 00       	nop    DWORD PTR [rax+rax*1+0x0]
		t = thd_alloc_in(client, 0, param, 1);
  400570:	31 f6                	xor    esi,esi
  400572:	b9 01 00 00 00       	mov    ecx,0x1
  400577:	48 8d 55 d8          	lea    rdx,[rbp-0x28]
		param[0] = sched_param_pack(SCHEDP_INIT, 0);
  40057b:	4c 89 65 d8          	mov    QWORD PTR [rbp-0x28],r12
		compid_t client = init_schedule[init_schedule_current];
  40057f:	4c 8b 2c dd 40 de 45 	mov    r13,QWORD PTR [rbx*8+0x45de40]
  400586:	00 
		t = thd_alloc_in(client, 0, param, 1);
  400587:	4c 89 ef             	mov    rdi,r13
  40058a:	e8 d1 47 00 00       	call   404d60 <thd_alloc_in>
		assert(t);
  40058f:	48 85 c0             	test   rax,rax
  400592:	0f 84 f4 00 00 00    	je     40068c <slm_idle_comp_initialization+0x15c>
		if (cos_coreid() == 0)	printc("\tScheduler %ld: initializing component %ld with thread %ld.\n", cos_compid(), client, t->tid);
  400598:	48 8b 48 18          	mov    rcx,QWORD PTR [rax+0x18]
  40059c:	48 8b 35 9d 6a 02 00 	mov    rsi,QWORD PTR [rip+0x26a9d]        # 427040 <__cosrt_comp_info+0x40>
  4005a3:	4c 89 ea             	mov    rdx,r13
  4005a6:	31 c0                	xor    eax,eax
  4005a8:	bf 30 c5 41 00       	mov    edi,0x41c530
		init_schedule_current++;
  4005ad:	48 83 c3 01          	add    rbx,0x1
		if (cos_coreid() == 0)	printc("\tScheduler %ld: initializing component %ld with thread %ld.\n", cos_compid(), client, t->tid);
  4005b1:	e8 4a fa ff ff       	call   400000 <printc>
		while (ps_load(&n->initialization_thds[cos_coreid()]) == NULL) ;
  4005b6:	4b 8d 44 ad 00       	lea    rax,[r13+r13*4+0x0]
  4005bb:	48 8d 14 c5 40 d4 45 	lea    rdx,[rax*8+0x45d440]
  4005c2:	00 
  4005c3:	0f 1f 44 00 00       	nop    DWORD PTR [rax+rax*1+0x0]
  4005c8:	48 8b 42 20          	mov    rax,QWORD PTR [rdx+0x20]
  4005cc:	48 85 c0             	test   rax,rax
  4005cf:	74 f7                	je     4005c8 <slm_idle_comp_initialization+0x98>
	while (init_schedule_current != ps_load(&init_schedule_off)) {
  4005d1:	48 8b 05 68 da 05 00 	mov    rax,QWORD PTR [rip+0x5da68]        # 45e040 <init_schedule_off>
  4005d8:	48 39 c3             	cmp    rbx,rax
  4005db:	75 93                	jne    400570 <slm_idle_comp_initialization+0x40>
	if (cos_coreid() == 0) printc("Scheduler %ld, initialization completed.\n", cos_compid());
  4005dd:	48 8b 35 5c 6a 02 00 	mov    rsi,QWORD PTR [rip+0x26a5c]        # 427040 <__cosrt_comp_info+0x40>
  4005e4:	bf d8 c4 41 00       	mov    edi,0x41c4d8
  4005e9:	31 c0                	xor    eax,eax
  4005eb:	e8 10 fa ff ff       	call   400000 <printc>
	slm_cs_enter(slm_thd_special(), SLM_CS_NONE);
  4005f0:	e8 db 30 01 00       	call   4136d0 <slm_thd_special>
  4005f5:	48 89 c3             	mov    rbx,rax
  4005f8:	48 85 c0             	test   rax,rax
  4005fb:	0f 84 ab 01 00 00    	je     4007ac <slm_idle_comp_initialization+0x27c>
		tok    = cos_sched_sync();
  400601:	e8 fa 0c 01 00       	call   411300 <cos_sched_sync>
  400606:	41 89 c1             	mov    r9d,eax
	unsigned long oc = ps_load(&cs->owner_contention);
  400609:	48 8b 05 b0 18 1a 00 	mov    rax,QWORD PTR [rip+0x1a18b0]        # 5a1ec0 <__slm_global>
		if (unlikely(owner)) {
  400610:	48 89 c1             	mov    rcx,rax
  400613:	48 83 e1 fe          	and    rcx,0xfffffffffffffffe
  400617:	0f 85 53 01 00 00    	jne    400770 <slm_idle_comp_initialization+0x240>
        __asm__ __volatile__("lock " PS_CAS_STR
  40061d:	f0 48 0f b1 1d 9a 18 	lock cmpxchg QWORD PTR [rip+0x1a189a],rbx        # 5a1ec0 <__slm_global>
  400624:	1a 00 
  400626:	0f 94 c0             	sete   al
		if (likely(!__slm_cs_cas(cs, cached, current, 0))) return 0;
  400629:	84 c0                	test   al,al
  40062b:	74 d4                	je     400601 <slm_idle_comp_initialization+0xd1>
	for (i = 0; i < ps_load(&init_schedule_off); i++) {
  40062d:	48 8b 05 0c da 05 00 	mov    rax,QWORD PTR [rip+0x5da0c]        # 45e040 <init_schedule_off>
  400634:	31 db                	xor    ebx,ebx
  400636:	48 85 c0             	test   rax,rax
  400639:	75 1c                	jne    400657 <slm_idle_comp_initialization+0x127>
  40063b:	eb 6b                	jmp    4006a8 <slm_idle_comp_initialization+0x178>
  40063d:	0f 1f 00             	nop    DWORD PTR [rax]
		slm_thd_wakeup(t, 0);
  400640:	31 f6                	xor    esi,esi
	for (i = 0; i < ps_load(&init_schedule_off); i++) {
  400642:	48 83 c3 01          	add    rbx,0x1
		slm_thd_wakeup(t, 0);
  400646:	e8 e5 37 01 00       	call   413e30 <slm_thd_wakeup>
	for (i = 0; i < ps_load(&init_schedule_off); i++) {
  40064b:	48 8b 05 ee d9 05 00 	mov    rax,QWORD PTR [rip+0x5d9ee]        # 45e040 <init_schedule_off>
  400652:	48 39 c3             	cmp    rbx,rax
  400655:	73 51                	jae    4006a8 <slm_idle_comp_initialization+0x178>
		t = initialization_state[client].initialization_thds[cos_coreid()];
  400657:	48 8b 04 dd 40 de 45 	mov    rax,QWORD PTR [rbx*8+0x45de40]
  40065e:	00 
  40065f:	48 8d 04 80          	lea    rax,[rax+rax*4]
  400663:	48 8b 3c c5 60 d4 45 	mov    rdi,QWORD PTR [rax*8+0x45d460]
  40066a:	00 
		assert(t != NULL);
  40066b:	48 85 ff             	test   rdi,rdi
  40066e:	75 d0                	jne    400640 <slm_idle_comp_initialization+0x110>
  400670:	be 24 00 00 00       	mov    esi,0x24
  400675:	bf 70 c5 41 00       	mov    edi,0x41c570
  40067a:	e8 51 9a 00 00       	call   40a0d0 <cos_print_str>
  40067f:	c7 04 25 00 00 00 00 	mov    DWORD PTR ds:0x0,0x0
  400686:	00 00 00 00 
  40068a:	0f 0b                	ud2    
  40068c:	be 24 00 00 00       	mov    esi,0x24
  400691:	bf 08 c5 41 00       	mov    edi,0x41c508
  400696:	e8 35 9a 00 00       	call   40a0d0 <cos_print_str>
		assert(t);
  40069b:	c7 04 25 00 00 00 00 	mov    DWORD PTR ds:0x0,0x0
  4006a2:	00 00 00 00 
  4006a6:	0f 0b                	ud2    
	slm_cs_exit_reschedule(slm_thd_special(), SLM_CS_NONE);
  4006a8:	e8 23 30 01 00       	call   4136d0 <slm_thd_special>
		}
	}

	/* Make a policy decision! */
	t = slm_sched_schedule();
	if (unlikely(!t)) t = &g->idle_thd;
  4006ad:	41 be 40 1f 5a 00    	mov    r14d,0x5a1f40
  4006b3:	49 89 c5             	mov    r13,rax
	struct cos_compinfo    *ci  = &cos_defcompinfo_curr_get()->ci;
  4006b6:	e8 a5 b1 00 00       	call   40b860 <cos_defcompinfo_curr_get>
	tok  = cos_sched_sync();
  4006bb:	e8 40 0c 01 00       	call   411300 <cos_sched_sync>
  4006c0:	41 89 c4             	mov    r12d,eax
	t = slm_sched_schedule();
  4006c3:	e8 d8 10 00 00       	call   4017a0 <slm_sched_schedule>
	if (unlikely(!t)) t = &g->idle_thd;
  4006c8:	48 85 c0             	test   rax,rax
	t = slm_sched_schedule();
  4006cb:	48 89 c3             	mov    rbx,rax
	if (unlikely(!t)) t = &g->idle_thd;
  4006ce:	49 0f 44 de          	cmove  rbx,r14
{ return s == SLM_THD_RUNNABLE || s == SLM_THD_WOKEN; }
  4006d2:	8b 43 04             	mov    eax,DWORD PTR [rbx+0x4]
  4006d5:	83 e8 02             	sub    eax,0x2

	assert(slm_state_is_runnable(t->state));
  4006d8:	83 f8 01             	cmp    eax,0x1
  4006db:	76 1b                	jbe    4006f8 <slm_idle_comp_initialization+0x1c8>
  4006dd:	e9 e6 00 00 00       	jmp    4007c8 <slm_idle_comp_initialization+0x298>
  4006e2:	66 0f 1f 44 00 00    	nop    WORD PTR [rax+rax*1+0x0]
  4006e8:	f0 48 0f b1 15 cf 17 	lock cmpxchg QWORD PTR [rip+0x1a17cf],rdx        # 5a1ec0 <__slm_global>
  4006ef:	1a 00 
  4006f1:	0f 94 c0             	sete   al
	while (ret != 0) {
  4006f4:	84 c0                	test   al,al
  4006f6:	75 2e                	jne    400726 <slm_idle_comp_initialization+0x1f6>
		tok    = cos_sched_sync();
  4006f8:	e8 03 0c 01 00       	call   411300 <cos_sched_sync>
  4006fd:	89 c1                	mov    ecx,eax
	unsigned long oc = ps_load(&cs->owner_contention);
  4006ff:	48 8b 05 ba 17 1a 00 	mov    rax,QWORD PTR [rip+0x1a17ba]        # 5a1ec0 <__slm_global>
		if (unlikely(contention)) {
  400706:	48 89 c2             	mov    rdx,rax
  400709:	83 e2 01             	and    edx,0x1
  40070c:	74 da                	je     4006e8 <slm_idle_comp_initialization+0x1b8>
	*thd        = (struct slm_thd *)(oc & (~0UL << 1));
  40070e:	48 89 c6             	mov    rsi,rax
			if (!slm_cs_exit_contention(cs, current, cached, tok)) return;
  400711:	48 89 c2             	mov    rdx,rax
  400714:	bf c0 1e 5a 00       	mov    edi,0x5a1ec0
  400719:	48 83 e6 fe          	and    rsi,0xfffffffffffffffe
  40071d:	e8 3e 31 01 00       	call   413860 <slm_cs_exit_contention>
  400722:	85 c0                	test   eax,eax
  400724:	75 d2                	jne    4006f8 <slm_idle_comp_initialization+0x1c8>
	struct cos_defcompinfo *dci = cos_defcompinfo_curr_get();
  400726:	e8 35 b1 00 00       	call   40b860 <cos_defcompinfo_curr_get>
	if (unlikely(t->properties & (SLM_THD_PROPERTY_SEND | SLM_THD_PROPERTY_OWN_TCAP | SLM_THD_PROPERTY_SPECIAL))) {
  40072b:	8b 03                	mov    eax,DWORD PTR [rbx]
	timeout = g->timeout_next;
  40072d:	48 8b 35 94 18 1a 00 	mov    rsi,QWORD PTR [rip+0x1a1894]        # 5a1fc8 <__slm_global+0x108>
	prio = inherit_prio ? curr->priority : t->priority;
  400734:	4c 8b 53 30          	mov    r10,QWORD PTR [rbx+0x30]
	if (unlikely(t->properties & (SLM_THD_PROPERTY_SEND | SLM_THD_PROPERTY_OWN_TCAP | SLM_THD_PROPERTY_SPECIAL))) {
  400738:	a8 0b                	test   al,0xb
  40073a:	0f 85 da 00 00 00    	jne    40081a <slm_idle_comp_initialization+0x2ea>
	ret = cos_defswitch(t->thd, prio, timeout, tok);
  400740:	48 8b 7b 10          	mov    rdi,QWORD PTR [rbx+0x10]
  400744:	48 89 f2             	mov    rdx,rsi
  400747:	44 89 e1             	mov    ecx,r12d
  40074a:	4c 89 d6             	mov    rsi,r10
  40074d:	e8 0e c0 00 00       	call   40c760 <cos_defswitch>
	if (unlikely(ret == -EPERM && !slm_thd_normal(t))) {
  400752:	83 f8 ff             	cmp    eax,0xffffffff
  400755:	0f 84 89 00 00 00    	je     4007e4 <slm_idle_comp_initialization+0x2b4>
	slm_cs_exit(NULL, flags);

	ret = slm_thd_activate(curr, t, tok, 0);
	
	if (unlikely(ret != 0)) {
  40075b:	85 c0                	test   eax,eax
  40075d:	0f 85 01 01 00 00    	jne    400864 <slm_idle_comp_initialization+0x334>
	slm_comp_init_loop();
}
  400763:	48 83 c4 10          	add    rsp,0x10
  400767:	5b                   	pop    rbx
  400768:	41 5c                	pop    r12
  40076a:	41 5d                	pop    r13
  40076c:	41 5e                	pop    r14
  40076e:	5d                   	pop    rbp
  40076f:	c3                   	ret    
			ret = slm_cs_enter_contention(cs, cached, current, owner, contended, tok);
  400770:	41 89 c0             	mov    r8d,eax
  400773:	48 89 da             	mov    rdx,rbx
  400776:	48 89 c6             	mov    rsi,rax
  400779:	bf c0 1e 5a 00       	mov    edi,0x5a1ec0
  40077e:	41 83 e0 01          	and    r8d,0x1
  400782:	e8 89 30 01 00       	call   413810 <slm_cs_enter_contention>
			assert(ret != -EBUSY);
  400787:	83 f8 f0             	cmp    eax,0xfffffff0
  40078a:	0f 85 71 fe ff ff    	jne    400601 <slm_idle_comp_initialization+0xd1>
  400790:	be 59 00 00 00       	mov    esi,0x59
  400795:	bf 78 c2 41 00       	mov    edi,0x41c278
  40079a:	e8 31 99 00 00       	call   40a0d0 <cos_print_str>
  40079f:	c7 04 25 00 00 00 00 	mov    DWORD PTR ds:0x0,0x0
  4007a6:	00 00 00 00 
  4007aa:	0f 0b                	ud2    
  4007ac:	be 59 00 00 00       	mov    esi,0x59
  4007b1:	bf 18 c2 41 00       	mov    edi,0x41c218
  4007b6:	e8 15 99 00 00       	call   40a0d0 <cos_print_str>
	assert(current);
  4007bb:	c7 04 25 00 00 00 00 	mov    DWORD PTR ds:0x0,0x0
  4007c2:	00 00 00 00 
  4007c6:	0f 0b                	ud2    
  4007c8:	be 61 00 00 00       	mov    esi,0x61
  4007cd:	bf 98 c5 41 00       	mov    edi,0x41c598
  4007d2:	e8 f9 98 00 00       	call   40a0d0 <cos_print_str>
	assert(slm_state_is_runnable(t->state));
  4007d7:	c7 04 25 00 00 00 00 	mov    DWORD PTR ds:0x0,0x0
  4007de:	00 00 00 00 
  4007e2:	0f 0b                	ud2    
	return t != &g->idle_thd && t != &g->sched_thd;
  4007e4:	48 81 fb 40 1f 5a 00 	cmp    rbx,0x5a1f40
  4007eb:	0f 84 d3 00 00 00    	je     4008c4 <slm_idle_comp_initialization+0x394>
  4007f1:	48 81 fb c8 1e 5a 00 	cmp    rbx,0x5a1ec8
  4007f8:	0f 84 c6 00 00 00    	je     4008c4 <slm_idle_comp_initialization+0x394>
  4007fe:	be 61 00 00 00       	mov    esi,0x61
  400803:	bf 00 c6 41 00       	mov    edi,0x41c600
  400808:	e8 c3 98 00 00       	call   40a0d0 <cos_print_str>
		/* Assuming only the single tcap with infinite budget...should not get EPERM */
		assert(ret != -EPERM);
  40080d:	c7 04 25 00 00 00 00 	mov    DWORD PTR ds:0x0,0x0
  400814:	00 00 00 00 
  400818:	0f 0b                	ud2    
	timeout = g->timeout_next;
  40081a:	48 89 f1             	mov    rcx,rsi
		if (t == &g->sched_thd) {
  40081d:	48 81 fb c8 1e 5a 00 	cmp    rbx,0x5a1ec8
  400824:	0f 84 8f 00 00 00    	je     4008b9 <slm_idle_comp_initialization+0x389>
		if (t->properties & SLM_THD_PROPERTY_SEND) {
  40082a:	a8 02                	test   al,0x2
  40082c:	0f 85 b5 00 00 00    	jne    4008e7 <slm_idle_comp_initialization+0x3b7>
		} else if (t->properties & SLM_THD_PROPERTY_OWN_TCAP) {
  400832:	48 89 ce             	mov    rsi,rcx
  400835:	a8 01                	test   al,0x1
  400837:	0f 84 03 ff ff ff    	je     400740 <slm_idle_comp_initialization+0x210>
			return cos_switch(t->thd, t->tc, prio, timeout, g->sched_thd.rcv, tok);
  40083d:	48 8b 73 08          	mov    rsi,QWORD PTR [rbx+0x8]
  400841:	48 8b 7b 10          	mov    rdi,QWORD PTR [rbx+0x10]
  400845:	45 89 e1             	mov    r9d,r12d
  400848:	4c 89 d2             	mov    rdx,r10
  40084b:	4c 8b 05 96 16 1a 00 	mov    r8,QWORD PTR [rip+0x1a1696]        # 5a1ee8 <__slm_global+0x28>
  400852:	e8 c9 0a 01 00       	call   411320 <cos_switch>
	if (unlikely(ret != 0)) {
  400857:	85 c0                	test   eax,eax
  400859:	0f 84 04 ff ff ff    	je     400763 <slm_idle_comp_initialization+0x233>
		assert(ret != -EPERM);
  40085f:	83 f8 ff             	cmp    eax,0xffffffff
  400862:	74 9a                	je     4007fe <slm_idle_comp_initialization+0x2ce>
		assert(ret != -EINVAL);
  400864:	83 f8 ea             	cmp    eax,0xffffffea
  400867:	0f 84 d0 00 00 00    	je     40093d <slm_idle_comp_initialization+0x40d>

		/*
		 * If the slm_thd_activate returns -EBUSY, this means we are trying to switch to the scheduler thread,
		 * and scheduler thread still has pending events. Directly return to process pending events.
		 */
		if (ret == -EBUSY) return ret;
  40086d:	83 f8 f0             	cmp    eax,0xfffffff0
  400870:	0f 84 ed fe ff ff    	je     400763 <slm_idle_comp_initialization+0x233>
		/* If the slm_thd_activate returns -EAGAIN, this means this scheduling token is outdated, try again */
		assert(ret == -EAGAIN);
  400876:	83 f8 f5             	cmp    eax,0xfffffff5
  400879:	0f 85 a2 00 00 00    	jne    400921 <slm_idle_comp_initialization+0x3f1>
  40087f:	4d 85 ed             	test   r13,r13
  400882:	0f 84 24 ff ff ff    	je     4007ac <slm_idle_comp_initialization+0x27c>
		tok    = cos_sched_sync();
  400888:	e8 73 0a 01 00       	call   411300 <cos_sched_sync>
	unsigned long oc = ps_load(&cs->owner_contention);
  40088d:	48 8b 35 2c 16 1a 00 	mov    rsi,QWORD PTR [rip+0x1a162c]        # 5a1ec0 <__slm_global>
  400894:	41 89 c1             	mov    r9d,eax
		if (unlikely(owner)) {
  400897:	48 89 f1             	mov    rcx,rsi
  40089a:	48 83 e1 fe          	and    rcx,0xfffffffffffffffe
  40089e:	75 5f                	jne    4008ff <slm_idle_comp_initialization+0x3cf>
  4008a0:	48 89 f0             	mov    rax,rsi
  4008a3:	f0 4c 0f b1 2d 14 16 	lock cmpxchg QWORD PTR [rip+0x1a1614],r13        # 5a1ec0 <__slm_global>
  4008aa:	1a 00 
  4008ac:	0f 94 c0             	sete   al
		if (likely(!__slm_cs_cas(cs, cached, current, 0))) return 0;
  4008af:	84 c0                	test   al,al
  4008b1:	0f 85 04 fe ff ff    	jne    4006bb <slm_idle_comp_initialization+0x18b>
  4008b7:	eb cf                	jmp    400888 <slm_idle_comp_initialization+0x358>
			prio    = curr->priority;
  4008b9:	4d 8b 55 30          	mov    r10,QWORD PTR [r13+0x30]
			timeout = TCAP_TIME_NIL;
  4008bd:	31 c9                	xor    ecx,ecx
  4008bf:	e9 66 ff ff ff       	jmp    40082a <slm_idle_comp_initialization+0x2fa>
		ret = cos_switch(g->sched_thd.thd, 0, curr->priority, TCAP_TIME_NIL, g->sched_thd.rcv, tok);
  4008c4:	49 8b 55 30          	mov    rdx,QWORD PTR [r13+0x30]
  4008c8:	4c 8b 05 19 16 1a 00 	mov    r8,QWORD PTR [rip+0x1a1619]        # 5a1ee8 <__slm_global+0x28>
  4008cf:	45 89 e1             	mov    r9d,r12d
  4008d2:	31 c9                	xor    ecx,ecx
  4008d4:	48 8b 3d fd 15 1a 00 	mov    rdi,QWORD PTR [rip+0x1a15fd]        # 5a1ed8 <__slm_global+0x18>
  4008db:	31 f6                	xor    esi,esi
  4008dd:	e8 3e 0a 01 00       	call   411320 <cos_switch>
  4008e2:	e9 70 ff ff ff       	jmp    400857 <slm_idle_comp_initialization+0x327>
			return cos_sched_asnd(t->asnd, g->timeout_next, g->sched_thd.rcv, tok);
  4008e7:	48 8b 7b 28          	mov    rdi,QWORD PTR [rbx+0x28]
  4008eb:	48 8b 15 f6 15 1a 00 	mov    rdx,QWORD PTR [rip+0x1a15f6]        # 5a1ee8 <__slm_global+0x28>
  4008f2:	44 89 e1             	mov    ecx,r12d
  4008f5:	e8 96 0a 01 00       	call   411390 <cos_sched_asnd>
  4008fa:	e9 58 ff ff ff       	jmp    400857 <slm_idle_comp_initialization+0x327>
			ret = slm_cs_enter_contention(cs, cached, current, owner, contended, tok);
  4008ff:	41 89 f0             	mov    r8d,esi
  400902:	4c 89 ea             	mov    rdx,r13
  400905:	bf c0 1e 5a 00       	mov    edi,0x5a1ec0
  40090a:	41 83 e0 01          	and    r8d,0x1
  40090e:	e8 fd 2e 01 00       	call   413810 <slm_cs_enter_contention>
			assert(ret != -EBUSY);
  400913:	83 f8 f0             	cmp    eax,0xfffffff0
  400916:	0f 85 6c ff ff ff    	jne    400888 <slm_idle_comp_initialization+0x358>
  40091c:	e9 6f fe ff ff       	jmp    400790 <slm_idle_comp_initialization+0x260>
  400921:	be 61 00 00 00       	mov    esi,0x61
  400926:	bf d0 c6 41 00       	mov    edi,0x41c6d0
  40092b:	e8 a0 97 00 00       	call   40a0d0 <cos_print_str>
		assert(ret == -EAGAIN);
  400930:	c7 04 25 00 00 00 00 	mov    DWORD PTR ds:0x0,0x0
  400937:	00 00 00 00 
  40093b:	0f 0b                	ud2    
  40093d:	be 61 00 00 00       	mov    esi,0x61
  400942:	bf 68 c6 41 00       	mov    edi,0x41c668
  400947:	e8 84 97 00 00       	call   40a0d0 <cos_print_str>
		assert(ret != -EINVAL);
  40094c:	c7 04 25 00 00 00 00 	mov    DWORD PTR ds:0x0,0x0
  400953:	00 00 00 00 
  400957:	0f 0b                	ud2    
  400959:	0f 1f 80 00 00 00 00 	nop    DWORD PTR [rax+0x0]

0000000000400960 <printc.constprop.0>:
printc(char *fmt, ...)
  400960:	55                   	push   rbp
  400961:	48 89 e5             	mov    rbp,rsp
  400964:	48 81 ec 90 01 00 00 	sub    rsp,0x190
  40096b:	48 89 b5 58 ff ff ff 	mov    QWORD PTR [rbp-0xa8],rsi
  400972:	48 89 95 60 ff ff ff 	mov    QWORD PTR [rbp-0xa0],rdx
  400979:	48 89 8d 68 ff ff ff 	mov    QWORD PTR [rbp-0x98],rcx
  400980:	4c 89 85 70 ff ff ff 	mov    QWORD PTR [rbp-0x90],r8
  400987:	4c 89 8d 78 ff ff ff 	mov    QWORD PTR [rbp-0x88],r9
  40098e:	84 c0                	test   al,al
  400990:	74 20                	je     4009b2 <printc.constprop.0+0x52>
  400992:	0f 29 45 80          	movaps XMMWORD PTR [rbp-0x80],xmm0
  400996:	0f 29 4d 90          	movaps XMMWORD PTR [rbp-0x70],xmm1
  40099a:	0f 29 55 a0          	movaps XMMWORD PTR [rbp-0x60],xmm2
  40099e:	0f 29 5d b0          	movaps XMMWORD PTR [rbp-0x50],xmm3
  4009a2:	0f 29 65 c0          	movaps XMMWORD PTR [rbp-0x40],xmm4
  4009a6:	0f 29 6d d0          	movaps XMMWORD PTR [rbp-0x30],xmm5
  4009aa:	0f 29 75 e0          	movaps XMMWORD PTR [rbp-0x20],xmm6
  4009ae:	0f 29 7d f0          	movaps XMMWORD PTR [rbp-0x10],xmm7
	va_start(arg_ptr, fmt);
  4009b2:	48 8d 45 10          	lea    rax,[rbp+0x10]
	ret = vsnprintf(s, 180, fmt, arg_ptr);
  4009b6:	ba 40 c7 41 00       	mov    edx,0x41c740
  4009bb:	be b4 00 00 00       	mov    esi,0xb4
	va_start(arg_ptr, fmt);
  4009c0:	c7 85 78 fe ff ff 08 	mov    DWORD PTR [rbp-0x188],0x8
  4009c7:	00 00 00 
  4009ca:	48 89 85 80 fe ff ff 	mov    QWORD PTR [rbp-0x180],rax
	ret = vsnprintf(s, 180, fmt, arg_ptr);
  4009d1:	48 8d 8d 78 fe ff ff 	lea    rcx,[rbp-0x188]
	va_start(arg_ptr, fmt);
  4009d8:	48 8d 85 50 ff ff ff 	lea    rax,[rbp-0xb0]
	ret = vsnprintf(s, 180, fmt, arg_ptr);
  4009df:	48 8d bd 90 fe ff ff 	lea    rdi,[rbp-0x170]
	va_start(arg_ptr, fmt);
  4009e6:	48 89 85 88 fe ff ff 	mov    QWORD PTR [rbp-0x178],rax
  4009ed:	c7 85 7c fe ff ff 30 	mov    DWORD PTR [rbp-0x184],0x30
  4009f4:	00 00 00 
	ret = vsnprintf(s, 180, fmt, arg_ptr);
  4009f7:	e8 64 4b 01 00       	call   415560 <vsnprintf>
	ret = cos_print_str(s, ret);
  4009fc:	48 8d bd 90 fe ff ff 	lea    rdi,[rbp-0x170]
  400a03:	be 1b 00 00 00       	mov    esi,0x1b
  400a08:	e8 c3 96 00 00       	call   40a0d0 <cos_print_str>
}
  400a0d:	c9                   	leave  
  400a0e:	c3                   	ret    
  400a0f:	90                   	nop

0000000000400a10 <slm_ipi_process>:
	goto done;
}

void
slm_ipi_process(void *d)
{
  400a10:	f3 0f 1e fa          	endbr64 
  400a14:	55                   	push   rbp
	int rcvd, ret;
	struct slm_ipi_percore *ipi_data = slm_ipi_percore_get(cos_cpuid());
  400a15:	31 ff                	xor    edi,edi
{
  400a17:	48 89 e5             	mov    rbp,rsp
  400a1a:	41 55                	push   r13
  400a1c:	41 54                	push   r12
  400a1e:	53                   	push   rbx
  400a1f:	48 83 ec 18          	sub    rsp,0x18
	struct slm_ipi_percore *ipi_data = slm_ipi_percore_get(cos_cpuid());
  400a23:	e8 88 2c 01 00       	call   4136b0 <slm_ipi_percore_get>
	struct slm_ipi_thd     *r        = &ipi_data->ipi_thd;
	struct slm_ipi_event    event    = { 0 };
  400a28:	48 c7 45 d8 00 00 00 	mov    QWORD PTR [rbp-0x28],0x0
  400a2f:	00 
	struct slm_ipi_percore *ipi_data = slm_ipi_percore_get(cos_cpuid());
  400a30:	49 89 c4             	mov    r12,rax
	__asm__("mov %%rsp, %0;" : "=r"(curr_stk_pointer));
  400a33:	48 89 e0             	mov    rax,rsp
	return *(long *)((curr_stk_pointer & ~(COS_STACK_SZ - 1)) + COS_STACK_SZ - offset * sizeof(unsigned long));
  400a36:	48 25 00 e0 ff ff    	and    rax,0xffffffffffffe000
  400a3c:	0f b7 80 f0 1f 00 00 	movzx  eax,WORD PTR [rax+0x1ff0]
SS_STATIC_SLAB(thd, struct slm_thd_container, MAX_NUM_THREADS);
  400a43:	48 85 c0             	test   rax,rax
  400a46:	0f 84 c0 01 00 00    	je     400c0c <slm_ipi_process+0x1fc>
  400a4c:	83 e8 01             	sub    eax,0x1
  400a4f:	83 f8 18             	cmp    eax,0x18
  400a52:	0f 87 b4 01 00 00    	ja     400c0c <slm_ipi_process+0x1fc>
  400a58:	48 8b 14 c5 00 e7 45 	mov    rdx,QWORD PTR [rax*8+0x45e700]
  400a5f:	00 
  400a60:	31 db                	xor    ebx,ebx
}

static inline int
ss_state_is_allocated(ss_state_t state)
{
	return ((state & ~1) != 0) && ((state & 1) == SS_STATE_ALLOC);
  400a62:	48 f7 c2 fe ff ff ff 	test   rdx,0xfffffffffffffffe
  400a69:	0f 85 65 01 00 00    	jne    400bd4 <slm_ipi_process+0x1c4>
  400a6f:	90                   	nop
	struct slm_thd         *current  = slm_thd_current();
	struct slm_thd         *thd;

	while (1) {
		cos_rcv(r->rcv, RCV_ALL_PENDING, &rcvd);
  400a70:	49 8b 3c 24          	mov    rdi,QWORD PTR [r12]
  400a74:	48 8d 55 d4          	lea    rdx,[rbp-0x2c]
  400a78:	be 02 00 00 00       	mov    esi,0x2
  400a7d:	e8 7e 0a 01 00       	call   411500 <cos_rcv>

		while (!slm_ipi_event_empty(cos_cpuid())) {
  400a82:	31 ff                	xor    edi,edi
  400a84:	e8 f7 2b 01 00       	call   413680 <slm_ipi_event_empty>
  400a89:	85 c0                	test   eax,eax
  400a8b:	75 e3                	jne    400a70 <slm_ipi_process+0x60>
			slm_ipi_event_dequeue(&event, cos_cpuid());
  400a8d:	31 f6                	xor    esi,esi
  400a8f:	48 8d 7d d8          	lea    rdi,[rbp-0x28]
  400a93:	e8 88 2b 01 00       	call   413620 <slm_ipi_event_dequeue>
	return &ss_thd_get(id)->thd;
  400a98:	48 8b 45 d8          	mov    rax,QWORD PTR [rbp-0x28]
SS_STATIC_SLAB(thd, struct slm_thd_container, MAX_NUM_THREADS);
  400a9c:	85 c0                	test   eax,eax
  400a9e:	0f 84 cc 00 00 00    	je     400b70 <slm_ipi_process+0x160>
  400aa4:	83 e8 01             	sub    eax,0x1
  400aa7:	83 f8 18             	cmp    eax,0x18
  400aaa:	0f 87 c0 00 00 00    	ja     400b70 <slm_ipi_process+0x160>
  400ab0:	48 8b 14 c5 00 e7 45 	mov    rdx,QWORD PTR [rax*8+0x45e700]
  400ab7:	00 
  400ab8:	45 31 ed             	xor    r13d,r13d
  400abb:	48 f7 c2 fe ff ff ff 	test   rdx,0xfffffffffffffffe
  400ac2:	74 18                	je     400adc <slm_ipi_process+0xcc>
  400ac4:	83 e2 01             	and    edx,0x1
  400ac7:	75 13                	jne    400adc <slm_ipi_process+0xcc>
  400ac9:	48 8d 14 80          	lea    rdx,[rax+rax*4]
  400acd:	4c 8d 2c 50          	lea    r13,[rax+rdx*2]
  400ad1:	49 c1 e5 04          	shl    r13,0x4
  400ad5:	49 81 c5 c8 e7 45 00 	add    r13,0x45e7c8
	assert(current);
  400adc:	48 85 db             	test   rbx,rbx
  400adf:	0f 84 97 00 00 00    	je     400b7c <slm_ipi_process+0x16c>
		tok    = cos_sched_sync();
  400ae5:	e8 16 08 01 00       	call   411300 <cos_sched_sync>
  400aea:	41 89 c1             	mov    r9d,eax
	unsigned long oc = ps_load(&cs->owner_contention);
  400aed:	48 8b 05 cc 13 1a 00 	mov    rax,QWORD PTR [rip+0x1a13cc]        # 5a1ec0 <__slm_global>
		if (unlikely(owner)) {
  400af4:	48 89 c1             	mov    rcx,rax
  400af7:	48 83 e1 fe          	and    rcx,0xfffffffffffffffe
  400afb:	0f 85 97 00 00 00    	jne    400b98 <slm_ipi_process+0x188>
  400b01:	f0 48 0f b1 1d b6 13 	lock cmpxchg QWORD PTR [rip+0x1a13b6],rbx        # 5a1ec0 <__slm_global>
  400b08:	1a 00 
  400b0a:	0f 94 c0             	sete   al
		if (likely(!__slm_cs_cas(cs, cached, current, 0))) return 0;
  400b0d:	84 c0                	test   al,al
  400b0f:	74 d4                	je     400ae5 <slm_ipi_process+0xd5>

			thd = slm_thd_static_cm_lookup(event.tid);
			slm_cs_enter(current, SLM_CS_NONE);
			ret = slm_thd_wakeup(thd, 0);
  400b11:	31 f6                	xor    esi,esi
  400b13:	4c 89 ef             	mov    rdi,r13
  400b16:	e8 15 33 01 00       	call   413e30 <slm_thd_wakeup>
			/*
			 * Return "0" means the thread is woken up in this call.
			 * Return "1" means the thread is already `RUNNABLE`.
			 */
			assert(ret == 0 || ret == 1);
  400b1b:	83 f8 01             	cmp    eax,0x1
  400b1e:	76 1c                	jbe    400b3c <slm_ipi_process+0x12c>
  400b20:	e9 cb 00 00 00       	jmp    400bf0 <slm_ipi_process+0x1e0>
  400b25:	0f 1f 00             	nop    DWORD PTR [rax]
  400b28:	f0 48 0f b1 15 8f 13 	lock cmpxchg QWORD PTR [rip+0x1a138f],rdx        # 5a1ec0 <__slm_global>
  400b2f:	1a 00 
  400b31:	0f 94 c0             	sete   al
	while (ret != 0) {
  400b34:	84 c0                	test   al,al
  400b36:	0f 85 46 ff ff ff    	jne    400a82 <slm_ipi_process+0x72>
		tok    = cos_sched_sync();
  400b3c:	e8 bf 07 01 00       	call   411300 <cos_sched_sync>
  400b41:	89 c1                	mov    ecx,eax
  400b43:	48 8b 05 76 13 1a 00 	mov    rax,QWORD PTR [rip+0x1a1376]        # 5a1ec0 <__slm_global>
		if (unlikely(contention)) {
  400b4a:	48 89 c2             	mov    rdx,rax
  400b4d:	83 e2 01             	and    edx,0x1
  400b50:	74 d6                	je     400b28 <slm_ipi_process+0x118>
	*thd        = (struct slm_thd *)(oc & (~0UL << 1));
  400b52:	48 89 c6             	mov    rsi,rax
			if (!slm_cs_exit_contention(cs, current, cached, tok)) return;
  400b55:	48 89 c2             	mov    rdx,rax
  400b58:	bf c0 1e 5a 00       	mov    edi,0x5a1ec0
  400b5d:	48 83 e6 fe          	and    rsi,0xfffffffffffffffe
  400b61:	e8 fa 2c 01 00       	call   413860 <slm_cs_exit_contention>
  400b66:	85 c0                	test   eax,eax
  400b68:	0f 84 14 ff ff ff    	je     400a82 <slm_ipi_process+0x72>
  400b6e:	eb cc                	jmp    400b3c <slm_ipi_process+0x12c>
SS_STATIC_SLAB(thd, struct slm_thd_container, MAX_NUM_THREADS);
  400b70:	45 31 ed             	xor    r13d,r13d
	assert(current);
  400b73:	48 85 db             	test   rbx,rbx
  400b76:	0f 85 69 ff ff ff    	jne    400ae5 <slm_ipi_process+0xd5>
	return cos_print_str(s, strlen(s));
  400b7c:	be 59 00 00 00       	mov    esi,0x59
  400b81:	bf 60 c7 41 00       	mov    edi,0x41c760
  400b86:	e8 45 95 00 00       	call   40a0d0 <cos_print_str>
  400b8b:	c7 04 25 00 00 00 00 	mov    DWORD PTR ds:0x0,0x0
  400b92:	00 00 00 00 
  400b96:	0f 0b                	ud2    
			ret = slm_cs_enter_contention(cs, cached, current, owner, contended, tok);
  400b98:	41 89 c0             	mov    r8d,eax
  400b9b:	48 89 da             	mov    rdx,rbx
  400b9e:	48 89 c6             	mov    rsi,rax
  400ba1:	bf c0 1e 5a 00       	mov    edi,0x5a1ec0
  400ba6:	41 83 e0 01          	and    r8d,0x1
  400baa:	e8 61 2c 01 00       	call   413810 <slm_cs_enter_contention>
			assert(ret != -EBUSY);
  400baf:	83 f8 f0             	cmp    eax,0xfffffff0
  400bb2:	0f 85 2d ff ff ff    	jne    400ae5 <slm_ipi_process+0xd5>
  400bb8:	be 59 00 00 00       	mov    esi,0x59
  400bbd:	bf c0 c7 41 00       	mov    edi,0x41c7c0
  400bc2:	e8 09 95 00 00       	call   40a0d0 <cos_print_str>
  400bc7:	c7 04 25 00 00 00 00 	mov    DWORD PTR ds:0x0,0x0
  400bce:	00 00 00 00 
  400bd2:	0f 0b                	ud2    
  400bd4:	80 e2 01             	and    dl,0x1
  400bd7:	0f 85 93 fe ff ff    	jne    400a70 <slm_ipi_process+0x60>
  400bdd:	48 69 c0 b0 00 00 00 	imul   rax,rax,0xb0
  400be4:	48 8d 98 c8 e7 45 00 	lea    rbx,[rax+0x45e7c8]
  400beb:	e9 80 fe ff ff       	jmp    400a70 <slm_ipi_process+0x60>
  400bf0:	be 24 00 00 00       	mov    esi,0x24
  400bf5:	bf 20 c8 41 00       	mov    edi,0x41c820
  400bfa:	e8 d1 94 00 00       	call   40a0d0 <cos_print_str>
			assert(ret == 0 || ret == 1);
  400bff:	c7 04 25 00 00 00 00 	mov    DWORD PTR ds:0x0,0x0
  400c06:	00 00 00 00 
  400c0a:	0f 0b                	ud2    
SS_STATIC_SLAB(thd, struct slm_thd_container, MAX_NUM_THREADS);
  400c0c:	31 db                	xor    ebx,ebx
  400c0e:	e9 5d fe ff ff       	jmp    400a70 <slm_ipi_process+0x60>
  400c13:	66 66 2e 0f 1f 84 00 	data16 cs nop WORD PTR [rax+rax*1+0x0]
  400c1a:	00 00 00 00 
  400c1e:	66 90                	xchg   ax,ax

0000000000400c20 <slm_blkpt_alloc>:
	return &__blkpts[id-1];
}

sched_blkpt_id_t
slm_blkpt_alloc(struct slm_thd *current)
{
  400c20:	f3 0f 1e fa          	endbr64 
  400c24:	55                   	push   rbp
  400c25:	48 89 e5             	mov    rbp,rsp
  400c28:	41 54                	push   r12
  400c2a:	49 89 fc             	mov    r12,rdi
  400c2d:	48 83 ec 08          	sub    rsp,0x8
	assert(current);
  400c31:	48 85 ff             	test   rdi,rdi
  400c34:	0f 84 12 01 00 00    	je     400d4c <slm_blkpt_alloc+0x12c>
		tok    = cos_sched_sync();
  400c3a:	e8 c1 06 01 00       	call   411300 <cos_sched_sync>
  400c3f:	41 89 c1             	mov    r9d,eax
	unsigned long oc = ps_load(&cs->owner_contention);
  400c42:	48 8b 05 77 12 1a 00 	mov    rax,QWORD PTR [rip+0x1a1277]        # 5a1ec0 <__slm_global>
		if (unlikely(owner)) {
  400c49:	48 89 c1             	mov    rcx,rax
  400c4c:	48 83 e1 fe          	and    rcx,0xfffffffffffffffe
  400c50:	0f 85 ba 00 00 00    	jne    400d10 <slm_blkpt_alloc+0xf0>
  400c56:	f0 4c 0f b1 25 61 12 	lock cmpxchg QWORD PTR [rip+0x1a1261],r12        # 5a1ec0 <__slm_global>
  400c5d:	1a 00 
  400c5f:	0f 94 c0             	sete   al
		if (likely(!__slm_cs_cas(cs, cached, current, 0))) return 0;
  400c62:	84 c0                	test   al,al
  400c64:	74 d4                	je     400c3a <slm_blkpt_alloc+0x1a>
	struct blkpt_mem *m;
	sched_blkpt_id_t ret = SCHED_BLKPT_NULL;

	slm_cs_enter(current, SLM_CS_NONE);

	id = (sched_blkpt_id_t)__blkpt_offset;
  400c66:	44 8b 25 93 33 02 00 	mov    r12d,DWORD PTR [rip+0x23393]        # 424000 <__blkpt_offset>
	if (id - 1 == NBLKPTS) return NULL;
  400c6d:	41 81 fc 01 a0 00 00 	cmp    r12d,0xa001
  400c74:	0f 84 ee 00 00 00    	je     400d68 <slm_blkpt_alloc+0x148>
	return &__blkpts[id-1];
  400c7a:	41 8d 44 24 ff       	lea    eax,[r12-0x1]
  400c7f:	48 c1 e0 05          	shl    rax,0x5
	m  = blkpt_get(id);
	if (!m) ERR_THROW(SCHED_BLKPT_NULL, unlock);

	m->id    = id;
  400c83:	44 89 a0 00 f9 45 00 	mov    DWORD PTR [rax+0x45f900],r12d
	ret      = id;
	m->epoch = 0;
  400c8a:	48 c7 80 08 f9 45 00 	mov    QWORD PTR [rax+0x45f908],0x0
  400c91:	00 00 00 00 
};

static inline void
stacklist_init(struct stacklist_head *h)
{
	h->head = NULL;
  400c95:	48 c7 80 10 f9 45 00 	mov    QWORD PTR [rax+0x45f910],0x0
  400c9c:	00 00 00 00 
ps_lock_release(struct ps_lock *l)
{ l->o = 0; }

static inline void
ps_lock_init(struct ps_lock *l)
{ l->o = 0; }
  400ca0:	48 c7 80 18 f9 45 00 	mov    QWORD PTR [rax+0x45f918],0x0
  400ca7:	00 00 00 00 
	stacklist_init(&m->blocked);
	ps_lock_init(&m->lock);
	__blkpt_offset++;
  400cab:	41 8d 44 24 01       	lea    eax,[r12+0x1]
  400cb0:	89 05 4a 33 02 00    	mov    DWORD PTR [rip+0x2334a],eax        # 424000 <__blkpt_offset>
  400cb6:	eb 18                	jmp    400cd0 <slm_blkpt_alloc+0xb0>
  400cb8:	0f 1f 84 00 00 00 00 	nop    DWORD PTR [rax+rax*1+0x0]
  400cbf:	00 
        __asm__ __volatile__("lock " PS_CAS_STR
  400cc0:	f0 48 0f b1 15 f7 11 	lock cmpxchg QWORD PTR [rip+0x1a11f7],rdx        # 5a1ec0 <__slm_global>
  400cc7:	1a 00 
  400cc9:	0f 94 c0             	sete   al
	while (ret != 0) {
  400ccc:	84 c0                	test   al,al
  400cce:	75 2e                	jne    400cfe <slm_blkpt_alloc+0xde>
		tok    = cos_sched_sync();
  400cd0:	e8 2b 06 01 00       	call   411300 <cos_sched_sync>
  400cd5:	89 c1                	mov    ecx,eax
  400cd7:	48 8b 05 e2 11 1a 00 	mov    rax,QWORD PTR [rip+0x1a11e2]        # 5a1ec0 <__slm_global>
		if (unlikely(contention)) {
  400cde:	48 89 c2             	mov    rdx,rax
  400ce1:	83 e2 01             	and    edx,0x1
  400ce4:	74 da                	je     400cc0 <slm_blkpt_alloc+0xa0>
	*thd        = (struct slm_thd *)(oc & (~0UL << 1));
  400ce6:	48 89 c6             	mov    rsi,rax
			if (!slm_cs_exit_contention(cs, current, cached, tok)) return;
  400ce9:	48 89 c2             	mov    rdx,rax
  400cec:	bf c0 1e 5a 00       	mov    edi,0x5a1ec0
  400cf1:	48 83 e6 fe          	and    rsi,0xfffffffffffffffe
  400cf5:	e8 66 2b 01 00       	call   413860 <slm_cs_exit_contention>
  400cfa:	85 c0                	test   eax,eax
  400cfc:	75 d2                	jne    400cd0 <slm_blkpt_alloc+0xb0>
unlock:
	slm_cs_exit(NULL, SLM_CS_NONE);

	return ret;
}
  400cfe:	44 89 e0             	mov    eax,r12d
  400d01:	4c 8b 65 f8          	mov    r12,QWORD PTR [rbp-0x8]
  400d05:	c9                   	leave  
  400d06:	c3                   	ret    
  400d07:	66 0f 1f 84 00 00 00 	nop    WORD PTR [rax+rax*1+0x0]
  400d0e:	00 00 
			ret = slm_cs_enter_contention(cs, cached, current, owner, contended, tok);
  400d10:	41 89 c0             	mov    r8d,eax
  400d13:	4c 89 e2             	mov    rdx,r12
  400d16:	48 89 c6             	mov    rsi,rax
  400d19:	bf c0 1e 5a 00       	mov    edi,0x5a1ec0
  400d1e:	41 83 e0 01          	and    r8d,0x1
  400d22:	e8 e9 2a 01 00       	call   413810 <slm_cs_enter_contention>
			assert(ret != -EBUSY);
  400d27:	83 f8 f0             	cmp    eax,0xfffffff0
  400d2a:	0f 85 0a ff ff ff    	jne    400c3a <slm_blkpt_alloc+0x1a>
  400d30:	be 59 00 00 00       	mov    esi,0x59
  400d35:	bf c0 c7 41 00       	mov    edi,0x41c7c0
  400d3a:	e8 91 93 00 00       	call   40a0d0 <cos_print_str>
  400d3f:	c7 04 25 00 00 00 00 	mov    DWORD PTR ds:0x0,0x0
  400d46:	00 00 00 00 
  400d4a:	0f 0b                	ud2    
  400d4c:	be 59 00 00 00       	mov    esi,0x59
  400d51:	bf 60 c7 41 00       	mov    edi,0x41c760
  400d56:	e8 75 93 00 00       	call   40a0d0 <cos_print_str>
	assert(current);
  400d5b:	c7 04 25 00 00 00 00 	mov    DWORD PTR ds:0x0,0x0
  400d62:	00 00 00 00 
  400d66:	0f 0b                	ud2    
	if (!m) ERR_THROW(SCHED_BLKPT_NULL, unlock);
  400d68:	45 31 e4             	xor    r12d,r12d
	while (ret != 0) {
  400d6b:	e9 60 ff ff ff       	jmp    400cd0 <slm_blkpt_alloc+0xb0>

0000000000400d70 <slm_blkpt_free>:

int
slm_blkpt_free(sched_blkpt_id_t id)
{
  400d70:	f3 0f 1e fa          	endbr64 
	/* alloc only for now */
	return 0;
}
  400d74:	31 c0                	xor    eax,eax
  400d76:	c3                   	ret    
  400d77:	66 0f 1f 84 00 00 00 	nop    WORD PTR [rax+rax*1+0x0]
  400d7e:	00 00 

0000000000400d80 <slm_blkpt_trigger>:

int
slm_blkpt_trigger(sched_blkpt_id_t blkpt, struct slm_thd *current, sched_blkpt_epoch_t epoch, int single)
{
  400d80:	f3 0f 1e fa          	endbr64 
  400d84:	55                   	push   rbp
  400d85:	48 89 e5             	mov    rbp,rsp
  400d88:	41 57                	push   r15
  400d8a:	41 56                	push   r14
  400d8c:	41 89 fe             	mov    r14d,edi
  400d8f:	41 55                	push   r13
  400d91:	49 89 d5             	mov    r13,rdx
  400d94:	41 54                	push   r12
  400d96:	41 89 cc             	mov    r12d,ecx
  400d99:	53                   	push   rbx
  400d9a:	48 89 f3             	mov    rbx,rsi
  400d9d:	48 83 ec 08          	sub    rsp,0x8
	assert(current);
  400da1:	48 85 f6             	test   rsi,rsi
  400da4:	0f 84 5a 02 00 00    	je     401004 <slm_blkpt_trigger+0x284>
		tok    = cos_sched_sync();
  400daa:	e8 51 05 01 00       	call   411300 <cos_sched_sync>
  400daf:	41 89 c1             	mov    r9d,eax
	unsigned long oc = ps_load(&cs->owner_contention);
  400db2:	48 8b 05 07 11 1a 00 	mov    rax,QWORD PTR [rip+0x1a1107]        # 5a1ec0 <__slm_global>
		if (unlikely(owner)) {
  400db9:	48 89 c1             	mov    rcx,rax
  400dbc:	48 83 e1 fe          	and    rcx,0xfffffffffffffffe
  400dc0:	0f 85 02 02 00 00    	jne    400fc8 <slm_blkpt_trigger+0x248>
  400dc6:	f0 48 0f b1 1d f1 10 	lock cmpxchg QWORD PTR [rip+0x1a10f1],rbx        # 5a1ec0 <__slm_global>
  400dcd:	1a 00 
  400dcf:	0f 94 c0             	sete   al
		if (likely(!__slm_cs_cas(cs, cached, current, 0))) return 0;
  400dd2:	84 c0                	test   al,al
  400dd4:	74 d4                	je     400daa <slm_blkpt_trigger+0x2a>
	if (id - 1 == NBLKPTS) return NULL;
  400dd6:	41 81 fe 01 a0 00 00 	cmp    r14d,0xa001
  400ddd:	0f 84 3d 02 00 00    	je     401020 <slm_blkpt_trigger+0x2a0>
	return &__blkpts[id-1];
  400de3:	41 8d 7e ff          	lea    edi,[r14-0x1]
  400de7:	be 01 00 00 00       	mov    esi,0x1
  400dec:	31 c9                	xor    ecx,ecx
  400dee:	49 89 fe             	mov    r14,rdi
  400df1:	49 c1 e6 05          	shl    r14,0x5
  400df5:	4d 8d be 00 f9 45 00 	lea    r15,[r14+0x45f900]
{ while (!ps_cas(&l->o, 0, 1)) ; }
  400dfc:	49 8d 96 18 f9 45 00 	lea    rdx,[r14+0x45f918]
  400e03:	0f 1f 44 00 00       	nop    DWORD PTR [rax+rax*1+0x0]
        __asm__ __volatile__("lock " PS_CAS_STR
  400e08:	48 89 c8             	mov    rax,rcx
  400e0b:	f0 48 0f b1 32       	lock cmpxchg QWORD PTR [rdx],rsi
  400e10:	0f 94 c0             	sete   al
{ while (!ps_cas(&l->o, 0, 1)) ; }
  400e13:	84 c0                	test   al,al
  400e15:	74 f1                	je     400e08 <slm_blkpt_trigger+0x88>

		if (!blkpt_epoch_is_higher(pre, epoch)) {
			ps_lock_release(&m->lock);
			ERR_THROW(0, unlock); 
		}
		if (ps_cas(&m->epoch, pre, epoch)) break;
  400e17:	49 8d 96 08 f9 45 00 	lea    rdx,[r14+0x45f908]
  400e1e:	eb 0c                	jmp    400e2c <slm_blkpt_trigger+0xac>
        __asm__ __volatile__("lock " PS_CAS_STR
  400e20:	f0 4c 0f b1 2a       	lock cmpxchg QWORD PTR [rdx],r13
  400e25:	0f 94 c0             	sete   al
  400e28:	84 c0                	test   al,al
  400e2a:	75 74                	jne    400ea0 <slm_blkpt_trigger+0x120>
		sched_blkpt_epoch_t pre = ps_load(&m->epoch);
  400e2c:	49 8b 47 08          	mov    rax,QWORD PTR [r15+0x8]
		if (!blkpt_epoch_is_higher(pre, epoch)) {
  400e30:	4c 39 e8             	cmp    rax,r13
  400e33:	76 eb                	jbe    400e20 <slm_blkpt_trigger+0xa0>
{ l->o = 0; }
  400e35:	49 c7 47 18 00 00 00 	mov    QWORD PTR [r15+0x18],0x0
  400e3c:	00 
			ERR_THROW(0, unlock); 
  400e3d:	45 31 e4             	xor    r12d,r12d
  400e40:	eb 16                	jmp    400e58 <slm_blkpt_trigger+0xd8>
  400e42:	66 0f 1f 44 00 00    	nop    WORD PTR [rax+rax*1+0x0]
        __asm__ __volatile__("lock " PS_CAS_STR
  400e48:	f0 48 0f b1 15 6f 10 	lock cmpxchg QWORD PTR [rip+0x1a106f],rdx        # 5a1ec0 <__slm_global>
  400e4f:	1a 00 
  400e51:	0f 94 c0             	sete   al
	while (ret != 0) {
  400e54:	84 c0                	test   al,al
  400e56:	75 2e                	jne    400e86 <slm_blkpt_trigger+0x106>
		tok    = cos_sched_sync();
  400e58:	e8 a3 04 01 00       	call   411300 <cos_sched_sync>
  400e5d:	89 c1                	mov    ecx,eax
  400e5f:	48 8b 05 5a 10 1a 00 	mov    rax,QWORD PTR [rip+0x1a105a]        # 5a1ec0 <__slm_global>
		if (unlikely(contention)) {
  400e66:	48 89 c2             	mov    rdx,rax
  400e69:	83 e2 01             	and    edx,0x1
  400e6c:	74 da                	je     400e48 <slm_blkpt_trigger+0xc8>
	*thd        = (struct slm_thd *)(oc & (~0UL << 1));
  400e6e:	48 89 c6             	mov    rsi,rax
			if (!slm_cs_exit_contention(cs, current, cached, tok)) return;
  400e71:	48 89 c2             	mov    rdx,rax
  400e74:	bf c0 1e 5a 00       	mov    edi,0x5a1ec0
  400e79:	48 83 e6 fe          	and    rsi,0xfffffffffffffffe
  400e7d:	e8 de 29 01 00       	call   413860 <slm_cs_exit_contention>
  400e82:	85 c0                	test   eax,eax
  400e84:	75 d2                	jne    400e58 <slm_blkpt_trigger+0xd8>
	return 0;
unlock:
	slm_cs_exit(NULL, SLM_CS_NONE);

	return ret;
}
  400e86:	48 83 c4 08          	add    rsp,0x8
  400e8a:	44 89 e0             	mov    eax,r12d
  400e8d:	5b                   	pop    rbx
  400e8e:	41 5c                	pop    r12
  400e90:	41 5d                	pop    r13
  400e92:	41 5e                	pop    r14
  400e94:	41 5f                	pop    r15
  400e96:	5d                   	pop    rbp
  400e97:	c3                   	ret    
  400e98:	0f 1f 84 00 00 00 00 	nop    DWORD PTR [rax+rax*1+0x0]
  400e9f:	00 
	 * threads, but we'll implement this conservatively. Given
	 * this, please note that this should *not* iterate more than
	 * once.
	 */
	while (1) {
		sl = ps_load(&h->head);
  400ea0:	48 c1 e7 05          	shl    rdi,0x5
		/*
		 * Check sl again in case other thread updating the head,
		 * which might causes dereferencing a NULL pointer.
		 */
		if (!sl) return NULL;
		if (ps_cas((unsigned long *)&h->head, (unsigned long)sl, (unsigned long)sl->next)) break;
  400ea4:	49 81 c6 10 f9 45 00 	add    r14,0x45f910
		sl = ps_load(&h->head);
  400eab:	49 89 fd             	mov    r13,rdi
  400eae:	66 90                	xchg   ax,ax
	if (!h->head) return NULL;
  400eb0:	49 83 7f 10 00       	cmp    QWORD PTR [r15+0x10],0x0
  400eb5:	74 28                	je     400edf <slm_blkpt_trigger+0x15f>
		sl = ps_load(&h->head);
  400eb7:	49 8d b5 00 f9 45 00 	lea    rsi,[r13+0x45f900]
  400ebe:	eb 16                	jmp    400ed6 <slm_blkpt_trigger+0x156>
  400ec0:	48 8b 0a             	mov    rcx,QWORD PTR [rdx]
  400ec3:	48 89 d0             	mov    rax,rdx
  400ec6:	f0 49 0f b1 0e       	lock cmpxchg QWORD PTR [r14],rcx
  400ecb:	0f 94 c0             	sete   al
		if (ps_cas((unsigned long *)&h->head, (unsigned long)sl, (unsigned long)sl->next)) break;
  400ece:	84 c0                	test   al,al
  400ed0:	0f 85 d2 00 00 00    	jne    400fa8 <slm_blkpt_trigger+0x228>
		sl = ps_load(&h->head);
  400ed6:	48 8b 56 10          	mov    rdx,QWORD PTR [rsi+0x10]
		if (!sl) return NULL;
  400eda:	48 85 d2             	test   rdx,rdx
  400edd:	75 e1                	jne    400ec0 <slm_blkpt_trigger+0x140>
{ l->o = 0; }
  400edf:	49 c7 47 18 00 00 00 	mov    QWORD PTR [r15+0x18],0x0
  400ee6:	00 
	if (unlikely(!t)) t = &g->idle_thd;
  400ee7:	41 bd 40 1f 5a 00    	mov    r13d,0x5a1f40
	struct cos_compinfo    *ci  = &cos_defcompinfo_curr_get()->ci;
  400eed:	e8 6e a9 00 00       	call   40b860 <cos_defcompinfo_curr_get>
	tok  = cos_sched_sync();
  400ef2:	e8 09 04 01 00       	call   411300 <cos_sched_sync>
  400ef7:	41 89 c6             	mov    r14d,eax
SLM_MODULES_COMPOSE_FNS(quantum, fprr, static_cm);
  400efa:	e8 91 15 01 00       	call   412490 <slm_sched_fprr_schedule>
	if (unlikely(!t)) t = &g->idle_thd;
  400eff:	48 85 c0             	test   rax,rax
  400f02:	49 89 c4             	mov    r12,rax
  400f05:	4d 0f 44 e5          	cmove  r12,r13
{ return s == SLM_THD_RUNNABLE || s == SLM_THD_WOKEN; }
  400f09:	41 8b 44 24 04       	mov    eax,DWORD PTR [r12+0x4]
  400f0e:	83 e8 02             	sub    eax,0x2
	assert(slm_state_is_runnable(t->state));
  400f11:	83 f8 01             	cmp    eax,0x1
  400f14:	76 1a                	jbe    400f30 <slm_blkpt_trigger+0x1b0>
  400f16:	e9 10 01 00 00       	jmp    40102b <slm_blkpt_trigger+0x2ab>
  400f1b:	0f 1f 44 00 00       	nop    DWORD PTR [rax+rax*1+0x0]
        __asm__ __volatile__("lock " PS_CAS_STR
  400f20:	f0 48 0f b1 15 97 0f 	lock cmpxchg QWORD PTR [rip+0x1a0f97],rdx        # 5a1ec0 <__slm_global>
  400f27:	1a 00 
  400f29:	0f 94 c0             	sete   al
	while (ret != 0) {
  400f2c:	84 c0                	test   al,al
  400f2e:	75 2e                	jne    400f5e <slm_blkpt_trigger+0x1de>
		tok    = cos_sched_sync();
  400f30:	e8 cb 03 01 00       	call   411300 <cos_sched_sync>
  400f35:	89 c1                	mov    ecx,eax
	unsigned long oc = ps_load(&cs->owner_contention);
  400f37:	48 8b 05 82 0f 1a 00 	mov    rax,QWORD PTR [rip+0x1a0f82]        # 5a1ec0 <__slm_global>
		if (unlikely(contention)) {
  400f3e:	48 89 c2             	mov    rdx,rax
  400f41:	83 e2 01             	and    edx,0x1
  400f44:	74 da                	je     400f20 <slm_blkpt_trigger+0x1a0>
	*thd        = (struct slm_thd *)(oc & (~0UL << 1));
  400f46:	48 89 c6             	mov    rsi,rax
			if (!slm_cs_exit_contention(cs, current, cached, tok)) return;
  400f49:	48 89 c2             	mov    rdx,rax
  400f4c:	bf c0 1e 5a 00       	mov    edi,0x5a1ec0
  400f51:	48 83 e6 fe          	and    rsi,0xfffffffffffffffe
  400f55:	e8 06 29 01 00       	call   413860 <slm_cs_exit_contention>
  400f5a:	85 c0                	test   eax,eax
  400f5c:	75 d2                	jne    400f30 <slm_blkpt_trigger+0x1b0>
	struct cos_defcompinfo *dci = cos_defcompinfo_curr_get();
  400f5e:	e8 fd a8 00 00       	call   40b860 <cos_defcompinfo_curr_get>
	if (unlikely(t->properties & (SLM_THD_PROPERTY_SEND | SLM_THD_PROPERTY_OWN_TCAP | SLM_THD_PROPERTY_SPECIAL))) {
  400f63:	41 8b 04 24          	mov    eax,DWORD PTR [r12]
	prio = inherit_prio ? curr->priority : t->priority;
  400f67:	49 8b 74 24 30       	mov    rsi,QWORD PTR [r12+0x30]
	timeout = g->timeout_next;
  400f6c:	4c 8b 05 55 10 1a 00 	mov    r8,QWORD PTR [rip+0x1a1055]        # 5a1fc8 <__slm_global+0x108>
	if (unlikely(t->properties & (SLM_THD_PROPERTY_SEND | SLM_THD_PROPERTY_OWN_TCAP | SLM_THD_PROPERTY_SPECIAL))) {
  400f73:	a8 0b                	test   al,0xb
  400f75:	0f 85 cc 00 00 00    	jne    401047 <slm_blkpt_trigger+0x2c7>
	ret = cos_defswitch(t->thd, prio, timeout, tok);
  400f7b:	49 8b 7c 24 10       	mov    rdi,QWORD PTR [r12+0x10]
  400f80:	44 89 f1             	mov    ecx,r14d
  400f83:	4c 89 c2             	mov    rdx,r8
  400f86:	e8 d5 b7 00 00       	call   40c760 <cos_defswitch>
	if (unlikely(ret == -EPERM && !slm_thd_normal(t))) {
  400f8b:	83 f8 ff             	cmp    eax,0xffffffff
  400f8e:	0f 84 5c 01 00 00    	je     4010f0 <slm_blkpt_trigger+0x370>
	if (unlikely(ret != 0)) {
  400f94:	85 c0                	test   eax,eax
  400f96:	0f 85 fa 00 00 00    	jne    401096 <slm_blkpt_trigger+0x316>
	return 0;
  400f9c:	45 31 e4             	xor    r12d,r12d
  400f9f:	e9 e2 fe ff ff       	jmp    400e86 <slm_blkpt_trigger+0x106>
  400fa4:	0f 1f 40 00          	nop    DWORD PTR [rax+0x0]
	}
	sl->next = NULL;
  400fa8:	48 c7 02 00 00 00 00 	mov    QWORD PTR [rdx],0x0
		slm_thd_wakeup(t, 0); /* ignore retval: process next thread */
  400faf:	48 8b 7a 08          	mov    rdi,QWORD PTR [rdx+0x8]
  400fb3:	31 f6                	xor    esi,esi
  400fb5:	e8 76 2e 01 00       	call   413e30 <slm_thd_wakeup>
		if (single) break;
  400fba:	45 85 e4             	test   r12d,r12d
  400fbd:	0f 84 ed fe ff ff    	je     400eb0 <slm_blkpt_trigger+0x130>
  400fc3:	e9 17 ff ff ff       	jmp    400edf <slm_blkpt_trigger+0x15f>
			ret = slm_cs_enter_contention(cs, cached, current, owner, contended, tok);
  400fc8:	41 89 c0             	mov    r8d,eax
  400fcb:	48 89 da             	mov    rdx,rbx
  400fce:	48 89 c6             	mov    rsi,rax
  400fd1:	bf c0 1e 5a 00       	mov    edi,0x5a1ec0
  400fd6:	41 83 e0 01          	and    r8d,0x1
  400fda:	e8 31 28 01 00       	call   413810 <slm_cs_enter_contention>
			assert(ret != -EBUSY);
  400fdf:	83 f8 f0             	cmp    eax,0xfffffff0
  400fe2:	0f 85 c2 fd ff ff    	jne    400daa <slm_blkpt_trigger+0x2a>
  400fe8:	be 59 00 00 00       	mov    esi,0x59
  400fed:	bf c0 c7 41 00       	mov    edi,0x41c7c0
  400ff2:	e8 d9 90 00 00       	call   40a0d0 <cos_print_str>
  400ff7:	c7 04 25 00 00 00 00 	mov    DWORD PTR ds:0x0,0x0
  400ffe:	00 00 00 00 
  401002:	0f 0b                	ud2    
  401004:	be 59 00 00 00       	mov    esi,0x59
  401009:	bf 60 c7 41 00       	mov    edi,0x41c760
  40100e:	e8 bd 90 00 00       	call   40a0d0 <cos_print_str>
	assert(current);
  401013:	c7 04 25 00 00 00 00 	mov    DWORD PTR ds:0x0,0x0
  40101a:	00 00 00 00 
  40101e:	0f 0b                	ud2    
	if (!m) ERR_THROW(-1, unlock);
  401020:	41 bc ff ff ff ff    	mov    r12d,0xffffffff
	while (ret != 0) {
  401026:	e9 2d fe ff ff       	jmp    400e58 <slm_blkpt_trigger+0xd8>
  40102b:	be 61 00 00 00       	mov    esi,0x61
  401030:	bf 48 c8 41 00       	mov    edi,0x41c848
  401035:	e8 96 90 00 00       	call   40a0d0 <cos_print_str>
	assert(slm_state_is_runnable(t->state));
  40103a:	c7 04 25 00 00 00 00 	mov    DWORD PTR ds:0x0,0x0
  401041:	00 00 00 00 
  401045:	0f 0b                	ud2    
	timeout = g->timeout_next;
  401047:	4c 89 c1             	mov    rcx,r8
		if (t == &g->sched_thd) {
  40104a:	49 81 fc c8 1e 5a 00 	cmp    r12,0x5a1ec8
  401051:	0f 84 c7 00 00 00    	je     40111e <slm_blkpt_trigger+0x39e>
		if (t->properties & SLM_THD_PROPERTY_SEND) {
  401057:	a8 02                	test   al,0x2
  401059:	0f 85 ca 00 00 00    	jne    401129 <slm_blkpt_trigger+0x3a9>
		} else if (t->properties & SLM_THD_PROPERTY_OWN_TCAP) {
  40105f:	49 89 c8             	mov    r8,rcx
  401062:	a8 01                	test   al,0x1
  401064:	0f 84 11 ff ff ff    	je     400f7b <slm_blkpt_trigger+0x1fb>
			return cos_switch(t->thd, t->tc, prio, timeout, g->sched_thd.rcv, tok);
  40106a:	4d 8b 54 24 08       	mov    r10,QWORD PTR [r12+0x8]
  40106f:	49 8b 7c 24 10       	mov    rdi,QWORD PTR [r12+0x10]
  401074:	48 89 f2             	mov    rdx,rsi
  401077:	45 89 f1             	mov    r9d,r14d
  40107a:	4c 8b 05 67 0e 1a 00 	mov    r8,QWORD PTR [rip+0x1a0e67]        # 5a1ee8 <__slm_global+0x28>
  401081:	4c 89 d6             	mov    rsi,r10
  401084:	e8 97 02 01 00       	call   411320 <cos_switch>
	if (unlikely(ret != 0)) {
  401089:	85 c0                	test   eax,eax
  40108b:	0f 84 0b ff ff ff    	je     400f9c <slm_blkpt_trigger+0x21c>
		assert(ret != -EPERM);
  401091:	83 f8 ff             	cmp    eax,0xffffffff
  401094:	74 6c                	je     401102 <slm_blkpt_trigger+0x382>
		assert(ret != -EINVAL);
  401096:	83 f8 ea             	cmp    eax,0xffffffea
  401099:	0f 84 0d 01 00 00    	je     4011ac <slm_blkpt_trigger+0x42c>
		if (ret == -EBUSY) return ret;
  40109f:	83 f8 f0             	cmp    eax,0xfffffff0
  4010a2:	0f 84 f4 fe ff ff    	je     400f9c <slm_blkpt_trigger+0x21c>
		assert(ret == -EAGAIN);
  4010a8:	83 f8 f5             	cmp    eax,0xfffffff5
  4010ab:	0f 85 df 00 00 00    	jne    401190 <slm_blkpt_trigger+0x410>
		tok    = cos_sched_sync();
  4010b1:	e8 4a 02 01 00       	call   411300 <cos_sched_sync>
	unsigned long oc = ps_load(&cs->owner_contention);
  4010b6:	48 8b 35 03 0e 1a 00 	mov    rsi,QWORD PTR [rip+0x1a0e03]        # 5a1ec0 <__slm_global>
  4010bd:	41 89 c1             	mov    r9d,eax
		if (unlikely(owner)) {
  4010c0:	48 89 f1             	mov    rcx,rsi
  4010c3:	48 83 e1 fe          	and    rcx,0xfffffffffffffffe
  4010c7:	0f 85 9b 00 00 00    	jne    401168 <slm_blkpt_trigger+0x3e8>
  4010cd:	48 89 f0             	mov    rax,rsi
  4010d0:	f0 48 0f b1 1d e7 0d 	lock cmpxchg QWORD PTR [rip+0x1a0de7],rbx        # 5a1ec0 <__slm_global>
  4010d7:	1a 00 
  4010d9:	0f 94 c0             	sete   al
		if (likely(!__slm_cs_cas(cs, cached, current, 0))) return 0;
  4010dc:	84 c0                	test   al,al
  4010de:	0f 85 0e fe ff ff    	jne    400ef2 <slm_blkpt_trigger+0x172>
  4010e4:	eb cb                	jmp    4010b1 <slm_blkpt_trigger+0x331>
  4010e6:	66 2e 0f 1f 84 00 00 	cs nop WORD PTR [rax+rax*1+0x0]
  4010ed:	00 00 00 
	return t != &g->idle_thd && t != &g->sched_thd;
  4010f0:	49 81 fc 40 1f 5a 00 	cmp    r12,0x5a1f40
  4010f7:	74 4c                	je     401145 <slm_blkpt_trigger+0x3c5>
  4010f9:	49 81 fc c8 1e 5a 00 	cmp    r12,0x5a1ec8
  401100:	74 43                	je     401145 <slm_blkpt_trigger+0x3c5>
  401102:	be 61 00 00 00       	mov    esi,0x61
  401107:	bf b0 c8 41 00       	mov    edi,0x41c8b0
  40110c:	e8 bf 8f 00 00       	call   40a0d0 <cos_print_str>
		assert(ret != -EPERM);
  401111:	c7 04 25 00 00 00 00 	mov    DWORD PTR ds:0x0,0x0
  401118:	00 00 00 00 
  40111c:	0f 0b                	ud2    
			prio    = curr->priority;
  40111e:	48 8b 73 30          	mov    rsi,QWORD PTR [rbx+0x30]
			timeout = TCAP_TIME_NIL;
  401122:	31 c9                	xor    ecx,ecx
  401124:	e9 2e ff ff ff       	jmp    401057 <slm_blkpt_trigger+0x2d7>
			return cos_sched_asnd(t->asnd, g->timeout_next, g->sched_thd.rcv, tok);
  401129:	49 8b 7c 24 28       	mov    rdi,QWORD PTR [r12+0x28]
  40112e:	48 8b 15 b3 0d 1a 00 	mov    rdx,QWORD PTR [rip+0x1a0db3]        # 5a1ee8 <__slm_global+0x28>
  401135:	44 89 f1             	mov    ecx,r14d
  401138:	4c 89 c6             	mov    rsi,r8
  40113b:	e8 50 02 01 00       	call   411390 <cos_sched_asnd>
  401140:	e9 44 ff ff ff       	jmp    401089 <slm_blkpt_trigger+0x309>
		ret = cos_switch(g->sched_thd.thd, 0, curr->priority, TCAP_TIME_NIL, g->sched_thd.rcv, tok);
  401145:	48 8b 53 30          	mov    rdx,QWORD PTR [rbx+0x30]
  401149:	4c 8b 05 98 0d 1a 00 	mov    r8,QWORD PTR [rip+0x1a0d98]        # 5a1ee8 <__slm_global+0x28>
  401150:	45 89 f1             	mov    r9d,r14d
  401153:	31 c9                	xor    ecx,ecx
  401155:	48 8b 3d 7c 0d 1a 00 	mov    rdi,QWORD PTR [rip+0x1a0d7c]        # 5a1ed8 <__slm_global+0x18>
  40115c:	31 f6                	xor    esi,esi
  40115e:	e8 bd 01 01 00       	call   411320 <cos_switch>
  401163:	e9 21 ff ff ff       	jmp    401089 <slm_blkpt_trigger+0x309>
			ret = slm_cs_enter_contention(cs, cached, current, owner, contended, tok);
  401168:	41 89 f0             	mov    r8d,esi
  40116b:	48 89 da             	mov    rdx,rbx
  40116e:	bf c0 1e 5a 00       	mov    edi,0x5a1ec0
  401173:	41 83 e0 01          	and    r8d,0x1
  401177:	e8 94 26 01 00       	call   413810 <slm_cs_enter_contention>
			assert(ret != -EBUSY);
  40117c:	83 f8 f0             	cmp    eax,0xfffffff0
  40117f:	0f 85 2c ff ff ff    	jne    4010b1 <slm_blkpt_trigger+0x331>
  401185:	e9 5e fe ff ff       	jmp    400fe8 <slm_blkpt_trigger+0x268>
  40118a:	66 0f 1f 44 00 00    	nop    WORD PTR [rax+rax*1+0x0]
  401190:	be 61 00 00 00       	mov    esi,0x61
  401195:	bf 80 c9 41 00       	mov    edi,0x41c980
  40119a:	e8 31 8f 00 00       	call   40a0d0 <cos_print_str>
		assert(ret == -EAGAIN);
  40119f:	c7 04 25 00 00 00 00 	mov    DWORD PTR ds:0x0,0x0
  4011a6:	00 00 00 00 
  4011aa:	0f 0b                	ud2    
  4011ac:	be 61 00 00 00       	mov    esi,0x61
  4011b1:	bf 18 c9 41 00       	mov    edi,0x41c918
  4011b6:	e8 15 8f 00 00       	call   40a0d0 <cos_print_str>
		assert(ret != -EINVAL);
  4011bb:	c7 04 25 00 00 00 00 	mov    DWORD PTR ds:0x0,0x0
  4011c2:	00 00 00 00 
  4011c6:	0f 0b                	ud2    
  4011c8:	0f 1f 84 00 00 00 00 	nop    DWORD PTR [rax+rax*1+0x0]
  4011cf:	00 

00000000004011d0 <slm_blkpt_block>:

int
slm_blkpt_block(sched_blkpt_id_t blkpt, struct slm_thd *current, sched_blkpt_epoch_t epoch, thdid_t dependency)
{
  4011d0:	f3 0f 1e fa          	endbr64 
  4011d4:	55                   	push   rbp
  4011d5:	48 89 e5             	mov    rbp,rsp
  4011d8:	41 57                	push   r15
  4011da:	41 56                	push   r14
  4011dc:	41 55                	push   r13
  4011de:	41 89 fd             	mov    r13d,edi
  4011e1:	41 54                	push   r12
  4011e3:	49 89 d4             	mov    r12,rdx
  4011e6:	53                   	push   rbx
  4011e7:	48 89 f3             	mov    rbx,rsi
  4011ea:	48 83 ec 18          	sub    rsp,0x18
	assert(current);
  4011ee:	48 85 f6             	test   rsi,rsi
  4011f1:	0f 84 05 02 00 00    	je     4013fc <slm_blkpt_block+0x22c>
		tok    = cos_sched_sync();
  4011f7:	e8 04 01 01 00       	call   411300 <cos_sched_sync>
  4011fc:	41 89 c1             	mov    r9d,eax
	unsigned long oc = ps_load(&cs->owner_contention);
  4011ff:	48 8b 05 ba 0c 1a 00 	mov    rax,QWORD PTR [rip+0x1a0cba]        # 5a1ec0 <__slm_global>
		if (unlikely(owner)) {
  401206:	48 89 c1             	mov    rcx,rax
  401209:	48 83 e1 fe          	and    rcx,0xfffffffffffffffe
  40120d:	0f 85 ad 01 00 00    	jne    4013c0 <slm_blkpt_block+0x1f0>
  401213:	f0 48 0f b1 1d a4 0c 	lock cmpxchg QWORD PTR [rip+0x1a0ca4],rbx        # 5a1ec0 <__slm_global>
  40121a:	1a 00 
  40121c:	0f 94 c0             	sete   al
		if (likely(!__slm_cs_cas(cs, cached, current, 0))) return 0;
  40121f:	84 c0                	test   al,al
  401221:	74 d4                	je     4011f7 <slm_blkpt_block+0x27>
	if (id - 1 == NBLKPTS) return NULL;
  401223:	41 81 fd 01 a0 00 00 	cmp    r13d,0xa001
  40122a:	0f 84 e8 01 00 00    	je     401418 <slm_blkpt_block+0x248>
	return &__blkpts[id-1];
  401230:	45 8d 45 ff          	lea    r8d,[r13-0x1]
  401234:	be 01 00 00 00       	mov    esi,0x1
  401239:	31 c9                	xor    ecx,ecx
  40123b:	4c 89 c7             	mov    rdi,r8
  40123e:	48 c1 e7 05          	shl    rdi,0x5
  401242:	4c 8d af 00 f9 45 00 	lea    r13,[rdi+0x45f900]
{ while (!ps_cas(&l->o, 0, 1)) ; }
  401249:	48 8d 97 18 f9 45 00 	lea    rdx,[rdi+0x45f918]
        __asm__ __volatile__("lock " PS_CAS_STR
  401250:	48 89 c8             	mov    rax,rcx
  401253:	f0 48 0f b1 32       	lock cmpxchg QWORD PTR [rdx],rsi
  401258:	0f 94 c0             	sete   al
{ while (!ps_cas(&l->o, 0, 1)) ; }
  40125b:	84 c0                	test   al,al
  40125d:	74 f1                	je     401250 <slm_blkpt_block+0x80>
		ERR_THROW(-1, unlock);
	}

	ps_lock_take(&m->lock);
	/* Outdated event? don't block! */
	pre = ps_load(&m->epoch);
  40125f:	49 8b 75 08          	mov    rsi,QWORD PTR [r13+0x8]
	if (!blkpt_epoch_is_higher(pre, epoch)) {
  401263:	4c 39 e6             	cmp    rsi,r12
  401266:	76 68                	jbe    4012d0 <slm_blkpt_block+0x100>
{ l->o = 0; }
  401268:	49 c7 45 18 00 00 00 	mov    QWORD PTR [r13+0x18],0x0
  40126f:	00 
			 */
			assert(_sl == &sl);
		}
		assert(stacklist_is_removed(&sl));
		ps_lock_release(&m->lock);
		ERR_THROW(0, unlock);
  401270:	45 31 e4             	xor    r12d,r12d
  401273:	eb 13                	jmp    401288 <slm_blkpt_block+0xb8>
  401275:	0f 1f 00             	nop    DWORD PTR [rax]
        __asm__ __volatile__("lock " PS_CAS_STR
  401278:	f0 48 0f b1 15 3f 0c 	lock cmpxchg QWORD PTR [rip+0x1a0c3f],rdx        # 5a1ec0 <__slm_global>
  40127f:	1a 00 
  401281:	0f 94 c0             	sete   al
	while (ret != 0) {
  401284:	84 c0                	test   al,al
  401286:	75 2e                	jne    4012b6 <slm_blkpt_block+0xe6>
		tok    = cos_sched_sync();
  401288:	e8 73 00 01 00       	call   411300 <cos_sched_sync>
  40128d:	89 c1                	mov    ecx,eax
  40128f:	48 8b 05 2a 0c 1a 00 	mov    rax,QWORD PTR [rip+0x1a0c2a]        # 5a1ec0 <__slm_global>
		if (unlikely(contention)) {
  401296:	48 89 c2             	mov    rdx,rax
  401299:	83 e2 01             	and    edx,0x1
  40129c:	74 da                	je     401278 <slm_blkpt_block+0xa8>
	*thd        = (struct slm_thd *)(oc & (~0UL << 1));
  40129e:	48 89 c6             	mov    rsi,rax
			if (!slm_cs_exit_contention(cs, current, cached, tok)) return;
  4012a1:	48 89 c2             	mov    rdx,rax
  4012a4:	bf c0 1e 5a 00       	mov    edi,0x5a1ec0
  4012a9:	48 83 e6 fe          	and    rsi,0xfffffffffffffffe
  4012ad:	e8 ae 25 01 00       	call   413860 <slm_cs_exit_contention>
  4012b2:	85 c0                	test   eax,eax
  4012b4:	75 d2                	jne    401288 <slm_blkpt_block+0xb8>
	return 0;
unlock:
	slm_cs_exit(NULL, SLM_CS_NONE);

	return ret;
}
  4012b6:	48 83 c4 18          	add    rsp,0x18
  4012ba:	44 89 e0             	mov    eax,r12d
  4012bd:	5b                   	pop    rbx
  4012be:	41 5c                	pop    r12
  4012c0:	41 5d                	pop    r13
  4012c2:	41 5e                	pop    r14
  4012c4:	41 5f                	pop    r15
  4012c6:	5d                   	pop    rbp
  4012c7:	c3                   	ret    
  4012c8:	0f 1f 84 00 00 00 00 	nop    DWORD PTR [rax+rax*1+0x0]
  4012cf:	00 
		struct stacklist *n = ps_load(&h->head);
  4012d0:	4c 89 c1             	mov    rcx,r8
	l->data = data;
  4012d3:	48 89 5d c8          	mov    QWORD PTR [rbp-0x38],rbx
		if (ps_cas((unsigned long *)&h->head, (unsigned long)n, (unsigned long)l)) break;
  4012d7:	48 8d 97 10 f9 45 00 	lea    rdx,[rdi+0x45f910]
  4012de:	48 8d 7d c0          	lea    rdi,[rbp-0x40]
		struct stacklist *n = ps_load(&h->head);
  4012e2:	48 c1 e1 05          	shl    rcx,0x5
  4012e6:	48 81 c1 00 f9 45 00 	add    rcx,0x45f900
  4012ed:	0f 1f 00             	nop    DWORD PTR [rax]
  4012f0:	48 8b 41 10          	mov    rax,QWORD PTR [rcx+0x10]
		l->next = n;
  4012f4:	48 89 45 c0          	mov    QWORD PTR [rbp-0x40],rax
  4012f8:	f0 48 0f b1 3a       	lock cmpxchg QWORD PTR [rdx],rdi
  4012fd:	0f 94 c0             	sete   al
		if (ps_cas((unsigned long *)&h->head, (unsigned long)n, (unsigned long)l)) break;
  401300:	84 c0                	test   al,al
  401302:	74 ec                	je     4012f0 <slm_blkpt_block+0x120>
	if (!blkpt_epoch_is_higher(ps_load(&m->epoch), pre)) {
  401304:	49 8b 45 08          	mov    rax,QWORD PTR [r13+0x8]
  401308:	48 39 f0             	cmp    rax,rsi
  40130b:	0f 86 8f 00 00 00    	jbe    4013a0 <slm_blkpt_block+0x1d0>
	if (!h->head) return NULL;
  401311:	49 83 7d 10 00       	cmp    QWORD PTR [r13+0x10],0x0
  401316:	74 2b                	je     401343 <slm_blkpt_block+0x173>
		sl = ps_load(&h->head);
  401318:	49 c1 e0 05          	shl    r8,0x5
  40131c:	49 81 c0 00 f9 45 00 	add    r8,0x45f900
  401323:	eb 15                	jmp    40133a <slm_blkpt_block+0x16a>
  401325:	0f 1f 00             	nop    DWORD PTR [rax]
  401328:	48 8b 31             	mov    rsi,QWORD PTR [rcx]
  40132b:	48 89 c8             	mov    rax,rcx
  40132e:	f0 48 0f b1 32       	lock cmpxchg QWORD PTR [rdx],rsi
  401333:	0f 94 c0             	sete   al
		if (ps_cas((unsigned long *)&h->head, (unsigned long)sl, (unsigned long)sl->next)) break;
  401336:	84 c0                	test   al,al
  401338:	75 36                	jne    401370 <slm_blkpt_block+0x1a0>
		sl = ps_load(&h->head);
  40133a:	49 8b 48 10          	mov    rcx,QWORD PTR [r8+0x10]
		if (!sl) return NULL;
  40133e:	48 85 c9             	test   rcx,rcx
  401341:	75 e5                	jne    401328 <slm_blkpt_block+0x158>
		assert(stacklist_is_removed(&sl));
  401343:	48 83 7d c0 00       	cmp    QWORD PTR [rbp-0x40],0x0
  401348:	0f 84 1a ff ff ff    	je     401268 <slm_blkpt_block+0x98>
  40134e:	be 5f 00 00 00       	mov    esi,0x5f
  401353:	bf 48 ca 41 00       	mov    edi,0x41ca48
  401358:	e8 73 8d 00 00       	call   40a0d0 <cos_print_str>
  40135d:	c7 04 25 00 00 00 00 	mov    DWORD PTR ds:0x0,0x0
  401364:	00 00 00 00 
  401368:	0f 0b                	ud2    
  40136a:	66 0f 1f 44 00 00    	nop    WORD PTR [rax+rax*1+0x0]
	sl->next = NULL;
  401370:	48 c7 01 00 00 00 00 	mov    QWORD PTR [rcx],0x0
			assert(_sl == &sl);
  401377:	48 39 f9             	cmp    rcx,rdi
  40137a:	74 c7                	je     401343 <slm_blkpt_block+0x173>
  40137c:	be 5f 00 00 00       	mov    esi,0x5f
  401381:	bf e8 c9 41 00       	mov    edi,0x41c9e8
  401386:	e8 45 8d 00 00       	call   40a0d0 <cos_print_str>
  40138b:	c7 04 25 00 00 00 00 	mov    DWORD PTR ds:0x0,0x0
  401392:	00 00 00 00 
  401396:	0f 0b                	ud2    
  401398:	0f 1f 84 00 00 00 00 	nop    DWORD PTR [rax+rax*1+0x0]
  40139f:	00 
	if (slm_thd_block(current)) {
  4013a0:	48 89 df             	mov    rdi,rbx
  4013a3:	e8 18 25 01 00       	call   4138c0 <slm_thd_block>
{ l->o = 0; }
  4013a8:	49 c7 45 18 00 00 00 	mov    QWORD PTR [r13+0x18],0x0
  4013af:	00 
  4013b0:	41 89 c4             	mov    r12d,eax
  4013b3:	85 c0                	test   eax,eax
  4013b5:	74 6c                	je     401423 <slm_blkpt_block+0x253>
		ERR_THROW(0, unlock);
  4013b7:	45 31 e4             	xor    r12d,r12d
  4013ba:	e9 c9 fe ff ff       	jmp    401288 <slm_blkpt_block+0xb8>
  4013bf:	90                   	nop
			ret = slm_cs_enter_contention(cs, cached, current, owner, contended, tok);
  4013c0:	41 89 c0             	mov    r8d,eax
  4013c3:	48 89 da             	mov    rdx,rbx
  4013c6:	48 89 c6             	mov    rsi,rax
  4013c9:	bf c0 1e 5a 00       	mov    edi,0x5a1ec0
  4013ce:	41 83 e0 01          	and    r8d,0x1
  4013d2:	e8 39 24 01 00       	call   413810 <slm_cs_enter_contention>
			assert(ret != -EBUSY);
  4013d7:	83 f8 f0             	cmp    eax,0xfffffff0
  4013da:	0f 85 17 fe ff ff    	jne    4011f7 <slm_blkpt_block+0x27>
  4013e0:	be 59 00 00 00       	mov    esi,0x59
  4013e5:	bf c0 c7 41 00       	mov    edi,0x41c7c0
  4013ea:	e8 e1 8c 00 00       	call   40a0d0 <cos_print_str>
  4013ef:	c7 04 25 00 00 00 00 	mov    DWORD PTR ds:0x0,0x0
  4013f6:	00 00 00 00 
  4013fa:	0f 0b                	ud2    
  4013fc:	be 59 00 00 00       	mov    esi,0x59
  401401:	bf 60 c7 41 00       	mov    edi,0x41c760
  401406:	e8 c5 8c 00 00       	call   40a0d0 <cos_print_str>
	assert(current);
  40140b:	c7 04 25 00 00 00 00 	mov    DWORD PTR ds:0x0,0x0
  401412:	00 00 00 00 
  401416:	0f 0b                	ud2    
		ERR_THROW(-1, unlock);
  401418:	41 bc ff ff ff ff    	mov    r12d,0xffffffff
	while (ret != 0) {
  40141e:	e9 65 fe ff ff       	jmp    401288 <slm_blkpt_block+0xb8>
	struct cos_compinfo    *ci  = &cos_defcompinfo_curr_get()->ci;
  401423:	e8 38 a4 00 00       	call   40b860 <cos_defcompinfo_curr_get>
	if (unlikely(!t)) t = &g->idle_thd;
  401428:	41 bf 40 1f 5a 00    	mov    r15d,0x5a1f40
	tok  = cos_sched_sync();
  40142e:	e8 cd fe 00 00       	call   411300 <cos_sched_sync>
  401433:	41 89 c6             	mov    r14d,eax
  401436:	e8 55 10 01 00       	call   412490 <slm_sched_fprr_schedule>
	if (unlikely(!t)) t = &g->idle_thd;
  40143b:	48 85 c0             	test   rax,rax
  40143e:	49 89 c5             	mov    r13,rax
  401441:	4d 0f 44 ef          	cmove  r13,r15
{ return s == SLM_THD_RUNNABLE || s == SLM_THD_WOKEN; }
  401445:	41 8b 45 04          	mov    eax,DWORD PTR [r13+0x4]
  401449:	83 e8 02             	sub    eax,0x2
	assert(slm_state_is_runnable(t->state));
  40144c:	83 f8 01             	cmp    eax,0x1
  40144f:	76 1f                	jbe    401470 <slm_blkpt_block+0x2a0>
  401451:	e9 7a 01 00 00       	jmp    4015d0 <slm_blkpt_block+0x400>
  401456:	66 2e 0f 1f 84 00 00 	cs nop WORD PTR [rax+rax*1+0x0]
  40145d:	00 00 00 
        __asm__ __volatile__("lock " PS_CAS_STR
  401460:	f0 48 0f b1 15 57 0a 	lock cmpxchg QWORD PTR [rip+0x1a0a57],rdx        # 5a1ec0 <__slm_global>
  401467:	1a 00 
  401469:	0f 94 c0             	sete   al
  40146c:	84 c0                	test   al,al
  40146e:	75 2e                	jne    40149e <slm_blkpt_block+0x2ce>
		tok    = cos_sched_sync();
  401470:	e8 8b fe 00 00       	call   411300 <cos_sched_sync>
  401475:	89 c1                	mov    ecx,eax
	unsigned long oc = ps_load(&cs->owner_contention);
  401477:	48 8b 05 42 0a 1a 00 	mov    rax,QWORD PTR [rip+0x1a0a42]        # 5a1ec0 <__slm_global>
		if (unlikely(contention)) {
  40147e:	48 89 c2             	mov    rdx,rax
  401481:	83 e2 01             	and    edx,0x1
  401484:	74 da                	je     401460 <slm_blkpt_block+0x290>
	*thd        = (struct slm_thd *)(oc & (~0UL << 1));
  401486:	48 89 c6             	mov    rsi,rax
			if (!slm_cs_exit_contention(cs, current, cached, tok)) return;
  401489:	48 89 c2             	mov    rdx,rax
  40148c:	bf c0 1e 5a 00       	mov    edi,0x5a1ec0
  401491:	48 83 e6 fe          	and    rsi,0xfffffffffffffffe
  401495:	e8 c6 23 01 00       	call   413860 <slm_cs_exit_contention>
  40149a:	85 c0                	test   eax,eax
  40149c:	75 d2                	jne    401470 <slm_blkpt_block+0x2a0>
	struct cos_defcompinfo *dci = cos_defcompinfo_curr_get();
  40149e:	e8 bd a3 00 00       	call   40b860 <cos_defcompinfo_curr_get>
	if (unlikely(t->properties & (SLM_THD_PROPERTY_SEND | SLM_THD_PROPERTY_OWN_TCAP | SLM_THD_PROPERTY_SPECIAL))) {
  4014a3:	41 8b 45 00          	mov    eax,DWORD PTR [r13+0x0]
	timeout = g->timeout_next;
  4014a7:	4c 8b 05 1a 0b 1a 00 	mov    r8,QWORD PTR [rip+0x1a0b1a]        # 5a1fc8 <__slm_global+0x108>
	prio = inherit_prio ? curr->priority : t->priority;
  4014ae:	49 8b 75 30          	mov    rsi,QWORD PTR [r13+0x30]
	if (unlikely(t->properties & (SLM_THD_PROPERTY_SEND | SLM_THD_PROPERTY_OWN_TCAP | SLM_THD_PROPERTY_SPECIAL))) {
  4014b2:	a8 0b                	test   al,0xb
  4014b4:	75 79                	jne    40152f <slm_blkpt_block+0x35f>
	ret = cos_defswitch(t->thd, prio, timeout, tok);
  4014b6:	49 8b 7d 10          	mov    rdi,QWORD PTR [r13+0x10]
  4014ba:	44 89 f1             	mov    ecx,r14d
  4014bd:	4c 89 c2             	mov    rdx,r8
  4014c0:	e8 9b b2 00 00       	call   40c760 <cos_defswitch>
	if (unlikely(ret == -EPERM && !slm_thd_normal(t))) {
  4014c5:	83 f8 ff             	cmp    eax,0xffffffff
  4014c8:	74 2f                	je     4014f9 <slm_blkpt_block+0x329>
	if (unlikely(ret != 0)) {
  4014ca:	85 c0                	test   eax,eax
  4014cc:	0f 85 aa 00 00 00    	jne    40157c <slm_blkpt_block+0x3ac>
	assert(stacklist_is_removed(&sl));
  4014d2:	48 83 7d c0 00       	cmp    QWORD PTR [rbp-0x40],0x0
  4014d7:	0f 84 d9 fd ff ff    	je     4012b6 <slm_blkpt_block+0xe6>
  4014dd:	be 5f 00 00 00       	mov    esi,0x5f
  4014e2:	bf a8 ca 41 00       	mov    edi,0x41caa8
  4014e7:	e8 e4 8b 00 00       	call   40a0d0 <cos_print_str>
  4014ec:	c7 04 25 00 00 00 00 	mov    DWORD PTR ds:0x0,0x0
  4014f3:	00 00 00 00 
  4014f7:	0f 0b                	ud2    
	return t != &g->idle_thd && t != &g->sched_thd;
  4014f9:	49 81 fd c8 1e 5a 00 	cmp    r13,0x5a1ec8
  401500:	0f 84 0c 01 00 00    	je     401612 <slm_blkpt_block+0x442>
  401506:	49 81 fd 40 1f 5a 00 	cmp    r13,0x5a1f40
  40150d:	0f 84 ff 00 00 00    	je     401612 <slm_blkpt_block+0x442>
  401513:	be 61 00 00 00       	mov    esi,0x61
  401518:	bf b0 c8 41 00       	mov    edi,0x41c8b0
  40151d:	e8 ae 8b 00 00       	call   40a0d0 <cos_print_str>
		assert(ret != -EPERM);
  401522:	c7 04 25 00 00 00 00 	mov    DWORD PTR ds:0x0,0x0
  401529:	00 00 00 00 
  40152d:	0f 0b                	ud2    
	timeout = g->timeout_next;
  40152f:	4c 89 c1             	mov    rcx,r8
		if (t == &g->sched_thd) {
  401532:	49 81 fd c8 1e 5a 00 	cmp    r13,0x5a1ec8
  401539:	0f 84 ad 00 00 00    	je     4015ec <slm_blkpt_block+0x41c>
		if (t->properties & SLM_THD_PROPERTY_SEND) {
  40153f:	a8 02                	test   al,0x2
  401541:	0f 85 b0 00 00 00    	jne    4015f7 <slm_blkpt_block+0x427>
		} else if (t->properties & SLM_THD_PROPERTY_OWN_TCAP) {
  401547:	49 89 c8             	mov    r8,rcx
  40154a:	a8 01                	test   al,0x1
  40154c:	0f 84 64 ff ff ff    	je     4014b6 <slm_blkpt_block+0x2e6>
			return cos_switch(t->thd, t->tc, prio, timeout, g->sched_thd.rcv, tok);
  401552:	4d 8b 55 08          	mov    r10,QWORD PTR [r13+0x8]
  401556:	49 8b 7d 10          	mov    rdi,QWORD PTR [r13+0x10]
  40155a:	48 89 f2             	mov    rdx,rsi
  40155d:	45 89 f1             	mov    r9d,r14d
  401560:	4c 8b 05 81 09 1a 00 	mov    r8,QWORD PTR [rip+0x1a0981]        # 5a1ee8 <__slm_global+0x28>
  401567:	4c 89 d6             	mov    rsi,r10
  40156a:	e8 b1 fd 00 00       	call   411320 <cos_switch>
	if (unlikely(ret != 0)) {
  40156f:	85 c0                	test   eax,eax
  401571:	0f 84 5b ff ff ff    	je     4014d2 <slm_blkpt_block+0x302>
		assert(ret != -EPERM);
  401577:	83 f8 ff             	cmp    eax,0xffffffff
  40157a:	74 97                	je     401513 <slm_blkpt_block+0x343>
		assert(ret != -EINVAL);
  40157c:	83 f8 ea             	cmp    eax,0xffffffea
  40157f:	0f 84 ee 00 00 00    	je     401673 <slm_blkpt_block+0x4a3>
		if (ret == -EBUSY) return ret;
  401585:	83 f8 f0             	cmp    eax,0xfffffff0
  401588:	0f 84 44 ff ff ff    	je     4014d2 <slm_blkpt_block+0x302>
		assert(ret == -EAGAIN);
  40158e:	83 f8 f5             	cmp    eax,0xfffffff5
  401591:	0f 85 c0 00 00 00    	jne    401657 <slm_blkpt_block+0x487>
		tok    = cos_sched_sync();
  401597:	e8 64 fd 00 00       	call   411300 <cos_sched_sync>
	unsigned long oc = ps_load(&cs->owner_contention);
  40159c:	48 8b 35 1d 09 1a 00 	mov    rsi,QWORD PTR [rip+0x1a091d]        # 5a1ec0 <__slm_global>
  4015a3:	41 89 c1             	mov    r9d,eax
		if (unlikely(owner)) {
  4015a6:	48 89 f1             	mov    rcx,rsi
  4015a9:	48 83 e1 fe          	and    rcx,0xfffffffffffffffe
  4015ad:	0f 85 82 00 00 00    	jne    401635 <slm_blkpt_block+0x465>
  4015b3:	48 89 f0             	mov    rax,rsi
  4015b6:	f0 48 0f b1 1d 01 09 	lock cmpxchg QWORD PTR [rip+0x1a0901],rbx        # 5a1ec0 <__slm_global>
  4015bd:	1a 00 
  4015bf:	0f 94 c0             	sete   al
		if (likely(!__slm_cs_cas(cs, cached, current, 0))) return 0;
  4015c2:	84 c0                	test   al,al
  4015c4:	0f 85 64 fe ff ff    	jne    40142e <slm_blkpt_block+0x25e>
  4015ca:	eb cb                	jmp    401597 <slm_blkpt_block+0x3c7>
  4015cc:	0f 1f 40 00          	nop    DWORD PTR [rax+0x0]
  4015d0:	be 61 00 00 00       	mov    esi,0x61
  4015d5:	bf 48 c8 41 00       	mov    edi,0x41c848
  4015da:	e8 f1 8a 00 00       	call   40a0d0 <cos_print_str>
	assert(slm_state_is_runnable(t->state));
  4015df:	c7 04 25 00 00 00 00 	mov    DWORD PTR ds:0x0,0x0
  4015e6:	00 00 00 00 
  4015ea:	0f 0b                	ud2    
			prio    = curr->priority;
  4015ec:	48 8b 73 30          	mov    rsi,QWORD PTR [rbx+0x30]
			timeout = TCAP_TIME_NIL;
  4015f0:	31 c9                	xor    ecx,ecx
  4015f2:	e9 48 ff ff ff       	jmp    40153f <slm_blkpt_block+0x36f>
			return cos_sched_asnd(t->asnd, g->timeout_next, g->sched_thd.rcv, tok);
  4015f7:	49 8b 7d 28          	mov    rdi,QWORD PTR [r13+0x28]
  4015fb:	48 8b 15 e6 08 1a 00 	mov    rdx,QWORD PTR [rip+0x1a08e6]        # 5a1ee8 <__slm_global+0x28>
  401602:	44 89 f1             	mov    ecx,r14d
  401605:	4c 89 c6             	mov    rsi,r8
  401608:	e8 83 fd 00 00       	call   411390 <cos_sched_asnd>
  40160d:	e9 5d ff ff ff       	jmp    40156f <slm_blkpt_block+0x39f>
		ret = cos_switch(g->sched_thd.thd, 0, curr->priority, TCAP_TIME_NIL, g->sched_thd.rcv, tok);
  401612:	48 8b 53 30          	mov    rdx,QWORD PTR [rbx+0x30]
  401616:	4c 8b 05 cb 08 1a 00 	mov    r8,QWORD PTR [rip+0x1a08cb]        # 5a1ee8 <__slm_global+0x28>
  40161d:	45 89 f1             	mov    r9d,r14d
  401620:	31 c9                	xor    ecx,ecx
  401622:	48 8b 3d af 08 1a 00 	mov    rdi,QWORD PTR [rip+0x1a08af]        # 5a1ed8 <__slm_global+0x18>
  401629:	31 f6                	xor    esi,esi
  40162b:	e8 f0 fc 00 00       	call   411320 <cos_switch>
  401630:	e9 3a ff ff ff       	jmp    40156f <slm_blkpt_block+0x39f>
			ret = slm_cs_enter_contention(cs, cached, current, owner, contended, tok);
  401635:	41 89 f0             	mov    r8d,esi
  401638:	48 89 da             	mov    rdx,rbx
  40163b:	bf c0 1e 5a 00       	mov    edi,0x5a1ec0
  401640:	41 83 e0 01          	and    r8d,0x1
  401644:	e8 c7 21 01 00       	call   413810 <slm_cs_enter_contention>
			assert(ret != -EBUSY);
  401649:	83 f8 f0             	cmp    eax,0xfffffff0
  40164c:	0f 85 45 ff ff ff    	jne    401597 <slm_blkpt_block+0x3c7>
  401652:	e9 89 fd ff ff       	jmp    4013e0 <slm_blkpt_block+0x210>
  401657:	be 61 00 00 00       	mov    esi,0x61
  40165c:	bf 80 c9 41 00       	mov    edi,0x41c980
  401661:	e8 6a 8a 00 00       	call   40a0d0 <cos_print_str>
		assert(ret == -EAGAIN);
  401666:	c7 04 25 00 00 00 00 	mov    DWORD PTR ds:0x0,0x0
  40166d:	00 00 00 00 
  401671:	0f 0b                	ud2    
  401673:	be 61 00 00 00       	mov    esi,0x61
  401678:	bf 18 c9 41 00       	mov    edi,0x41c918
  40167d:	e8 4e 8a 00 00       	call   40a0d0 <cos_print_str>
		assert(ret != -EINVAL);
  401682:	c7 04 25 00 00 00 00 	mov    DWORD PTR ds:0x0,0x0
  401689:	00 00 00 00 
  40168d:	0f 0b                	ud2    
  40168f:	90                   	nop

0000000000401690 <slm_thd_timer_policy>:
SLM_MODULES_COMPOSE_DATA();
  401690:	f3 0f 1e fa          	endbr64 
  401694:	48 8d 87 88 00 00 00 	lea    rax,[rdi+0x88]
  40169b:	c3                   	ret    
  40169c:	0f 1f 40 00          	nop    DWORD PTR [rax+0x0]

00000000004016a0 <slm_thd_sched_policy>:
  4016a0:	f3 0f 1e fa          	endbr64 
  4016a4:	48 8d 47 78          	lea    rax,[rdi+0x78]
  4016a8:	c3                   	ret    
  4016a9:	0f 1f 80 00 00 00 00 	nop    DWORD PTR [rax+0x0]

00000000004016b0 <slm_thd_from_timer>:
  4016b0:	f3 0f 1e fa          	endbr64 
  4016b4:	48 8d 87 78 ff ff ff 	lea    rax,[rdi-0x88]
  4016bb:	c3                   	ret    
  4016bc:	0f 1f 40 00          	nop    DWORD PTR [rax+0x0]

00000000004016c0 <slm_thd_from_sched>:
  4016c0:	f3 0f 1e fa          	endbr64 
  4016c4:	48 8d 47 88          	lea    rax,[rdi-0x78]
  4016c8:	c3                   	ret    
  4016c9:	0f 1f 80 00 00 00 00 	nop    DWORD PTR [rax+0x0]

00000000004016d0 <slm_timer_expire>:
SLM_MODULES_COMPOSE_FNS(quantum, fprr, static_cm);
  4016d0:	f3 0f 1e fa          	endbr64 
  4016d4:	e9 e7 13 01 00       	jmp    412ac0 <slm_timer_quantum_expire>
  4016d9:	0f 1f 80 00 00 00 00 	nop    DWORD PTR [rax+0x0]

00000000004016e0 <slm_timer_thd_init>:
  4016e0:	f3 0f 1e fa          	endbr64 
  4016e4:	e9 77 16 01 00       	jmp    412d60 <slm_timer_quantum_thd_init>
  4016e9:	0f 1f 80 00 00 00 00 	nop    DWORD PTR [rax+0x0]

00000000004016f0 <slm_timer_thd_deinit>:
  4016f0:	f3 0f 1e fa          	endbr64 
  4016f4:	e9 87 16 01 00       	jmp    412d80 <slm_timer_quantum_thd_deinit>
  4016f9:	0f 1f 80 00 00 00 00 	nop    DWORD PTR [rax+0x0]

0000000000401700 <slm_timer_add>:
  401700:	f3 0f 1e fa          	endbr64 
  401704:	e9 47 15 01 00       	jmp    412c50 <slm_timer_quantum_add>
  401709:	0f 1f 80 00 00 00 00 	nop    DWORD PTR [rax+0x0]

0000000000401710 <slm_timer_cancel>:
  401710:	f3 0f 1e fa          	endbr64 
  401714:	e9 c7 15 01 00       	jmp    412ce0 <slm_timer_quantum_cancel>
  401719:	0f 1f 80 00 00 00 00 	nop    DWORD PTR [rax+0x0]

0000000000401720 <slm_timer_init>:
  401720:	f3 0f 1e fa          	endbr64 
  401724:	e9 67 16 01 00       	jmp    412d90 <slm_timer_quantum_init>
  401729:	0f 1f 80 00 00 00 00 	nop    DWORD PTR [rax+0x0]

0000000000401730 <slm_sched_init>:
  401730:	f3 0f 1e fa          	endbr64 
  401734:	e9 47 10 01 00       	jmp    412780 <slm_sched_fprr_init>
  401739:	0f 1f 80 00 00 00 00 	nop    DWORD PTR [rax+0x0]

0000000000401740 <slm_sched_thd_init>:
  401740:	f3 0f 1e fa          	endbr64 
  401744:	e9 a7 0e 01 00       	jmp    4125f0 <slm_sched_fprr_thd_init>
  401749:	0f 1f 80 00 00 00 00 	nop    DWORD PTR [rax+0x0]

0000000000401750 <slm_sched_thd_deinit>:
  401750:	f3 0f 1e fa          	endbr64 
  401754:	e9 c7 0e 01 00       	jmp    412620 <slm_sched_fprr_thd_deinit>
  401759:	0f 1f 80 00 00 00 00 	nop    DWORD PTR [rax+0x0]

0000000000401760 <slm_sched_thd_update>:
  401760:	f3 0f 1e fa          	endbr64 
  401764:	e9 e7 0e 01 00       	jmp    412650 <slm_sched_fprr_thd_update>
  401769:	0f 1f 80 00 00 00 00 	nop    DWORD PTR [rax+0x0]

0000000000401770 <slm_sched_block>:
  401770:	f3 0f 1e fa          	endbr64 
  401774:	e9 77 0d 01 00       	jmp    4124f0 <slm_sched_fprr_block>
  401779:	0f 1f 80 00 00 00 00 	nop    DWORD PTR [rax+0x0]

0000000000401780 <slm_sched_wakeup>:
  401780:	f3 0f 1e fa          	endbr64 
  401784:	e9 97 0d 01 00       	jmp    412520 <slm_sched_fprr_wakeup>
  401789:	0f 1f 80 00 00 00 00 	nop    DWORD PTR [rax+0x0]

0000000000401790 <slm_sched_yield>:
  401790:	f3 0f 1e fa          	endbr64 
  401794:	e9 f7 0d 01 00       	jmp    412590 <slm_sched_fprr_yield>
  401799:	0f 1f 80 00 00 00 00 	nop    DWORD PTR [rax+0x0]

00000000004017a0 <slm_sched_schedule>:
  4017a0:	f3 0f 1e fa          	endbr64 
  4017a4:	e9 e7 0c 01 00       	jmp    412490 <slm_sched_fprr_schedule>
  4017a9:	0f 1f 80 00 00 00 00 	nop    DWORD PTR [rax+0x0]

00000000004017b0 <slm_sched_execution>:
  4017b0:	f3 0f 1e fa          	endbr64 
  4017b4:	e9 c7 0c 01 00       	jmp    412480 <slm_sched_fprr_execution>
  4017b9:	0f 1f 80 00 00 00 00 	nop    DWORD PTR [rax+0x0]

00000000004017c0 <slm_thd_lookup>:
  4017c0:	f3 0f 1e fa          	endbr64 
SS_STATIC_SLAB(thd, struct slm_thd_container, MAX_NUM_THREADS);
  4017c4:	85 ff                	test   edi,edi
  4017c6:	74 38                	je     401800 <slm_thd_lookup+0x40>
  4017c8:	83 ef 01             	sub    edi,0x1
  4017cb:	83 ff 18             	cmp    edi,0x18
  4017ce:	77 30                	ja     401800 <slm_thd_lookup+0x40>
  4017d0:	48 8b 14 fd 00 e7 45 	mov    rdx,QWORD PTR [rdi*8+0x45e700]
  4017d7:	00 
  4017d8:	31 c0                	xor    eax,eax
  4017da:	48 f7 c2 fe ff ff ff 	test   rdx,0xfffffffffffffffe
  4017e1:	74 1f                	je     401802 <slm_thd_lookup+0x42>
  4017e3:	83 e2 01             	and    edx,0x1
  4017e6:	75 1a                	jne    401802 <slm_thd_lookup+0x42>
  4017e8:	48 8d 04 bf          	lea    rax,[rdi+rdi*4]
  4017ec:	48 8d 04 47          	lea    rax,[rdi+rax*2]
  4017f0:	48 c1 e0 04          	shl    rax,0x4
  4017f4:	48 05 c8 e7 45 00    	add    rax,0x45e7c8
  4017fa:	c3                   	ret    
  4017fb:	0f 1f 44 00 00       	nop    DWORD PTR [rax+rax*1+0x0]
  401800:	31 c0                	xor    eax,eax
SLM_MODULES_COMPOSE_FNS(quantum, fprr, static_cm);
  401802:	c3                   	ret    
  401803:	66 66 2e 0f 1f 84 00 	data16 cs nop WORD PTR [rax+rax*1+0x0]
  40180a:	00 00 00 00 
  40180e:	66 90                	xchg   ax,ax

0000000000401810 <ss_thd_intern_is_allocated>:
SS_STATIC_SLAB(thd, struct slm_thd_container, MAX_NUM_THREADS);
  401810:	f3 0f 1e fa          	endbr64 
  401814:	48 8d 87 c8 00 00 00 	lea    rax,[rdi+0xc8]
  40181b:	48 39 c6             	cmp    rsi,rax
  40181e:	72 32                	jb     401852 <ss_thd_intern_is_allocated+0x42>
  401820:	48 8d 97 48 11 00 00 	lea    rdx,[rdi+0x1148]
  401827:	48 39 d6             	cmp    rsi,rdx
  40182a:	77 26                	ja     401852 <ss_thd_intern_is_allocated+0x42>
  40182c:	48 29 c6             	sub    rsi,rax
  40182f:	48 c1 fe 04          	sar    rsi,0x4
  401833:	69 c6 a3 8b 2e ba    	imul   eax,esi,0xba2e8ba3
  401839:	48 8b 04 c7          	mov    rax,QWORD PTR [rdi+rax*8]
  40183d:	48 89 c2             	mov    rdx,rax
  401840:	83 e2 01             	and    edx,0x1
  401843:	48 a9 fe ff ff ff    	test   rax,0xfffffffffffffffe
  401849:	b8 01 00 00 00       	mov    eax,0x1
  40184e:	0f 45 c2             	cmovne eax,edx
  401851:	c3                   	ret    
  401852:	55                   	push   rbp
  401853:	be 23 00 00 00       	mov    esi,0x23
  401858:	bf 08 cb 41 00       	mov    edi,0x41cb08
  40185d:	48 89 e5             	mov    rbp,rsp
  401860:	e8 6b 88 00 00       	call   40a0d0 <cos_print_str>
  401865:	c7 04 25 00 00 00 00 	mov    DWORD PTR ds:0x0,0x0
  40186c:	00 00 00 00 
  401870:	0f 0b                	ud2    
  401872:	66 66 2e 0f 1f 84 00 	data16 cs nop WORD PTR [rax+rax*1+0x0]
  401879:	00 00 00 00 
  40187d:	0f 1f 00             	nop    DWORD PTR [rax]

0000000000401880 <ss_thd_is_allocated>:
  401880:	f3 0f 1e fa          	endbr64 
  401884:	48 81 ff 48 f8 45 00 	cmp    rdi,0x45f848
  40188b:	77 37                	ja     4018c4 <ss_thd_is_allocated+0x44>
  40188d:	48 81 ff c8 e7 45 00 	cmp    rdi,0x45e7c8
  401894:	72 2e                	jb     4018c4 <ss_thd_is_allocated+0x44>
  401896:	48 81 ef c8 e7 45 00 	sub    rdi,0x45e7c8
  40189d:	48 c1 ff 04          	sar    rdi,0x4
  4018a1:	69 c7 a3 8b 2e ba    	imul   eax,edi,0xba2e8ba3
  4018a7:	48 8b 04 c5 00 e7 45 	mov    rax,QWORD PTR [rax*8+0x45e700]
  4018ae:	00 
  4018af:	48 89 c2             	mov    rdx,rax
  4018b2:	83 e2 01             	and    edx,0x1
  4018b5:	48 a9 fe ff ff ff    	test   rax,0xfffffffffffffffe
  4018bb:	b8 01 00 00 00       	mov    eax,0x1
  4018c0:	0f 45 c2             	cmovne eax,edx
  4018c3:	c3                   	ret    
  4018c4:	55                   	push   rbp
  4018c5:	be 23 00 00 00       	mov    esi,0x23
  4018ca:	bf 08 cb 41 00       	mov    edi,0x41cb08
  4018cf:	48 89 e5             	mov    rbp,rsp
  4018d2:	e8 f9 87 00 00       	call   40a0d0 <cos_print_str>
  4018d7:	c7 04 25 00 00 00 00 	mov    DWORD PTR ds:0x0,0x0
  4018de:	00 00 00 00 
  4018e2:	0f 0b                	ud2    
  4018e4:	66 66 2e 0f 1f 84 00 	data16 cs nop WORD PTR [rax+rax*1+0x0]
  4018eb:	00 00 00 00 
  4018ef:	90                   	nop

00000000004018f0 <slm_thd_static_cm_lookup>:
  4018f0:	f3 0f 1e fa          	endbr64 
  4018f4:	85 ff                	test   edi,edi
  4018f6:	74 38                	je     401930 <slm_thd_static_cm_lookup+0x40>
  4018f8:	83 ef 01             	sub    edi,0x1
  4018fb:	83 ff 18             	cmp    edi,0x18
  4018fe:	77 30                	ja     401930 <slm_thd_static_cm_lookup+0x40>
  401900:	48 8b 14 fd 00 e7 45 	mov    rdx,QWORD PTR [rdi*8+0x45e700]
  401907:	00 
  401908:	31 c0                	xor    eax,eax
  40190a:	48 f7 c2 fe ff ff ff 	test   rdx,0xfffffffffffffffe
  401911:	74 1f                	je     401932 <slm_thd_static_cm_lookup+0x42>
  401913:	83 e2 01             	and    edx,0x1
  401916:	75 1a                	jne    401932 <slm_thd_static_cm_lookup+0x42>
  401918:	48 8d 04 bf          	lea    rax,[rdi+rdi*4]
  40191c:	48 8d 04 47          	lea    rax,[rdi+rax*2]
  401920:	48 c1 e0 04          	shl    rax,0x4
  401924:	48 05 c8 e7 45 00    	add    rax,0x45e7c8
  40192a:	c3                   	ret    
  40192b:	0f 1f 44 00 00       	nop    DWORD PTR [rax+rax*1+0x0]
  401930:	31 c0                	xor    eax,eax
  401932:	c3                   	ret    
  401933:	66 66 2e 0f 1f 84 00 	data16 cs nop WORD PTR [rax+rax*1+0x0]
  40193a:	00 00 00 00 
  40193e:	66 90                	xchg   ax,ax

0000000000401940 <slm_thd_current_extern>:
{
  401940:	f3 0f 1e fa          	endbr64 
	__asm__("mov %%rsp, %0;" : "=r"(curr_stk_pointer));
  401944:	48 89 e0             	mov    rax,rsp
	return *(long *)((curr_stk_pointer & ~(COS_STACK_SZ - 1)) + COS_STACK_SZ - offset * sizeof(unsigned long));
  401947:	48 25 00 e0 ff ff    	and    rax,0xffffffffffffe000
  40194d:	0f b7 80 f0 1f 00 00 	movzx  eax,WORD PTR [rax+0x1ff0]
SS_STATIC_SLAB(thd, struct slm_thd_container, MAX_NUM_THREADS);
  401954:	48 85 c0             	test   rax,rax
  401957:	74 3f                	je     401998 <slm_thd_current_extern+0x58>
  401959:	83 e8 01             	sub    eax,0x1
  40195c:	83 f8 18             	cmp    eax,0x18
  40195f:	77 37                	ja     401998 <slm_thd_current_extern+0x58>
  401961:	48 8b 14 c5 00 e7 45 	mov    rdx,QWORD PTR [rax*8+0x45e700]
  401968:	00 
  401969:	45 31 c0             	xor    r8d,r8d
  40196c:	48 f7 c2 fe ff ff ff 	test   rdx,0xfffffffffffffffe
  401973:	74 18                	je     40198d <slm_thd_current_extern+0x4d>
  401975:	83 e2 01             	and    edx,0x1
  401978:	75 13                	jne    40198d <slm_thd_current_extern+0x4d>
  40197a:	48 8d 14 80          	lea    rdx,[rax+rax*4]
  40197e:	4c 8d 04 50          	lea    r8,[rax+rdx*2]
  401982:	49 c1 e0 04          	shl    r8,0x4
  401986:	49 81 c0 c8 e7 45 00 	add    r8,0x45e7c8
}
  40198d:	4c 89 c0             	mov    rax,r8
  401990:	c3                   	ret    
  401991:	0f 1f 80 00 00 00 00 	nop    DWORD PTR [rax+0x0]
SS_STATIC_SLAB(thd, struct slm_thd_container, MAX_NUM_THREADS);
  401998:	45 31 c0             	xor    r8d,r8d
}
  40199b:	4c 89 c0             	mov    rax,r8
  40199e:	c3                   	ret    
  40199f:	90                   	nop

00000000004019a0 <slm_thd_from_container>:
slm_thd_from_container(struct slm_thd_container *c) {
  4019a0:	f3 0f 1e fa          	endbr64 
  4019a4:	48 89 f8             	mov    rax,rdi
}
  4019a7:	c3                   	ret    
  4019a8:	0f 1f 84 00 00 00 00 	nop    DWORD PTR [rax+rax*1+0x0]
  4019af:	00 

00000000004019b0 <slm_thd_mem_alloc>:
{
  4019b0:	f3 0f 1e fa          	endbr64 
  4019b4:	55                   	push   rbp
  4019b5:	66 48 0f 6e c7       	movq   xmm0,rdi
  4019ba:	66 48 0f 6e ce       	movq   xmm1,rsi
  4019bf:	66 0f 6c c1          	punpcklqdq xmm0,xmm1
  4019c3:	48 89 e5             	mov    rbp,rsp
  4019c6:	53                   	push   rbx
  4019c7:	48 83 ec 08          	sub    rsp,0x8
SS_STATIC_SLAB(thd, struct slm_thd_container, MAX_NUM_THREADS);
  4019cb:	85 f6                	test   esi,esi
  4019cd:	0f 84 85 00 00 00    	je     401a58 <slm_thd_mem_alloc+0xa8>
  4019d3:	49 89 d2             	mov    r10,rdx
  4019d6:	8d 56 ff             	lea    edx,[rsi-0x1]
  4019d9:	83 fa 18             	cmp    edx,0x18
  4019dc:	77 7a                	ja     401a58 <slm_thd_mem_alloc+0xa8>
	if (*state != SS_STATE_FREE ||
  4019de:	48 83 3c d5 00 e7 45 	cmp    QWORD PTR [rdx*8+0x45e700],0x0
  4019e5:	00 00 
  4019e7:	75 6f                	jne    401a58 <slm_thd_mem_alloc+0xa8>
  4019e9:	31 db                	xor    ebx,ebx
  4019eb:	49 89 c9             	mov    r9,rcx
  4019ee:	b9 01 00 00 00       	mov    ecx,0x1
  4019f3:	48 89 d8             	mov    rax,rbx
  4019f6:	f0 48 0f b1 0c d5 00 	lock cmpxchg QWORD PTR [rdx*8+0x45e700],rcx
  4019fd:	e7 45 00 
  401a00:	0f 94 c0             	sete   al
  401a03:	84 c0                	test   al,al
  401a05:	74 51                	je     401a58 <slm_thd_mem_alloc+0xa8>
  401a07:	48 8d 04 92          	lea    rax,[rdx+rdx*4]
  401a0b:	49 89 f8             	mov    r8,rdi
  401a0e:	b9 16 00 00 00       	mov    ecx,0x16
  401a13:	48 8d 14 42          	lea    rdx,[rdx+rax*2]
  401a17:	48 89 d8             	mov    rax,rbx
  401a1a:	48 c1 e2 04          	shl    rdx,0x4
  401a1e:	4c 8d 9a c8 e7 45 00 	lea    r11,[rdx+0x45e7c8]
  401a25:	4c 89 df             	mov    rdi,r11
  401a28:	f3 48 ab             	rep stos QWORD PTR es:[rdi],rax
	assert(_cap != 0 && _tid != 0);
  401a2b:	4d 85 c0             	test   r8,r8
  401a2e:	74 44                	je     401a74 <slm_thd_mem_alloc+0xc4>
	t->resources = (struct slm_resources_thd) {
  401a30:	48 8b 05 09 56 02 00 	mov    rax,QWORD PTR [rip+0x25609]        # 427040 <__cosrt_comp_info+0x40>
  401a37:	0f 29 82 60 e8 45 00 	movaps XMMWORD PTR [rdx+0x45e860],xmm0
}
  401a3e:	48 8b 5d f8          	mov    rbx,QWORD PTR [rbp-0x8]
	t->resources = (struct slm_resources_thd) {
  401a42:	48 89 82 70 e8 45 00 	mov    QWORD PTR [rdx+0x45e870],rax
}
  401a49:	4c 89 d8             	mov    rax,r11
	*thd = _cap;
  401a4c:	4d 89 02             	mov    QWORD PTR [r10],r8
	*tid = _tid;
  401a4f:	49 89 31             	mov    QWORD PTR [r9],rsi
}
  401a52:	c9                   	leave  
  401a53:	c3                   	ret    
  401a54:	0f 1f 40 00          	nop    DWORD PTR [rax+0x0]
  401a58:	be 23 00 00 00       	mov    esi,0x23
  401a5d:	bf 30 cb 41 00       	mov    edi,0x41cb30
  401a62:	e8 69 86 00 00       	call   40a0d0 <cos_print_str>
	if (!t) assert(0);
  401a67:	c7 04 25 00 00 00 00 	mov    DWORD PTR ds:0x0,0x0
  401a6e:	00 00 00 00 
  401a72:	0f 0b                	ud2    
  401a74:	be 23 00 00 00       	mov    esi,0x23
  401a79:	bf 58 cb 41 00       	mov    edi,0x41cb58
  401a7e:	e8 4d 86 00 00       	call   40a0d0 <cos_print_str>
	assert(_cap != 0 && _tid != 0);
  401a83:	c7 04 25 00 00 00 00 	mov    DWORD PTR ds:0x0,0x0
  401a8a:	00 00 00 00 
  401a8e:	0f 0b                	ud2    

0000000000401a90 <slm_thd_mem_activate>:
void slm_thd_mem_activate(struct slm_thd_container *t) { ss_thd_activate(t); }
  401a90:	f3 0f 1e fa          	endbr64 
  401a94:	55                   	push   rbp
  401a95:	48 89 e5             	mov    rbp,rsp
SS_STATIC_SLAB(thd, struct slm_thd_container, MAX_NUM_THREADS);
  401a98:	48 81 ff c8 e7 45 00 	cmp    rdi,0x45e7c8
  401a9f:	72 50                	jb     401af1 <slm_thd_mem_activate+0x61>
  401aa1:	48 81 ff 48 f8 45 00 	cmp    rdi,0x45f848
  401aa8:	77 47                	ja     401af1 <slm_thd_mem_activate+0x61>
  401aaa:	48 81 ef c8 e7 45 00 	sub    rdi,0x45e7c8
  401ab1:	48 c1 ff 04          	sar    rdi,0x4
 */
static inline void
ss_state_activate_with(ss_state_t *state, word_t val)
{
	assert(val != 0);
	*state = val | (*state & 1);
  401ab5:	69 c7 a3 8b 2e ba    	imul   eax,edi,0xba2e8ba3
  401abb:	48 8b 14 c5 00 e7 45 	mov    rdx,QWORD PTR [rax*8+0x45e700]
  401ac2:	00 
  401ac3:	48 83 ca fe          	or     rdx,0xfffffffffffffffe
  401ac7:	48 89 14 c5 00 e7 45 	mov    QWORD PTR [rax*8+0x45e700],rdx
  401ace:	00 
	assert((*state & 1) == SS_STATE_CONS);
  401acf:	48 83 fa ff          	cmp    rdx,0xffffffffffffffff
  401ad3:	75 38                	jne    401b0d <slm_thd_mem_activate+0x7d>
	*state &= ~SS_STATE_CONS;
  401ad5:	48 c7 04 c5 00 e7 45 	mov    QWORD PTR [rax*8+0x45e700],0xfffffffffffffffe
  401adc:	00 fe ff ff ff 
{ __asm__ __volatile__("mfence" ::: "memory"); }
  401ae1:	0f ae f0             	mfence 
	assert(*state != 0);
  401ae4:	48 83 3c c5 00 e7 45 	cmp    QWORD PTR [rax*8+0x45e700],0x0
  401aeb:	00 00 
  401aed:	74 3a                	je     401b29 <slm_thd_mem_activate+0x99>
void slm_thd_mem_activate(struct slm_thd_container *t) { ss_thd_activate(t); }
  401aef:	5d                   	pop    rbp
  401af0:	c3                   	ret    
  401af1:	be 23 00 00 00       	mov    esi,0x23
  401af6:	bf 08 cb 41 00       	mov    edi,0x41cb08
  401afb:	e8 d0 85 00 00       	call   40a0d0 <cos_print_str>
SS_STATIC_SLAB(thd, struct slm_thd_container, MAX_NUM_THREADS);
  401b00:	c7 04 25 00 00 00 00 	mov    DWORD PTR ds:0x0,0x0
  401b07:	00 00 00 00 
  401b0b:	0f 0b                	ud2    
  401b0d:	be 61 00 00 00       	mov    esi,0x61
  401b12:	bf 80 cb 41 00       	mov    edi,0x41cb80
  401b17:	e8 b4 85 00 00       	call   40a0d0 <cos_print_str>
	assert((*state & 1) == SS_STATE_CONS);
  401b1c:	c7 04 25 00 00 00 00 	mov    DWORD PTR ds:0x0,0x0
  401b23:	00 00 00 00 
  401b27:	0f 0b                	ud2    
  401b29:	be 61 00 00 00       	mov    esi,0x61
  401b2e:	bf e8 cb 41 00       	mov    edi,0x41cbe8
  401b33:	e8 98 85 00 00       	call   40a0d0 <cos_print_str>
	assert(*state != 0);
  401b38:	c7 04 25 00 00 00 00 	mov    DWORD PTR ds:0x0,0x0
  401b3f:	00 00 00 00 
  401b43:	0f 0b                	ud2    
  401b45:	66 66 2e 0f 1f 84 00 	data16 cs nop WORD PTR [rax+rax*1+0x0]
  401b4c:	00 00 00 00 

0000000000401b50 <slm_thd_mem_free>:
void slm_thd_mem_free(struct slm_thd_container *t) { return; }
  401b50:	f3 0f 1e fa          	endbr64 
  401b54:	c3                   	ret    
  401b55:	66 66 2e 0f 1f 84 00 	data16 cs nop WORD PTR [rax+rax*1+0x0]
  401b5c:	00 00 00 00 

0000000000401b60 <sched_thd_create_closure>:
{
  401b60:	f3 0f 1e fa          	endbr64 
  401b64:	55                   	push   rbp
  401b65:	89 fe                	mov    esi,edi
	struct slm_thd *t = thd_alloc_in(cos_inv_token(), idx, &p, 0);
  401b67:	31 c9                	xor    ecx,ecx
	__asm__("mov %%rsp, %0;" : "=r"(curr_stk_pointer));
  401b69:	48 89 e0             	mov    rax,rsp
	return *(long *)((curr_stk_pointer & ~(COS_STACK_SZ - 1)) + COS_STACK_SZ - offset * sizeof(unsigned long));
  401b6c:	48 25 00 e0 ff ff    	and    rax,0xffffffffffffe000
{
  401b72:	48 89 e5             	mov    rbp,rsp
  401b75:	48 83 ec 10          	sub    rsp,0x10
	struct slm_thd *t = thd_alloc_in(cos_inv_token(), idx, &p, 0);
  401b79:	48 8b b8 e8 1f 00 00 	mov    rdi,QWORD PTR [rax+0x1fe8]
  401b80:	48 8d 55 fc          	lea    rdx,[rbp-0x4]
	sched_param_t p = 0;
  401b84:	c7 45 fc 00 00 00 00 	mov    DWORD PTR [rbp-0x4],0x0
	struct slm_thd *t = thd_alloc_in(cos_inv_token(), idx, &p, 0);
  401b8b:	e8 d0 31 00 00       	call   404d60 <thd_alloc_in>
	if (!t) return 0;
  401b90:	48 85 c0             	test   rax,rax
  401b93:	74 0b                	je     401ba0 <sched_thd_create_closure+0x40>
	return t->tid;
  401b95:	48 8b 40 18          	mov    rax,QWORD PTR [rax+0x18]
}
  401b99:	c9                   	leave  
  401b9a:	c3                   	ret    
  401b9b:	0f 1f 44 00 00       	nop    DWORD PTR [rax+rax*1+0x0]
  401ba0:	c9                   	leave  
	if (!t) return 0;
  401ba1:	31 c0                	xor    eax,eax
}
  401ba3:	c3                   	ret    
  401ba4:	66 66 2e 0f 1f 84 00 	data16 cs nop WORD PTR [rax+rax*1+0x0]
  401bab:	00 00 00 00 
  401baf:	90                   	nop

0000000000401bb0 <sched_thd_param_set>:
{
  401bb0:	f3 0f 1e fa          	endbr64 

static inline void
sched_param_get(sched_param_t sp, sched_param_type_t *type, unsigned int *value)
{
	if (type)  *type  = (sched_param_type_t)(sp &  SCHED_PARAM_TYPE_MASK);
	if (value) *value = (unsigned int)      (sp >> SCHED_PARAM_TYPE_BITS);
  401bb4:	89 f2                	mov    edx,esi
	if (type)  *type  = (sched_param_type_t)(sp &  SCHED_PARAM_TYPE_MASK);
  401bb6:	83 e6 3f             	and    esi,0x3f
	if (value) *value = (unsigned int)      (sp >> SCHED_PARAM_TYPE_BITS);
  401bb9:	c1 ea 06             	shr    edx,0x6
SS_STATIC_SLAB(thd, struct slm_thd_container, MAX_NUM_THREADS);
  401bbc:	85 ff                	test   edi,edi
  401bbe:	74 38                	je     401bf8 <sched_thd_param_set+0x48>
  401bc0:	83 ef 01             	sub    edi,0x1
  401bc3:	83 ff 18             	cmp    edi,0x18
  401bc6:	77 30                	ja     401bf8 <sched_thd_param_set+0x48>
  401bc8:	48 8b 04 fd 00 e7 45 	mov    rax,QWORD PTR [rdi*8+0x45e700]
  401bcf:	00 
	return ((state & ~1) != 0) && ((state & 1) == SS_STATE_ALLOC);
  401bd0:	48 a9 fe ff ff ff    	test   rax,0xfffffffffffffffe
  401bd6:	74 20                	je     401bf8 <sched_thd_param_set+0x48>
  401bd8:	a8 01                	test   al,0x1
  401bda:	75 1c                	jne    401bf8 <sched_thd_param_set+0x48>
	return &ss_thd_get(id)->thd;
  401bdc:	48 8d 04 bf          	lea    rax,[rdi+rdi*4]
  401be0:	48 8d 3c 47          	lea    rdi,[rdi+rax*2]
  401be4:	48 c1 e7 04          	shl    rdi,0x4
  401be8:	48 81 c7 c8 e7 45 00 	add    rdi,0x45e7c8
SLM_MODULES_COMPOSE_FNS(quantum, fprr, static_cm);
  401bef:	e9 5c 0a 01 00       	jmp    412650 <slm_sched_fprr_thd_update>
  401bf4:	0f 1f 40 00          	nop    DWORD PTR [rax+0x0]
}
  401bf8:	b8 ff ff ff ff       	mov    eax,0xffffffff
  401bfd:	c3                   	ret    
  401bfe:	66 90                	xchg   ax,ax

0000000000401c00 <sched_thd_delete>:
{
  401c00:	f3 0f 1e fa          	endbr64 
}
  401c04:	31 c0                	xor    eax,eax
  401c06:	c3                   	ret    
  401c07:	66 0f 1f 84 00 00 00 	nop    WORD PTR [rax+rax*1+0x0]
  401c0e:	00 00 

0000000000401c10 <sched_thd_exit>:
{
  401c10:	f3 0f 1e fa          	endbr64 
  401c14:	55                   	push   rbp
	__asm__("mov %%rsp, %0;" : "=r"(curr_stk_pointer));
  401c15:	48 89 e0             	mov    rax,rsp
	return *(long *)((curr_stk_pointer & ~(COS_STACK_SZ - 1)) + COS_STACK_SZ - offset * sizeof(unsigned long));
  401c18:	48 25 00 e0 ff ff    	and    rax,0xffffffffffffe000
  401c1e:	48 89 e5             	mov    rbp,rsp
  401c21:	41 57                	push   r15
  401c23:	41 56                	push   r14
  401c25:	41 55                	push   r13
  401c27:	41 54                	push   r12
  401c29:	53                   	push   rbx
  401c2a:	48 83 ec 08          	sub    rsp,0x8
  401c2e:	0f b7 80 f0 1f 00 00 	movzx  eax,WORD PTR [rax+0x1ff0]
SS_STATIC_SLAB(thd, struct slm_thd_container, MAX_NUM_THREADS);
  401c35:	48 85 c0             	test   rax,rax
  401c38:	0f 84 22 02 00 00    	je     401e60 <sched_thd_exit+0x250>
  401c3e:	83 e8 01             	sub    eax,0x1
  401c41:	83 f8 18             	cmp    eax,0x18
  401c44:	0f 87 16 02 00 00    	ja     401e60 <sched_thd_exit+0x250>
  401c4a:	48 8b 14 c5 00 e7 45 	mov    rdx,QWORD PTR [rax*8+0x45e700]
  401c51:	00 
  401c52:	48 f7 c2 fe ff ff ff 	test   rdx,0xfffffffffffffffe
  401c59:	0f 84 01 02 00 00    	je     401e60 <sched_thd_exit+0x250>
  401c5f:	80 e2 01             	and    dl,0x1
  401c62:	0f 85 f8 01 00 00    	jne    401e60 <sched_thd_exit+0x250>
  401c68:	48 8d 14 80          	lea    rdx,[rax+rax*4]
  401c6c:	4c 8d 34 50          	lea    r14,[rax+rdx*2]
  401c70:	49 c1 e6 04          	shl    r14,0x4
  401c74:	49 81 c6 c8 e7 45 00 	add    r14,0x45e7c8
		tok    = cos_sched_sync();
  401c7b:	e8 80 f6 00 00       	call   411300 <cos_sched_sync>
  401c80:	41 89 c1             	mov    r9d,eax
	unsigned long oc = ps_load(&cs->owner_contention);
  401c83:	48 8b 05 36 02 1a 00 	mov    rax,QWORD PTR [rip+0x1a0236]        # 5a1ec0 <__slm_global>
		if (unlikely(owner)) {
  401c8a:	48 89 c1             	mov    rcx,rax
  401c8d:	48 83 e1 fe          	and    rcx,0xfffffffffffffffe
  401c91:	0f 85 03 02 00 00    	jne    401e9a <sched_thd_exit+0x28a>
        __asm__ __volatile__("lock " PS_CAS_STR
  401c97:	f0 4c 0f b1 35 20 02 	lock cmpxchg QWORD PTR [rip+0x1a0220],r14        # 5a1ec0 <__slm_global>
  401c9e:	1a 00 
  401ca0:	0f 94 c0             	sete   al
		if (likely(!__slm_cs_cas(cs, cached, current, 0))) return 0;
  401ca3:	84 c0                	test   al,al
  401ca5:	74 d4                	je     401c7b <sched_thd_exit+0x6b>
	slm_thd_deinit(current);
  401ca7:	4c 89 f7             	mov    rdi,r14
	for (i = 0; slm_cs_exit_reschedule(current, SLM_CS_NONE) && i < 16; i++) ;
  401caa:	41 bd 11 00 00 00    	mov    r13d,0x11
	if (unlikely(!t)) t = &g->idle_thd;
  401cb0:	41 bf 40 1f 5a 00    	mov    r15d,0x5a1f40
	slm_thd_deinit(current);
  401cb6:	e8 25 1b 01 00       	call   4137e0 <slm_thd_deinit>
	struct cos_compinfo    *ci  = &cos_defcompinfo_curr_get()->ci;
  401cbb:	e8 a0 9b 00 00       	call   40b860 <cos_defcompinfo_curr_get>
	tok  = cos_sched_sync();
  401cc0:	e8 3b f6 00 00       	call   411300 <cos_sched_sync>
  401cc5:	41 89 c4             	mov    r12d,eax
SLM_MODULES_COMPOSE_FNS(quantum, fprr, static_cm);
  401cc8:	e8 c3 07 01 00       	call   412490 <slm_sched_fprr_schedule>
	if (unlikely(!t)) t = &g->idle_thd;
  401ccd:	48 85 c0             	test   rax,rax
  401cd0:	48 89 c3             	mov    rbx,rax
  401cd3:	49 0f 44 df          	cmove  rbx,r15
{ return s == SLM_THD_RUNNABLE || s == SLM_THD_WOKEN; }
  401cd7:	8b 43 04             	mov    eax,DWORD PTR [rbx+0x4]
  401cda:	83 e8 02             	sub    eax,0x2
	assert(slm_state_is_runnable(t->state));
  401cdd:	83 f8 01             	cmp    eax,0x1
  401ce0:	76 1e                	jbe    401d00 <sched_thd_exit+0xf0>
  401ce2:	e9 95 00 00 00       	jmp    401d7c <sched_thd_exit+0x16c>
  401ce7:	66 0f 1f 84 00 00 00 	nop    WORD PTR [rax+rax*1+0x0]
  401cee:	00 00 
  401cf0:	f0 48 0f b1 15 c7 01 	lock cmpxchg QWORD PTR [rip+0x1a01c7],rdx        # 5a1ec0 <__slm_global>
  401cf7:	1a 00 
  401cf9:	0f 94 c0             	sete   al
	while (ret != 0) {
  401cfc:	84 c0                	test   al,al
  401cfe:	75 2e                	jne    401d2e <sched_thd_exit+0x11e>
		tok    = cos_sched_sync();
  401d00:	e8 fb f5 00 00       	call   411300 <cos_sched_sync>
  401d05:	89 c1                	mov    ecx,eax
	unsigned long oc = ps_load(&cs->owner_contention);
  401d07:	48 8b 05 b2 01 1a 00 	mov    rax,QWORD PTR [rip+0x1a01b2]        # 5a1ec0 <__slm_global>
		if (unlikely(contention)) {
  401d0e:	48 89 c2             	mov    rdx,rax
  401d11:	83 e2 01             	and    edx,0x1
  401d14:	74 da                	je     401cf0 <sched_thd_exit+0xe0>
	*thd        = (struct slm_thd *)(oc & (~0UL << 1));
  401d16:	48 89 c6             	mov    rsi,rax
			if (!slm_cs_exit_contention(cs, current, cached, tok)) return;
  401d19:	48 89 c2             	mov    rdx,rax
  401d1c:	bf c0 1e 5a 00       	mov    edi,0x5a1ec0
  401d21:	48 83 e6 fe          	and    rsi,0xfffffffffffffffe
  401d25:	e8 36 1b 01 00       	call   413860 <slm_cs_exit_contention>
  401d2a:	85 c0                	test   eax,eax
  401d2c:	75 d2                	jne    401d00 <sched_thd_exit+0xf0>
	struct cos_defcompinfo *dci = cos_defcompinfo_curr_get();
  401d2e:	e8 2d 9b 00 00       	call   40b860 <cos_defcompinfo_curr_get>
	if (unlikely(t->properties & (SLM_THD_PROPERTY_SEND | SLM_THD_PROPERTY_OWN_TCAP | SLM_THD_PROPERTY_SPECIAL))) {
  401d33:	8b 03                	mov    eax,DWORD PTR [rbx]
	timeout = g->timeout_next;
  401d35:	4c 8b 05 8c 02 1a 00 	mov    r8,QWORD PTR [rip+0x1a028c]        # 5a1fc8 <__slm_global+0x108>
	prio = inherit_prio ? curr->priority : t->priority;
  401d3c:	48 8b 73 30          	mov    rsi,QWORD PTR [rbx+0x30]
	if (unlikely(t->properties & (SLM_THD_PROPERTY_SEND | SLM_THD_PROPERTY_OWN_TCAP | SLM_THD_PROPERTY_SPECIAL))) {
  401d40:	a8 0b                	test   al,0xb
  401d42:	75 54                	jne    401d98 <sched_thd_exit+0x188>
	ret = cos_defswitch(t->thd, prio, timeout, tok);
  401d44:	48 8b 7b 10          	mov    rdi,QWORD PTR [rbx+0x10]
  401d48:	44 89 e1             	mov    ecx,r12d
  401d4b:	4c 89 c2             	mov    rdx,r8
  401d4e:	e8 0d aa 00 00       	call   40c760 <cos_defswitch>
	if (unlikely(ret == -EPERM && !slm_thd_normal(t))) {
  401d53:	83 f8 ff             	cmp    eax,0xffffffff
  401d56:	0f 84 ce 00 00 00    	je     401e2a <sched_thd_exit+0x21a>
	if (unlikely(ret != 0)) {
  401d5c:	85 c0                	test   eax,eax
  401d5e:	75 7d                	jne    401ddd <sched_thd_exit+0x1cd>
  401d60:	be 11 00 00 00       	mov    esi,0x11
  401d65:	bf 4a cc 41 00       	mov    edi,0x41cc4a
  401d6a:	e8 61 83 00 00       	call   40a0d0 <cos_print_str>
	BUG();
  401d6f:	c7 04 25 00 00 00 00 	mov    DWORD PTR ds:0x0,0x0
  401d76:	00 00 00 00 
  401d7a:	0f 0b                	ud2    
  401d7c:	be 61 00 00 00       	mov    esi,0x61
  401d81:	bf 48 c8 41 00       	mov    edi,0x41c848
  401d86:	e8 45 83 00 00       	call   40a0d0 <cos_print_str>
	assert(slm_state_is_runnable(t->state));
  401d8b:	c7 04 25 00 00 00 00 	mov    DWORD PTR ds:0x0,0x0
  401d92:	00 00 00 00 
  401d96:	0f 0b                	ud2    
	timeout = g->timeout_next;
  401d98:	4c 89 c1             	mov    rcx,r8
		if (t == &g->sched_thd) {
  401d9b:	48 81 fb c8 1e 5a 00 	cmp    rbx,0x5a1ec8
  401da2:	0f 84 e7 00 00 00    	je     401e8f <sched_thd_exit+0x27f>
		if (t->properties & SLM_THD_PROPERTY_SEND) {
  401da8:	a8 02                	test   al,0x2
  401daa:	0f 85 26 01 00 00    	jne    401ed6 <sched_thd_exit+0x2c6>
		} else if (t->properties & SLM_THD_PROPERTY_OWN_TCAP) {
  401db0:	49 89 c8             	mov    r8,rcx
  401db3:	a8 01                	test   al,0x1
  401db5:	74 8d                	je     401d44 <sched_thd_exit+0x134>
			return cos_switch(t->thd, t->tc, prio, timeout, g->sched_thd.rcv, tok);
  401db7:	4c 8b 53 08          	mov    r10,QWORD PTR [rbx+0x8]
  401dbb:	48 8b 7b 10          	mov    rdi,QWORD PTR [rbx+0x10]
  401dbf:	48 89 f2             	mov    rdx,rsi
  401dc2:	45 89 e1             	mov    r9d,r12d
  401dc5:	4c 8b 05 1c 01 1a 00 	mov    r8,QWORD PTR [rip+0x1a011c]        # 5a1ee8 <__slm_global+0x28>
  401dcc:	4c 89 d6             	mov    rsi,r10
  401dcf:	e8 4c f5 00 00       	call   411320 <cos_switch>
	if (unlikely(ret != 0)) {
  401dd4:	85 c0                	test   eax,eax
  401dd6:	74 88                	je     401d60 <sched_thd_exit+0x150>
		assert(ret != -EPERM);
  401dd8:	83 f8 ff             	cmp    eax,0xffffffff
  401ddb:	74 67                	je     401e44 <sched_thd_exit+0x234>
		assert(ret != -EINVAL);
  401ddd:	83 f8 ea             	cmp    eax,0xffffffea
  401de0:	0f 84 2e 01 00 00    	je     401f14 <sched_thd_exit+0x304>
		if (ret == -EBUSY) return ret;
  401de6:	83 f8 f0             	cmp    eax,0xfffffff0
  401de9:	0f 84 91 00 00 00    	je     401e80 <sched_thd_exit+0x270>
		assert(ret == -EAGAIN);
  401def:	83 f8 f5             	cmp    eax,0xfffffff5
  401df2:	0f 85 5d 01 00 00    	jne    401f55 <sched_thd_exit+0x345>
		tok    = cos_sched_sync();
  401df8:	e8 03 f5 00 00       	call   411300 <cos_sched_sync>
  401dfd:	41 89 c1             	mov    r9d,eax
	unsigned long oc = ps_load(&cs->owner_contention);
  401e00:	48 8b 05 b9 00 1a 00 	mov    rax,QWORD PTR [rip+0x1a00b9]        # 5a1ec0 <__slm_global>
		if (unlikely(owner)) {
  401e07:	48 89 c1             	mov    rcx,rax
  401e0a:	48 83 e1 fe          	and    rcx,0xfffffffffffffffe
  401e0e:	0f 85 1c 01 00 00    	jne    401f30 <sched_thd_exit+0x320>
  401e14:	f0 4c 0f b1 35 a3 00 	lock cmpxchg QWORD PTR [rip+0x1a00a3],r14        # 5a1ec0 <__slm_global>
  401e1b:	1a 00 
  401e1d:	0f 94 c0             	sete   al
		if (likely(!__slm_cs_cas(cs, cached, current, 0))) return 0;
  401e20:	84 c0                	test   al,al
  401e22:	0f 85 98 fe ff ff    	jne    401cc0 <sched_thd_exit+0xb0>
  401e28:	eb ce                	jmp    401df8 <sched_thd_exit+0x1e8>
	return t != &g->idle_thd && t != &g->sched_thd;
  401e2a:	48 81 fb 40 1f 5a 00 	cmp    rbx,0x5a1f40
  401e31:	0f 84 ba 00 00 00    	je     401ef1 <sched_thd_exit+0x2e1>
  401e37:	48 81 fb c8 1e 5a 00 	cmp    rbx,0x5a1ec8
  401e3e:	0f 84 ad 00 00 00    	je     401ef1 <sched_thd_exit+0x2e1>
  401e44:	be 61 00 00 00       	mov    esi,0x61
  401e49:	bf b0 c8 41 00       	mov    edi,0x41c8b0
  401e4e:	e8 7d 82 00 00       	call   40a0d0 <cos_print_str>
		assert(ret != -EPERM);
  401e53:	c7 04 25 00 00 00 00 	mov    DWORD PTR ds:0x0,0x0
  401e5a:	00 00 00 00 
  401e5e:	0f 0b                	ud2    
  401e60:	be 59 00 00 00       	mov    esi,0x59
  401e65:	bf 60 c7 41 00       	mov    edi,0x41c760
  401e6a:	e8 61 82 00 00       	call   40a0d0 <cos_print_str>
	assert(current);
  401e6f:	c7 04 25 00 00 00 00 	mov    DWORD PTR ds:0x0,0x0
  401e76:	00 00 00 00 
  401e7a:	0f 0b                	ud2    
  401e7c:	0f 1f 40 00          	nop    DWORD PTR [rax+0x0]
	for (i = 0; slm_cs_exit_reschedule(current, SLM_CS_NONE) && i < 16; i++) ;
  401e80:	41 83 ed 01          	sub    r13d,0x1
  401e84:	0f 85 31 fe ff ff    	jne    401cbb <sched_thd_exit+0xab>
  401e8a:	e9 d1 fe ff ff       	jmp    401d60 <sched_thd_exit+0x150>
			prio    = curr->priority;
  401e8f:	49 8b 76 30          	mov    rsi,QWORD PTR [r14+0x30]
			timeout = TCAP_TIME_NIL;
  401e93:	31 c9                	xor    ecx,ecx
  401e95:	e9 0e ff ff ff       	jmp    401da8 <sched_thd_exit+0x198>
			ret = slm_cs_enter_contention(cs, cached, current, owner, contended, tok);
  401e9a:	41 89 c0             	mov    r8d,eax
  401e9d:	4c 89 f2             	mov    rdx,r14
  401ea0:	48 89 c6             	mov    rsi,rax
  401ea3:	bf c0 1e 5a 00       	mov    edi,0x5a1ec0
  401ea8:	41 83 e0 01          	and    r8d,0x1
  401eac:	e8 5f 19 01 00       	call   413810 <slm_cs_enter_contention>
			assert(ret != -EBUSY);
  401eb1:	83 f8 f0             	cmp    eax,0xfffffff0
  401eb4:	0f 85 c1 fd ff ff    	jne    401c7b <sched_thd_exit+0x6b>
  401eba:	be 59 00 00 00       	mov    esi,0x59
  401ebf:	bf c0 c7 41 00       	mov    edi,0x41c7c0
  401ec4:	e8 07 82 00 00       	call   40a0d0 <cos_print_str>
  401ec9:	c7 04 25 00 00 00 00 	mov    DWORD PTR ds:0x0,0x0
  401ed0:	00 00 00 00 
  401ed4:	0f 0b                	ud2    
			return cos_sched_asnd(t->asnd, g->timeout_next, g->sched_thd.rcv, tok);
  401ed6:	48 8b 7b 28          	mov    rdi,QWORD PTR [rbx+0x28]
  401eda:	48 8b 15 07 00 1a 00 	mov    rdx,QWORD PTR [rip+0x1a0007]        # 5a1ee8 <__slm_global+0x28>
  401ee1:	44 89 e1             	mov    ecx,r12d
  401ee4:	4c 89 c6             	mov    rsi,r8
  401ee7:	e8 a4 f4 00 00       	call   411390 <cos_sched_asnd>
  401eec:	e9 e3 fe ff ff       	jmp    401dd4 <sched_thd_exit+0x1c4>
		ret = cos_switch(g->sched_thd.thd, 0, curr->priority, TCAP_TIME_NIL, g->sched_thd.rcv, tok);
  401ef1:	49 8b 56 30          	mov    rdx,QWORD PTR [r14+0x30]
  401ef5:	4c 8b 05 ec ff 19 00 	mov    r8,QWORD PTR [rip+0x19ffec]        # 5a1ee8 <__slm_global+0x28>
  401efc:	45 89 e1             	mov    r9d,r12d
  401eff:	31 c9                	xor    ecx,ecx
  401f01:	48 8b 3d d0 ff 19 00 	mov    rdi,QWORD PTR [rip+0x19ffd0]        # 5a1ed8 <__slm_global+0x18>
  401f08:	31 f6                	xor    esi,esi
  401f0a:	e8 11 f4 00 00       	call   411320 <cos_switch>
  401f0f:	e9 c0 fe ff ff       	jmp    401dd4 <sched_thd_exit+0x1c4>
  401f14:	be 61 00 00 00       	mov    esi,0x61
  401f19:	bf 18 c9 41 00       	mov    edi,0x41c918
  401f1e:	e8 ad 81 00 00       	call   40a0d0 <cos_print_str>
		assert(ret != -EINVAL);
  401f23:	c7 04 25 00 00 00 00 	mov    DWORD PTR ds:0x0,0x0
  401f2a:	00 00 00 00 
  401f2e:	0f 0b                	ud2    
			ret = slm_cs_enter_contention(cs, cached, current, owner, contended, tok);
  401f30:	41 89 c0             	mov    r8d,eax
  401f33:	4c 89 f2             	mov    rdx,r14
  401f36:	48 89 c6             	mov    rsi,rax
  401f39:	bf c0 1e 5a 00       	mov    edi,0x5a1ec0
  401f3e:	41 83 e0 01          	and    r8d,0x1
  401f42:	e8 c9 18 01 00       	call   413810 <slm_cs_enter_contention>
			assert(ret != -EBUSY);
  401f47:	83 f8 f0             	cmp    eax,0xfffffff0
  401f4a:	0f 85 a8 fe ff ff    	jne    401df8 <sched_thd_exit+0x1e8>
  401f50:	e9 65 ff ff ff       	jmp    401eba <sched_thd_exit+0x2aa>
  401f55:	be 61 00 00 00       	mov    esi,0x61
  401f5a:	bf 80 c9 41 00       	mov    edi,0x41c980
  401f5f:	e8 6c 81 00 00       	call   40a0d0 <cos_print_str>
		assert(ret == -EAGAIN);
  401f64:	c7 04 25 00 00 00 00 	mov    DWORD PTR ds:0x0,0x0
  401f6b:	00 00 00 00 
  401f6f:	0f 0b                	ud2    
  401f71:	66 66 2e 0f 1f 84 00 	data16 cs nop WORD PTR [rax+rax*1+0x0]
  401f78:	00 00 00 00 
  401f7c:	0f 1f 40 00          	nop    DWORD PTR [rax+0x0]

0000000000401f80 <sched_thd_yield_to>:
{
  401f80:	f3 0f 1e fa          	endbr64 
  401f84:	55                   	push   rbp
	__asm__("mov %%rsp, %0;" : "=r"(curr_stk_pointer));
  401f85:	48 89 e0             	mov    rax,rsp
	return *(long *)((curr_stk_pointer & ~(COS_STACK_SZ - 1)) + COS_STACK_SZ - offset * sizeof(unsigned long));
  401f88:	48 25 00 e0 ff ff    	and    rax,0xffffffffffffe000
  401f8e:	48 89 e5             	mov    rbp,rsp
  401f91:	41 56                	push   r14
  401f93:	41 55                	push   r13
  401f95:	41 54                	push   r12
  401f97:	53                   	push   rbx
  401f98:	0f b7 80 f0 1f 00 00 	movzx  eax,WORD PTR [rax+0x1ff0]
SS_STATIC_SLAB(thd, struct slm_thd_container, MAX_NUM_THREADS);
  401f9f:	48 85 c0             	test   rax,rax
  401fa2:	0f 84 b0 01 00 00    	je     402158 <sched_thd_yield_to+0x1d8>
  401fa8:	83 e8 01             	sub    eax,0x1
  401fab:	83 f8 18             	cmp    eax,0x18
  401fae:	0f 87 a4 01 00 00    	ja     402158 <sched_thd_yield_to+0x1d8>
  401fb4:	48 8b 14 c5 00 e7 45 	mov    rdx,QWORD PTR [rax*8+0x45e700]
  401fbb:	00 
  401fbc:	45 31 e4             	xor    r12d,r12d
  401fbf:	48 f7 c2 fe ff ff ff 	test   rdx,0xfffffffffffffffe
  401fc6:	0f 85 44 01 00 00    	jne    402110 <sched_thd_yield_to+0x190>
  401fcc:	85 ff                	test   edi,edi
  401fce:	0f 84 64 01 00 00    	je     402138 <sched_thd_yield_to+0x1b8>
  401fd4:	83 ef 01             	sub    edi,0x1
  401fd7:	83 ff 18             	cmp    edi,0x18
  401fda:	0f 87 58 01 00 00    	ja     402138 <sched_thd_yield_to+0x1b8>
  401fe0:	89 f8                	mov    eax,edi
  401fe2:	48 8b 14 c5 00 e7 45 	mov    rdx,QWORD PTR [rax*8+0x45e700]
  401fe9:	00 
  401fea:	48 f7 c2 fe ff ff ff 	test   rdx,0xfffffffffffffffe
  401ff1:	0f 84 41 01 00 00    	je     402138 <sched_thd_yield_to+0x1b8>
  401ff7:	83 e2 01             	and    edx,0x1
  401ffa:	0f 85 38 01 00 00    	jne    402138 <sched_thd_yield_to+0x1b8>
	return &ss_thd_get(id)->thd;
  402000:	48 8d 14 80          	lea    rdx,[rax+rax*4]
  402004:	48 8d 04 50          	lea    rax,[rax+rdx*2]
  402008:	48 c1 e0 04          	shl    rax,0x4
  40200c:	4c 8d a8 c8 e7 45 00 	lea    r13,[rax+0x45e7c8]
	assert(current);
  402013:	4d 85 e4             	test   r12,r12
  402016:	0f 84 80 01 00 00    	je     40219c <sched_thd_yield_to+0x21c>
		tok    = cos_sched_sync();
  40201c:	e8 df f2 00 00       	call   411300 <cos_sched_sync>
  402021:	41 89 c1             	mov    r9d,eax
	unsigned long oc = ps_load(&cs->owner_contention);
  402024:	48 8b 05 95 fe 19 00 	mov    rax,QWORD PTR [rip+0x19fe95]        # 5a1ec0 <__slm_global>
		if (unlikely(owner)) {
  40202b:	48 89 c1             	mov    rcx,rax
  40202e:	48 83 e1 fe          	and    rcx,0xfffffffffffffffe
  402032:	0f 85 28 01 00 00    	jne    402160 <sched_thd_yield_to+0x1e0>
  402038:	f0 4c 0f b1 25 7f fe 	lock cmpxchg QWORD PTR [rip+0x19fe7f],r12        # 5a1ec0 <__slm_global>
  40203f:	19 00 
  402041:	0f 94 c0             	sete   al
		if (likely(!__slm_cs_cas(cs, cached, current, 0))) return 0;
  402044:	84 c0                	test   al,al
  402046:	74 d4                	je     40201c <sched_thd_yield_to+0x9c>
SLM_MODULES_COMPOSE_FNS(quantum, fprr, static_cm);
  402048:	4c 89 ee             	mov    rsi,r13
  40204b:	4c 89 e7             	mov    rdi,r12
	if (unlikely(!t)) t = &g->idle_thd;
  40204e:	41 be 40 1f 5a 00    	mov    r14d,0x5a1f40
  402054:	e8 37 05 01 00       	call   412590 <slm_sched_fprr_yield>
	struct cos_compinfo    *ci  = &cos_defcompinfo_curr_get()->ci;
  402059:	e8 02 98 00 00       	call   40b860 <cos_defcompinfo_curr_get>
	tok  = cos_sched_sync();
  40205e:	e8 9d f2 00 00       	call   411300 <cos_sched_sync>
  402063:	41 89 c5             	mov    r13d,eax
  402066:	e8 25 04 01 00       	call   412490 <slm_sched_fprr_schedule>
	if (unlikely(!t)) t = &g->idle_thd;
  40206b:	48 85 c0             	test   rax,rax
  40206e:	48 89 c3             	mov    rbx,rax
  402071:	49 0f 44 de          	cmove  rbx,r14
{ return s == SLM_THD_RUNNABLE || s == SLM_THD_WOKEN; }
  402075:	8b 43 04             	mov    eax,DWORD PTR [rbx+0x4]
  402078:	83 e8 02             	sub    eax,0x2
	assert(slm_state_is_runnable(t->state));
  40207b:	83 f8 01             	cmp    eax,0x1
  40207e:	76 18                	jbe    402098 <sched_thd_yield_to+0x118>
  402080:	e9 33 01 00 00       	jmp    4021b8 <sched_thd_yield_to+0x238>
  402085:	0f 1f 00             	nop    DWORD PTR [rax]
  402088:	f0 48 0f b1 15 2f fe 	lock cmpxchg QWORD PTR [rip+0x19fe2f],rdx        # 5a1ec0 <__slm_global>
  40208f:	19 00 
  402091:	0f 94 c0             	sete   al
	while (ret != 0) {
  402094:	84 c0                	test   al,al
  402096:	75 2e                	jne    4020c6 <sched_thd_yield_to+0x146>
		tok    = cos_sched_sync();
  402098:	e8 63 f2 00 00       	call   411300 <cos_sched_sync>
  40209d:	89 c1                	mov    ecx,eax
	unsigned long oc = ps_load(&cs->owner_contention);
  40209f:	48 8b 05 1a fe 19 00 	mov    rax,QWORD PTR [rip+0x19fe1a]        # 5a1ec0 <__slm_global>
		if (unlikely(contention)) {
  4020a6:	48 89 c2             	mov    rdx,rax
  4020a9:	83 e2 01             	and    edx,0x1
  4020ac:	74 da                	je     402088 <sched_thd_yield_to+0x108>
	*thd        = (struct slm_thd *)(oc & (~0UL << 1));
  4020ae:	48 89 c6             	mov    rsi,rax
			if (!slm_cs_exit_contention(cs, current, cached, tok)) return;
  4020b1:	48 89 c2             	mov    rdx,rax
  4020b4:	bf c0 1e 5a 00       	mov    edi,0x5a1ec0
  4020b9:	48 83 e6 fe          	and    rsi,0xfffffffffffffffe
  4020bd:	e8 9e 17 01 00       	call   413860 <slm_cs_exit_contention>
  4020c2:	85 c0                	test   eax,eax
  4020c4:	75 d2                	jne    402098 <sched_thd_yield_to+0x118>
	struct cos_defcompinfo *dci = cos_defcompinfo_curr_get();
  4020c6:	e8 95 97 00 00       	call   40b860 <cos_defcompinfo_curr_get>
	if (unlikely(t->properties & (SLM_THD_PROPERTY_SEND | SLM_THD_PROPERTY_OWN_TCAP | SLM_THD_PROPERTY_SPECIAL))) {
  4020cb:	8b 03                	mov    eax,DWORD PTR [rbx]
	timeout = g->timeout_next;
  4020cd:	4c 8b 05 f4 fe 19 00 	mov    r8,QWORD PTR [rip+0x19fef4]        # 5a1fc8 <__slm_global+0x108>
	prio = inherit_prio ? curr->priority : t->priority;
  4020d4:	48 8b 73 30          	mov    rsi,QWORD PTR [rbx+0x30]
	if (unlikely(t->properties & (SLM_THD_PROPERTY_SEND | SLM_THD_PROPERTY_OWN_TCAP | SLM_THD_PROPERTY_SPECIAL))) {
  4020d8:	a8 0b                	test   al,0xb
  4020da:	0f 85 f4 00 00 00    	jne    4021d4 <sched_thd_yield_to+0x254>
	ret = cos_defswitch(t->thd, prio, timeout, tok);
  4020e0:	48 8b 7b 10          	mov    rdi,QWORD PTR [rbx+0x10]
  4020e4:	44 89 e9             	mov    ecx,r13d
  4020e7:	4c 89 c2             	mov    rdx,r8
  4020ea:	e8 71 a6 00 00       	call   40c760 <cos_defswitch>
	if (unlikely(ret == -EPERM && !slm_thd_normal(t))) {
  4020ef:	83 f8 ff             	cmp    eax,0xffffffff
  4020f2:	0f 84 1e 01 00 00    	je     402216 <sched_thd_yield_to+0x296>
	if (unlikely(ret != 0)) {
  4020f8:	85 c0                	test   eax,eax
  4020fa:	0f 85 70 01 00 00    	jne    402270 <sched_thd_yield_to+0x2f0>
  402100:	31 c0                	xor    eax,eax
}
  402102:	5b                   	pop    rbx
  402103:	41 5c                	pop    r12
  402105:	41 5d                	pop    r13
  402107:	41 5e                	pop    r14
  402109:	5d                   	pop    rbp
  40210a:	c3                   	ret    
  40210b:	0f 1f 44 00 00       	nop    DWORD PTR [rax+rax*1+0x0]
  402110:	83 e2 01             	and    edx,0x1
  402113:	0f 85 b3 fe ff ff    	jne    401fcc <sched_thd_yield_to+0x4c>
SS_STATIC_SLAB(thd, struct slm_thd_container, MAX_NUM_THREADS);
  402119:	48 8d 14 80          	lea    rdx,[rax+rax*4]
  40211d:	4c 8d 24 50          	lea    r12,[rax+rdx*2]
  402121:	49 c1 e4 04          	shl    r12,0x4
  402125:	49 81 c4 c8 e7 45 00 	add    r12,0x45e7c8
  40212c:	85 ff                	test   edi,edi
  40212e:	0f 85 a0 fe ff ff    	jne    401fd4 <sched_thd_yield_to+0x54>
  402134:	0f 1f 40 00          	nop    DWORD PTR [rax+0x0]
  402138:	be 24 00 00 00       	mov    esi,0x24
  40213d:	bf 60 cc 41 00       	mov    edi,0x41cc60
  402142:	e8 89 7f 00 00       	call   40a0d0 <cos_print_str>
	assert(to);
  402147:	c7 04 25 00 00 00 00 	mov    DWORD PTR ds:0x0,0x0
  40214e:	00 00 00 00 
  402152:	0f 0b                	ud2    
  402154:	0f 1f 40 00          	nop    DWORD PTR [rax+0x0]
SS_STATIC_SLAB(thd, struct slm_thd_container, MAX_NUM_THREADS);
  402158:	45 31 e4             	xor    r12d,r12d
  40215b:	e9 6c fe ff ff       	jmp    401fcc <sched_thd_yield_to+0x4c>
			ret = slm_cs_enter_contention(cs, cached, current, owner, contended, tok);
  402160:	41 89 c0             	mov    r8d,eax
  402163:	4c 89 e2             	mov    rdx,r12
  402166:	48 89 c6             	mov    rsi,rax
  402169:	bf c0 1e 5a 00       	mov    edi,0x5a1ec0
  40216e:	41 83 e0 01          	and    r8d,0x1
  402172:	e8 99 16 01 00       	call   413810 <slm_cs_enter_contention>
			assert(ret != -EBUSY);
  402177:	83 f8 f0             	cmp    eax,0xfffffff0
  40217a:	0f 85 9c fe ff ff    	jne    40201c <sched_thd_yield_to+0x9c>
  402180:	be 59 00 00 00       	mov    esi,0x59
  402185:	bf c0 c7 41 00       	mov    edi,0x41c7c0
  40218a:	e8 41 7f 00 00       	call   40a0d0 <cos_print_str>
  40218f:	c7 04 25 00 00 00 00 	mov    DWORD PTR ds:0x0,0x0
  402196:	00 00 00 00 
  40219a:	0f 0b                	ud2    
  40219c:	be 59 00 00 00       	mov    esi,0x59
  4021a1:	bf 60 c7 41 00       	mov    edi,0x41c760
  4021a6:	e8 25 7f 00 00       	call   40a0d0 <cos_print_str>
	assert(current);
  4021ab:	c7 04 25 00 00 00 00 	mov    DWORD PTR ds:0x0,0x0
  4021b2:	00 00 00 00 
  4021b6:	0f 0b                	ud2    
  4021b8:	be 61 00 00 00       	mov    esi,0x61
  4021bd:	bf 48 c8 41 00       	mov    edi,0x41c848
  4021c2:	e8 09 7f 00 00       	call   40a0d0 <cos_print_str>
	assert(slm_state_is_runnable(t->state));
  4021c7:	c7 04 25 00 00 00 00 	mov    DWORD PTR ds:0x0,0x0
  4021ce:	00 00 00 00 
  4021d2:	0f 0b                	ud2    
	timeout = g->timeout_next;
  4021d4:	4c 89 c1             	mov    rcx,r8
		if (t == &g->sched_thd) {
  4021d7:	48 81 fb c8 1e 5a 00 	cmp    rbx,0x5a1ec8
  4021de:	0f 84 d1 00 00 00    	je     4022b5 <sched_thd_yield_to+0x335>
		if (t->properties & SLM_THD_PROPERTY_SEND) {
  4021e4:	a8 02                	test   al,0x2
  4021e6:	0f 85 d5 00 00 00    	jne    4022c1 <sched_thd_yield_to+0x341>
		} else if (t->properties & SLM_THD_PROPERTY_OWN_TCAP) {
  4021ec:	49 89 c8             	mov    r8,rcx
  4021ef:	a8 01                	test   al,0x1
  4021f1:	0f 84 e9 fe ff ff    	je     4020e0 <sched_thd_yield_to+0x160>
			return cos_switch(t->thd, t->tc, prio, timeout, g->sched_thd.rcv, tok);
  4021f7:	4c 8b 53 08          	mov    r10,QWORD PTR [rbx+0x8]
  4021fb:	48 8b 7b 10          	mov    rdi,QWORD PTR [rbx+0x10]
  4021ff:	48 89 f2             	mov    rdx,rsi
  402202:	45 89 e9             	mov    r9d,r13d
  402205:	4c 8b 05 dc fc 19 00 	mov    r8,QWORD PTR [rip+0x19fcdc]        # 5a1ee8 <__slm_global+0x28>
  40220c:	4c 89 d6             	mov    rsi,r10
  40220f:	e8 0c f1 00 00       	call   411320 <cos_switch>
  402214:	eb 4d                	jmp    402263 <sched_thd_yield_to+0x2e3>
	return t != &g->idle_thd && t != &g->sched_thd;
  402216:	48 81 fb c8 1e 5a 00 	cmp    rbx,0x5a1ec8
  40221d:	74 25                	je     402244 <sched_thd_yield_to+0x2c4>
  40221f:	48 81 fb 40 1f 5a 00 	cmp    rbx,0x5a1f40
  402226:	74 1c                	je     402244 <sched_thd_yield_to+0x2c4>
  402228:	be 61 00 00 00       	mov    esi,0x61
  40222d:	bf b0 c8 41 00       	mov    edi,0x41c8b0
  402232:	e8 99 7e 00 00       	call   40a0d0 <cos_print_str>
		assert(ret != -EPERM);
  402237:	c7 04 25 00 00 00 00 	mov    DWORD PTR ds:0x0,0x0
  40223e:	00 00 00 00 
  402242:	0f 0b                	ud2    
		ret = cos_switch(g->sched_thd.thd, 0, curr->priority, TCAP_TIME_NIL, g->sched_thd.rcv, tok);
  402244:	49 8b 54 24 30       	mov    rdx,QWORD PTR [r12+0x30]
  402249:	4c 8b 05 98 fc 19 00 	mov    r8,QWORD PTR [rip+0x19fc98]        # 5a1ee8 <__slm_global+0x28>
  402250:	31 c9                	xor    ecx,ecx
  402252:	31 f6                	xor    esi,esi
  402254:	48 8b 3d 7d fc 19 00 	mov    rdi,QWORD PTR [rip+0x19fc7d]        # 5a1ed8 <__slm_global+0x18>
  40225b:	45 89 e9             	mov    r9d,r13d
  40225e:	e8 bd f0 00 00       	call   411320 <cos_switch>
	if (unlikely(ret != 0)) {
  402263:	85 c0                	test   eax,eax
  402265:	0f 84 95 fe ff ff    	je     402100 <sched_thd_yield_to+0x180>
		assert(ret != -EPERM);
  40226b:	83 f8 ff             	cmp    eax,0xffffffff
  40226e:	74 b8                	je     402228 <sched_thd_yield_to+0x2a8>
		assert(ret != -EINVAL);
  402270:	83 f8 ea             	cmp    eax,0xffffffea
  402273:	74 64                	je     4022d9 <sched_thd_yield_to+0x359>
		if (ret == -EBUSY) return ret;
  402275:	83 f8 f0             	cmp    eax,0xfffffff0
  402278:	0f 84 84 fe ff ff    	je     402102 <sched_thd_yield_to+0x182>
		assert(ret == -EAGAIN);
  40227e:	83 f8 f5             	cmp    eax,0xfffffff5
  402281:	0f 85 99 00 00 00    	jne    402320 <sched_thd_yield_to+0x3a0>
		tok    = cos_sched_sync();
  402287:	e8 74 f0 00 00       	call   411300 <cos_sched_sync>
  40228c:	41 89 c1             	mov    r9d,eax
	unsigned long oc = ps_load(&cs->owner_contention);
  40228f:	48 8b 05 2a fc 19 00 	mov    rax,QWORD PTR [rip+0x19fc2a]        # 5a1ec0 <__slm_global>
		if (unlikely(owner)) {
  402296:	48 89 c1             	mov    rcx,rax
  402299:	48 83 e1 fe          	and    rcx,0xfffffffffffffffe
  40229d:	75 56                	jne    4022f5 <sched_thd_yield_to+0x375>
  40229f:	f0 4c 0f b1 25 18 fc 	lock cmpxchg QWORD PTR [rip+0x19fc18],r12        # 5a1ec0 <__slm_global>
  4022a6:	19 00 
  4022a8:	0f 94 c0             	sete   al
		if (likely(!__slm_cs_cas(cs, cached, current, 0))) return 0;
  4022ab:	84 c0                	test   al,al
  4022ad:	0f 85 ab fd ff ff    	jne    40205e <sched_thd_yield_to+0xde>
  4022b3:	eb d2                	jmp    402287 <sched_thd_yield_to+0x307>
			prio    = curr->priority;
  4022b5:	49 8b 74 24 30       	mov    rsi,QWORD PTR [r12+0x30]
			timeout = TCAP_TIME_NIL;
  4022ba:	31 c9                	xor    ecx,ecx
  4022bc:	e9 23 ff ff ff       	jmp    4021e4 <sched_thd_yield_to+0x264>
			return cos_sched_asnd(t->asnd, g->timeout_next, g->sched_thd.rcv, tok);
  4022c1:	48 8b 7b 28          	mov    rdi,QWORD PTR [rbx+0x28]
  4022c5:	48 8b 15 1c fc 19 00 	mov    rdx,QWORD PTR [rip+0x19fc1c]        # 5a1ee8 <__slm_global+0x28>
  4022cc:	44 89 e9             	mov    ecx,r13d
  4022cf:	4c 89 c6             	mov    rsi,r8
  4022d2:	e8 b9 f0 00 00       	call   411390 <cos_sched_asnd>
  4022d7:	eb 8a                	jmp    402263 <sched_thd_yield_to+0x2e3>
  4022d9:	be 61 00 00 00       	mov    esi,0x61
  4022de:	bf 18 c9 41 00       	mov    edi,0x41c918
  4022e3:	e8 e8 7d 00 00       	call   40a0d0 <cos_print_str>
		assert(ret != -EINVAL);
  4022e8:	c7 04 25 00 00 00 00 	mov    DWORD PTR ds:0x0,0x0
  4022ef:	00 00 00 00 
  4022f3:	0f 0b                	ud2    
			ret = slm_cs_enter_contention(cs, cached, current, owner, contended, tok);
  4022f5:	41 89 c0             	mov    r8d,eax
  4022f8:	4c 89 e2             	mov    rdx,r12
  4022fb:	48 89 c6             	mov    rsi,rax
  4022fe:	bf c0 1e 5a 00       	mov    edi,0x5a1ec0
  402303:	41 83 e0 01          	and    r8d,0x1
  402307:	e8 04 15 01 00       	call   413810 <slm_cs_enter_contention>
			assert(ret != -EBUSY);
  40230c:	83 f8 f0             	cmp    eax,0xfffffff0
  40230f:	0f 85 72 ff ff ff    	jne    402287 <sched_thd_yield_to+0x307>
  402315:	e9 66 fe ff ff       	jmp    402180 <sched_thd_yield_to+0x200>
  40231a:	66 0f 1f 44 00 00    	nop    WORD PTR [rax+rax*1+0x0]
  402320:	be 61 00 00 00       	mov    esi,0x61
  402325:	bf 80 c9 41 00       	mov    edi,0x41c980
  40232a:	e8 a1 7d 00 00       	call   40a0d0 <cos_print_str>
		assert(ret == -EAGAIN);
  40232f:	c7 04 25 00 00 00 00 	mov    DWORD PTR ds:0x0,0x0
  402336:	00 00 00 00 
  40233a:	0f 0b                	ud2    
  40233c:	0f 1f 40 00          	nop    DWORD PTR [rax+0x0]

0000000000402340 <sched_set_tls>:
{
  402340:	f3 0f 1e fa          	endbr64 
	__asm__("mov %%rsp, %0;" : "=r"(curr_stk_pointer));
  402344:	48 89 e0             	mov    rax,rsp
	return *(long *)((curr_stk_pointer & ~(COS_STACK_SZ - 1)) + COS_STACK_SZ - offset * sizeof(unsigned long));
  402347:	48 25 00 e0 ff ff    	and    rax,0xffffffffffffe000
  40234d:	0f b7 80 f0 1f 00 00 	movzx  eax,WORD PTR [rax+0x1ff0]
SS_STATIC_SLAB(thd, struct slm_thd_container, MAX_NUM_THREADS);
  402354:	48 85 c0             	test   rax,rax
  402357:	0f 84 03 2b 01 00    	je     414e60 <sched_set_tls.cold>
  40235d:	83 e8 01             	sub    eax,0x1
  402360:	83 f8 18             	cmp    eax,0x18
  402363:	0f 87 f7 2a 01 00    	ja     414e60 <sched_set_tls.cold>
  402369:	48 8b 14 c5 00 e7 45 	mov    rdx,QWORD PTR [rax*8+0x45e700]
  402370:	00 
  402371:	48 f7 c2 fe ff ff ff 	test   rdx,0xfffffffffffffffe
  402378:	0f 84 e2 2a 01 00    	je     414e60 <sched_set_tls.cold>
  40237e:	83 e2 01             	and    edx,0x1
  402381:	0f 85 d9 2a 01 00    	jne    414e60 <sched_set_tls.cold>
	thdcap_t thdcap = current->thd;
  402387:	48 8d 14 80          	lea    rdx,[rax+rax*4]
	capmgr_set_tls(thdcap, tls_addr);
  40238b:	48 89 fe             	mov    rsi,rdi
	thdcap_t thdcap = current->thd;
  40238e:	48 8d 04 50          	lea    rax,[rax+rdx*2]
  402392:	48 c1 e0 04          	shl    rax,0x4
	capmgr_set_tls(thdcap, tls_addr);
  402396:	4c 8b 80 d8 e7 45 00 	mov    r8,QWORD PTR [rax+0x45e7d8]
  40239d:	4c 89 c7             	mov    rdi,r8
  4023a0:	e9 3b 50 00 00       	jmp    4073e0 <__cosrt_extern_capmgr_set_tls>
  4023a5:	66 66 2e 0f 1f 84 00 	data16 cs nop WORD PTR [rax+rax*1+0x0]
  4023ac:	00 00 00 00 

00000000004023b0 <thd_block>:
{
  4023b0:	f3 0f 1e fa          	endbr64 
  4023b4:	55                   	push   rbp
	__asm__("mov %%rsp, %0;" : "=r"(curr_stk_pointer));
  4023b5:	48 89 e0             	mov    rax,rsp
	return *(long *)((curr_stk_pointer & ~(COS_STACK_SZ - 1)) + COS_STACK_SZ - offset * sizeof(unsigned long));
  4023b8:	48 25 00 e0 ff ff    	and    rax,0xffffffffffffe000
  4023be:	48 89 e5             	mov    rbp,rsp
  4023c1:	41 57                	push   r15
  4023c3:	41 56                	push   r14
  4023c5:	41 55                	push   r13
  4023c7:	41 54                	push   r12
  4023c9:	53                   	push   rbx
  4023ca:	48 83 ec 08          	sub    rsp,0x8
  4023ce:	0f b7 80 f0 1f 00 00 	movzx  eax,WORD PTR [rax+0x1ff0]
SS_STATIC_SLAB(thd, struct slm_thd_container, MAX_NUM_THREADS);
  4023d5:	48 85 c0             	test   rax,rax
  4023d8:	0f 84 82 01 00 00    	je     402560 <thd_block+0x1b0>
  4023de:	83 e8 01             	sub    eax,0x1
  4023e1:	83 f8 18             	cmp    eax,0x18
  4023e4:	0f 87 76 01 00 00    	ja     402560 <thd_block+0x1b0>
  4023ea:	48 8b 14 c5 00 e7 45 	mov    rdx,QWORD PTR [rax*8+0x45e700]
  4023f1:	00 
  4023f2:	48 f7 c2 fe ff ff ff 	test   rdx,0xfffffffffffffffe
  4023f9:	0f 84 61 01 00 00    	je     402560 <thd_block+0x1b0>
  4023ff:	83 e2 01             	and    edx,0x1
  402402:	0f 85 58 01 00 00    	jne    402560 <thd_block+0x1b0>
  402408:	48 8d 14 80          	lea    rdx,[rax+rax*4]
  40240c:	48 8d 1c 50          	lea    rbx,[rax+rdx*2]
  402410:	48 c1 e3 04          	shl    rbx,0x4
  402414:	48 81 c3 c8 e7 45 00 	add    rbx,0x45e7c8
		tok    = cos_sched_sync();
  40241b:	e8 e0 ee 00 00       	call   411300 <cos_sched_sync>
  402420:	41 89 c1             	mov    r9d,eax
	unsigned long oc = ps_load(&cs->owner_contention);
  402423:	48 8b 05 96 fa 19 00 	mov    rax,QWORD PTR [rip+0x19fa96]        # 5a1ec0 <__slm_global>
		if (unlikely(owner)) {
  40242a:	48 89 c1             	mov    rcx,rax
  40242d:	48 83 e1 fe          	and    rcx,0xfffffffffffffffe
  402431:	0f 85 49 01 00 00    	jne    402580 <thd_block+0x1d0>
  402437:	f0 48 0f b1 1d 80 fa 	lock cmpxchg QWORD PTR [rip+0x19fa80],rbx        # 5a1ec0 <__slm_global>
  40243e:	19 00 
  402440:	0f 94 c0             	sete   al
		if (likely(!__slm_cs_cas(cs, cached, current, 0))) return 0;
  402443:	84 c0                	test   al,al
  402445:	74 d4                	je     40241b <thd_block+0x6b>
        ret = slm_thd_block(current);
  402447:	48 89 df             	mov    rdi,rbx
  40244a:	e8 71 14 01 00       	call   4138c0 <slm_thd_block>
  40244f:	41 89 c5             	mov    r13d,eax
	if (!ret) ret = slm_cs_exit_reschedule(current, SLM_CS_NONE);
  402452:	85 c0                	test   eax,eax
  402454:	0f 85 d6 00 00 00    	jne    402530 <thd_block+0x180>
	struct cos_compinfo    *ci  = &cos_defcompinfo_curr_get()->ci;
  40245a:	e8 01 94 00 00       	call   40b860 <cos_defcompinfo_curr_get>
	if (unlikely(!t)) t = &g->idle_thd;
  40245f:	41 bf 40 1f 5a 00    	mov    r15d,0x5a1f40
	tok  = cos_sched_sync();
  402465:	e8 96 ee 00 00       	call   411300 <cos_sched_sync>
  40246a:	41 89 c6             	mov    r14d,eax
SLM_MODULES_COMPOSE_FNS(quantum, fprr, static_cm);
  40246d:	e8 1e 00 01 00       	call   412490 <slm_sched_fprr_schedule>
	if (unlikely(!t)) t = &g->idle_thd;
  402472:	48 85 c0             	test   rax,rax
  402475:	49 89 c4             	mov    r12,rax
  402478:	4d 0f 44 e7          	cmove  r12,r15
{ return s == SLM_THD_RUNNABLE || s == SLM_THD_WOKEN; }
  40247c:	41 8b 44 24 04       	mov    eax,DWORD PTR [r12+0x4]
  402481:	83 e8 02             	sub    eax,0x2
	assert(slm_state_is_runnable(t->state));
  402484:	83 f8 01             	cmp    eax,0x1
  402487:	76 17                	jbe    4024a0 <thd_block+0xf0>
  402489:	e9 82 01 00 00       	jmp    402610 <thd_block+0x260>
  40248e:	66 90                	xchg   ax,ax
  402490:	f0 48 0f b1 15 27 fa 	lock cmpxchg QWORD PTR [rip+0x19fa27],rdx        # 5a1ec0 <__slm_global>
  402497:	19 00 
  402499:	0f 94 c0             	sete   al
	while (ret != 0) {
  40249c:	84 c0                	test   al,al
  40249e:	75 2e                	jne    4024ce <thd_block+0x11e>
		tok    = cos_sched_sync();
  4024a0:	e8 5b ee 00 00       	call   411300 <cos_sched_sync>
  4024a5:	89 c1                	mov    ecx,eax
	unsigned long oc = ps_load(&cs->owner_contention);
  4024a7:	48 8b 05 12 fa 19 00 	mov    rax,QWORD PTR [rip+0x19fa12]        # 5a1ec0 <__slm_global>
		if (unlikely(contention)) {
  4024ae:	48 89 c2             	mov    rdx,rax
  4024b1:	83 e2 01             	and    edx,0x1
  4024b4:	74 da                	je     402490 <thd_block+0xe0>
	*thd        = (struct slm_thd *)(oc & (~0UL << 1));
  4024b6:	48 89 c6             	mov    rsi,rax
			if (!slm_cs_exit_contention(cs, current, cached, tok)) return;
  4024b9:	48 89 c2             	mov    rdx,rax
  4024bc:	bf c0 1e 5a 00       	mov    edi,0x5a1ec0
  4024c1:	48 83 e6 fe          	and    rsi,0xfffffffffffffffe
  4024c5:	e8 96 13 01 00       	call   413860 <slm_cs_exit_contention>
  4024ca:	85 c0                	test   eax,eax
  4024cc:	75 d2                	jne    4024a0 <thd_block+0xf0>
	struct cos_defcompinfo *dci = cos_defcompinfo_curr_get();
  4024ce:	e8 8d 93 00 00       	call   40b860 <cos_defcompinfo_curr_get>
	if (unlikely(t->properties & (SLM_THD_PROPERTY_SEND | SLM_THD_PROPERTY_OWN_TCAP | SLM_THD_PROPERTY_SPECIAL))) {
  4024d3:	41 8b 04 24          	mov    eax,DWORD PTR [r12]
	prio = inherit_prio ? curr->priority : t->priority;
  4024d7:	49 8b 74 24 30       	mov    rsi,QWORD PTR [r12+0x30]
	timeout = g->timeout_next;
  4024dc:	4c 8b 05 e5 fa 19 00 	mov    r8,QWORD PTR [rip+0x19fae5]        # 5a1fc8 <__slm_global+0x108>
	if (unlikely(t->properties & (SLM_THD_PROPERTY_SEND | SLM_THD_PROPERTY_OWN_TCAP | SLM_THD_PROPERTY_SPECIAL))) {
  4024e3:	a8 0b                	test   al,0xb
  4024e5:	0f 85 41 01 00 00    	jne    40262c <thd_block+0x27c>
	ret = cos_defswitch(t->thd, prio, timeout, tok);
  4024eb:	49 8b 7c 24 10       	mov    rdi,QWORD PTR [r12+0x10]
  4024f0:	44 89 f1             	mov    ecx,r14d
  4024f3:	4c 89 c2             	mov    rdx,r8
  4024f6:	e8 65 a2 00 00       	call   40c760 <cos_defswitch>
	if (unlikely(ret == -EPERM && !slm_thd_normal(t))) {
  4024fb:	83 f8 ff             	cmp    eax,0xffffffff
  4024fe:	0f 84 97 01 00 00    	je     40269b <thd_block+0x2eb>
	if (unlikely(ret != 0)) {
  402504:	85 c0                	test   eax,eax
  402506:	0f 85 b0 00 00 00    	jne    4025bc <thd_block+0x20c>
}
  40250c:	48 83 c4 08          	add    rsp,0x8
  402510:	44 89 e8             	mov    eax,r13d
  402513:	5b                   	pop    rbx
  402514:	41 5c                	pop    r12
  402516:	41 5d                	pop    r13
  402518:	41 5e                	pop    r14
  40251a:	41 5f                	pop    r15
  40251c:	5d                   	pop    rbp
  40251d:	c3                   	ret    
  40251e:	66 90                	xchg   ax,ax
  402520:	f0 48 0f b1 15 97 f9 	lock cmpxchg QWORD PTR [rip+0x19f997],rdx        # 5a1ec0 <__slm_global>
  402527:	19 00 
  402529:	0f 94 c0             	sete   al
	while (ret != 0) {
  40252c:	84 c0                	test   al,al
  40252e:	75 dc                	jne    40250c <thd_block+0x15c>
		tok    = cos_sched_sync();
  402530:	e8 cb ed 00 00       	call   411300 <cos_sched_sync>
  402535:	89 c1                	mov    ecx,eax
	unsigned long oc = ps_load(&cs->owner_contention);
  402537:	48 8b 05 82 f9 19 00 	mov    rax,QWORD PTR [rip+0x19f982]        # 5a1ec0 <__slm_global>
		if (unlikely(contention)) {
  40253e:	48 89 c2             	mov    rdx,rax
  402541:	83 e2 01             	and    edx,0x1
  402544:	74 da                	je     402520 <thd_block+0x170>
	*thd        = (struct slm_thd *)(oc & (~0UL << 1));
  402546:	48 89 c6             	mov    rsi,rax
			if (!slm_cs_exit_contention(cs, current, cached, tok)) return;
  402549:	48 89 c2             	mov    rdx,rax
  40254c:	bf c0 1e 5a 00       	mov    edi,0x5a1ec0
  402551:	48 83 e6 fe          	and    rsi,0xfffffffffffffffe
  402555:	e8 06 13 01 00       	call   413860 <slm_cs_exit_contention>
  40255a:	85 c0                	test   eax,eax
  40255c:	74 ae                	je     40250c <thd_block+0x15c>
  40255e:	eb d0                	jmp    402530 <thd_block+0x180>
  402560:	be 59 00 00 00       	mov    esi,0x59
  402565:	bf 60 c7 41 00       	mov    edi,0x41c760
  40256a:	e8 61 7b 00 00       	call   40a0d0 <cos_print_str>
	assert(current);
  40256f:	c7 04 25 00 00 00 00 	mov    DWORD PTR ds:0x0,0x0
  402576:	00 00 00 00 
  40257a:	0f 0b                	ud2    
  40257c:	0f 1f 40 00          	nop    DWORD PTR [rax+0x0]
			ret = slm_cs_enter_contention(cs, cached, current, owner, contended, tok);
  402580:	41 89 c0             	mov    r8d,eax
  402583:	48 89 da             	mov    rdx,rbx
  402586:	48 89 c6             	mov    rsi,rax
  402589:	bf c0 1e 5a 00       	mov    edi,0x5a1ec0
  40258e:	41 83 e0 01          	and    r8d,0x1
  402592:	e8 79 12 01 00       	call   413810 <slm_cs_enter_contention>
			assert(ret != -EBUSY);
  402597:	83 f8 f0             	cmp    eax,0xfffffff0
  40259a:	0f 85 7b fe ff ff    	jne    40241b <thd_block+0x6b>
  4025a0:	be 59 00 00 00       	mov    esi,0x59
  4025a5:	bf c0 c7 41 00       	mov    edi,0x41c7c0
  4025aa:	e8 21 7b 00 00       	call   40a0d0 <cos_print_str>
  4025af:	c7 04 25 00 00 00 00 	mov    DWORD PTR ds:0x0,0x0
  4025b6:	00 00 00 00 
  4025ba:	0f 0b                	ud2    
		assert(ret != -EINVAL);
  4025bc:	83 f8 ea             	cmp    eax,0xffffffea
  4025bf:	0f 84 2f 01 00 00    	je     4026f4 <thd_block+0x344>
		if (ret == -EBUSY) return ret;
  4025c5:	83 f8 f0             	cmp    eax,0xfffffff0
  4025c8:	0f 84 86 01 00 00    	je     402754 <thd_block+0x3a4>
		assert(ret == -EAGAIN);
  4025ce:	83 f8 f5             	cmp    eax,0xfffffff5
  4025d1:	0f 85 61 01 00 00    	jne    402738 <thd_block+0x388>
		tok    = cos_sched_sync();
  4025d7:	e8 24 ed 00 00       	call   411300 <cos_sched_sync>
  4025dc:	41 89 c1             	mov    r9d,eax
	unsigned long oc = ps_load(&cs->owner_contention);
  4025df:	48 8b 05 da f8 19 00 	mov    rax,QWORD PTR [rip+0x19f8da]        # 5a1ec0 <__slm_global>
		if (unlikely(owner)) {
  4025e6:	48 89 c1             	mov    rcx,rax
  4025e9:	48 83 e1 fe          	and    rcx,0xfffffffffffffffe
  4025ed:	0f 85 1d 01 00 00    	jne    402710 <thd_block+0x360>
  4025f3:	f0 48 0f b1 1d c4 f8 	lock cmpxchg QWORD PTR [rip+0x19f8c4],rbx        # 5a1ec0 <__slm_global>
  4025fa:	19 00 
  4025fc:	0f 94 c0             	sete   al
		if (likely(!__slm_cs_cas(cs, cached, current, 0))) return 0;
  4025ff:	84 c0                	test   al,al
  402601:	0f 85 5e fe ff ff    	jne    402465 <thd_block+0xb5>
  402607:	eb ce                	jmp    4025d7 <thd_block+0x227>
  402609:	0f 1f 80 00 00 00 00 	nop    DWORD PTR [rax+0x0]
  402610:	be 61 00 00 00       	mov    esi,0x61
  402615:	bf 48 c8 41 00       	mov    edi,0x41c848
  40261a:	e8 b1 7a 00 00       	call   40a0d0 <cos_print_str>
	assert(slm_state_is_runnable(t->state));
  40261f:	c7 04 25 00 00 00 00 	mov    DWORD PTR ds:0x0,0x0
  402626:	00 00 00 00 
  40262a:	0f 0b                	ud2    
	timeout = g->timeout_next;
  40262c:	4c 89 c1             	mov    rcx,r8
		if (t == &g->sched_thd) {
  40262f:	49 81 fc c8 1e 5a 00 	cmp    r12,0x5a1ec8
  402636:	0f 84 91 00 00 00    	je     4026cd <thd_block+0x31d>
		if (t->properties & SLM_THD_PROPERTY_SEND) {
  40263c:	a8 02                	test   al,0x2
  40263e:	0f 85 94 00 00 00    	jne    4026d8 <thd_block+0x328>
		} else if (t->properties & SLM_THD_PROPERTY_OWN_TCAP) {
  402644:	49 89 c8             	mov    r8,rcx
  402647:	a8 01                	test   al,0x1
  402649:	0f 84 9c fe ff ff    	je     4024eb <thd_block+0x13b>
			return cos_switch(t->thd, t->tc, prio, timeout, g->sched_thd.rcv, tok);
  40264f:	4d 8b 54 24 08       	mov    r10,QWORD PTR [r12+0x8]
  402654:	49 8b 7c 24 10       	mov    rdi,QWORD PTR [r12+0x10]
  402659:	48 89 f2             	mov    rdx,rsi
  40265c:	45 89 f1             	mov    r9d,r14d
  40265f:	4c 8b 05 82 f8 19 00 	mov    r8,QWORD PTR [rip+0x19f882]        # 5a1ee8 <__slm_global+0x28>
  402666:	4c 89 d6             	mov    rsi,r10
  402669:	e8 b2 ec 00 00       	call   411320 <cos_switch>
	if (unlikely(ret != 0)) {
  40266e:	85 c0                	test   eax,eax
  402670:	0f 84 96 fe ff ff    	je     40250c <thd_block+0x15c>
		assert(ret != -EPERM);
  402676:	83 f8 ff             	cmp    eax,0xffffffff
  402679:	0f 85 3d ff ff ff    	jne    4025bc <thd_block+0x20c>
  40267f:	be 61 00 00 00       	mov    esi,0x61
  402684:	bf b0 c8 41 00       	mov    edi,0x41c8b0
  402689:	e8 42 7a 00 00       	call   40a0d0 <cos_print_str>
  40268e:	c7 04 25 00 00 00 00 	mov    DWORD PTR ds:0x0,0x0
  402695:	00 00 00 00 
  402699:	0f 0b                	ud2    
	return t != &g->idle_thd && t != &g->sched_thd;
  40269b:	49 81 fc 40 1f 5a 00 	cmp    r12,0x5a1f40
  4026a2:	74 09                	je     4026ad <thd_block+0x2fd>
  4026a4:	49 81 fc c8 1e 5a 00 	cmp    r12,0x5a1ec8
  4026ab:	75 d2                	jne    40267f <thd_block+0x2cf>
		ret = cos_switch(g->sched_thd.thd, 0, curr->priority, TCAP_TIME_NIL, g->sched_thd.rcv, tok);
  4026ad:	48 8b 53 30          	mov    rdx,QWORD PTR [rbx+0x30]
  4026b1:	4c 8b 05 30 f8 19 00 	mov    r8,QWORD PTR [rip+0x19f830]        # 5a1ee8 <__slm_global+0x28>
  4026b8:	45 89 f1             	mov    r9d,r14d
  4026bb:	31 c9                	xor    ecx,ecx
  4026bd:	48 8b 3d 14 f8 19 00 	mov    rdi,QWORD PTR [rip+0x19f814]        # 5a1ed8 <__slm_global+0x18>
  4026c4:	31 f6                	xor    esi,esi
  4026c6:	e8 55 ec 00 00       	call   411320 <cos_switch>
  4026cb:	eb a1                	jmp    40266e <thd_block+0x2be>
			prio    = curr->priority;
  4026cd:	48 8b 73 30          	mov    rsi,QWORD PTR [rbx+0x30]
			timeout = TCAP_TIME_NIL;
  4026d1:	31 c9                	xor    ecx,ecx
  4026d3:	e9 64 ff ff ff       	jmp    40263c <thd_block+0x28c>
			return cos_sched_asnd(t->asnd, g->timeout_next, g->sched_thd.rcv, tok);
  4026d8:	49 8b 7c 24 28       	mov    rdi,QWORD PTR [r12+0x28]
  4026dd:	48 8b 15 04 f8 19 00 	mov    rdx,QWORD PTR [rip+0x19f804]        # 5a1ee8 <__slm_global+0x28>
  4026e4:	44 89 f1             	mov    ecx,r14d
  4026e7:	4c 89 c6             	mov    rsi,r8
  4026ea:	e8 a1 ec 00 00       	call   411390 <cos_sched_asnd>
  4026ef:	e9 7a ff ff ff       	jmp    40266e <thd_block+0x2be>
  4026f4:	be 61 00 00 00       	mov    esi,0x61
  4026f9:	bf 18 c9 41 00       	mov    edi,0x41c918
  4026fe:	e8 cd 79 00 00       	call   40a0d0 <cos_print_str>
		assert(ret != -EINVAL);
  402703:	c7 04 25 00 00 00 00 	mov    DWORD PTR ds:0x0,0x0
  40270a:	00 00 00 00 
  40270e:	0f 0b                	ud2    
			ret = slm_cs_enter_contention(cs, cached, current, owner, contended, tok);
  402710:	41 89 c0             	mov    r8d,eax
  402713:	48 89 da             	mov    rdx,rbx
  402716:	48 89 c6             	mov    rsi,rax
  402719:	bf c0 1e 5a 00       	mov    edi,0x5a1ec0
  40271e:	41 83 e0 01          	and    r8d,0x1
  402722:	e8 e9 10 01 00       	call   413810 <slm_cs_enter_contention>
			assert(ret != -EBUSY);
  402727:	83 f8 f0             	cmp    eax,0xfffffff0
  40272a:	0f 85 a7 fe ff ff    	jne    4025d7 <thd_block+0x227>
  402730:	e9 6b fe ff ff       	jmp    4025a0 <thd_block+0x1f0>
  402735:	0f 1f 00             	nop    DWORD PTR [rax]
  402738:	be 61 00 00 00       	mov    esi,0x61
  40273d:	bf 80 c9 41 00       	mov    edi,0x41c980
  402742:	e8 89 79 00 00       	call   40a0d0 <cos_print_str>
		assert(ret == -EAGAIN);
  402747:	c7 04 25 00 00 00 00 	mov    DWORD PTR ds:0x0,0x0
  40274e:	00 00 00 00 
  402752:	0f 0b                	ud2    
	ret = slm_thd_activate(curr, t, tok, 0);
  402754:	41 bd f0 ff ff ff    	mov    r13d,0xfffffff0
	return ret;
  40275a:	e9 ad fd ff ff       	jmp    40250c <thd_block+0x15c>
  40275f:	90                   	nop

0000000000402760 <sched_thd_block>:
{
  402760:	f3 0f 1e fa          	endbr64 
  402764:	55                   	push   rbp
  402765:	48 89 e5             	mov    rbp,rsp
  402768:	41 57                	push   r15
  40276a:	41 56                	push   r14
  40276c:	41 55                	push   r13
  40276e:	41 54                	push   r12
  402770:	53                   	push   rbx
  402771:	48 83 ec 08          	sub    rsp,0x8
	if (dep_id) return -1;
  402775:	48 85 ff             	test   rdi,rdi
  402778:	0f 85 0f 03 00 00    	jne    402a8d <sched_thd_block+0x32d>
	__asm__("mov %%rsp, %0;" : "=r"(curr_stk_pointer));
  40277e:	48 89 e0             	mov    rax,rsp
	return *(long *)((curr_stk_pointer & ~(COS_STACK_SZ - 1)) + COS_STACK_SZ - offset * sizeof(unsigned long));
  402781:	48 25 00 e0 ff ff    	and    rax,0xffffffffffffe000
  402787:	0f b7 80 f0 1f 00 00 	movzx  eax,WORD PTR [rax+0x1ff0]
SS_STATIC_SLAB(thd, struct slm_thd_container, MAX_NUM_THREADS);
  40278e:	48 85 c0             	test   rax,rax
  402791:	0f 84 89 01 00 00    	je     402920 <sched_thd_block+0x1c0>
  402797:	83 e8 01             	sub    eax,0x1
  40279a:	83 f8 18             	cmp    eax,0x18
  40279d:	0f 87 7d 01 00 00    	ja     402920 <sched_thd_block+0x1c0>
  4027a3:	48 8b 14 c5 00 e7 45 	mov    rdx,QWORD PTR [rax*8+0x45e700]
  4027aa:	00 
  4027ab:	48 f7 c2 fe ff ff ff 	test   rdx,0xfffffffffffffffe
  4027b2:	0f 84 68 01 00 00    	je     402920 <sched_thd_block+0x1c0>
  4027b8:	83 e2 01             	and    edx,0x1
  4027bb:	0f 85 5f 01 00 00    	jne    402920 <sched_thd_block+0x1c0>
  4027c1:	48 8d 14 80          	lea    rdx,[rax+rax*4]
  4027c5:	48 8d 1c 50          	lea    rbx,[rax+rdx*2]
  4027c9:	48 c1 e3 04          	shl    rbx,0x4
  4027cd:	48 81 c3 c8 e7 45 00 	add    rbx,0x45e7c8
		tok    = cos_sched_sync();
  4027d4:	e8 27 eb 00 00       	call   411300 <cos_sched_sync>
  4027d9:	41 89 c1             	mov    r9d,eax
	unsigned long oc = ps_load(&cs->owner_contention);
  4027dc:	48 8b 05 dd f6 19 00 	mov    rax,QWORD PTR [rip+0x19f6dd]        # 5a1ec0 <__slm_global>
		if (unlikely(owner)) {
  4027e3:	48 89 c1             	mov    rcx,rax
  4027e6:	48 83 e1 fe          	and    rcx,0xfffffffffffffffe
  4027ea:	0f 85 50 01 00 00    	jne    402940 <sched_thd_block+0x1e0>
  4027f0:	f0 48 0f b1 1d c7 f6 	lock cmpxchg QWORD PTR [rip+0x19f6c7],rbx        # 5a1ec0 <__slm_global>
  4027f7:	19 00 
  4027f9:	0f 94 c0             	sete   al
		if (likely(!__slm_cs_cas(cs, cached, current, 0))) return 0;
  4027fc:	84 c0                	test   al,al
  4027fe:	74 d4                	je     4027d4 <sched_thd_block+0x74>
        ret = slm_thd_block(current);
  402800:	48 89 df             	mov    rdi,rbx
  402803:	e8 b8 10 01 00       	call   4138c0 <slm_thd_block>
  402808:	41 89 c5             	mov    r13d,eax
	if (!ret) ret = slm_cs_exit_reschedule(current, SLM_CS_NONE);
  40280b:	85 c0                	test   eax,eax
  40280d:	0f 85 dd 00 00 00    	jne    4028f0 <sched_thd_block+0x190>
	struct cos_compinfo    *ci  = &cos_defcompinfo_curr_get()->ci;
  402813:	e8 48 90 00 00       	call   40b860 <cos_defcompinfo_curr_get>
	if (unlikely(!t)) t = &g->idle_thd;
  402818:	41 bf 40 1f 5a 00    	mov    r15d,0x5a1f40
	tok  = cos_sched_sync();
  40281e:	e8 dd ea 00 00       	call   411300 <cos_sched_sync>
  402823:	41 89 c6             	mov    r14d,eax
SLM_MODULES_COMPOSE_FNS(quantum, fprr, static_cm);
  402826:	e8 65 fc 00 00       	call   412490 <slm_sched_fprr_schedule>
	if (unlikely(!t)) t = &g->idle_thd;
  40282b:	48 85 c0             	test   rax,rax
  40282e:	49 89 c4             	mov    r12,rax
  402831:	4d 0f 44 e7          	cmove  r12,r15
{ return s == SLM_THD_RUNNABLE || s == SLM_THD_WOKEN; }
  402835:	41 8b 44 24 04       	mov    eax,DWORD PTR [r12+0x4]
  40283a:	83 e8 02             	sub    eax,0x2
	assert(slm_state_is_runnable(t->state));
  40283d:	83 f8 01             	cmp    eax,0x1
  402840:	76 1e                	jbe    402860 <sched_thd_block+0x100>
  402842:	e9 89 01 00 00       	jmp    4029d0 <sched_thd_block+0x270>
  402847:	66 0f 1f 84 00 00 00 	nop    WORD PTR [rax+rax*1+0x0]
  40284e:	00 00 
  402850:	f0 48 0f b1 15 67 f6 	lock cmpxchg QWORD PTR [rip+0x19f667],rdx        # 5a1ec0 <__slm_global>
  402857:	19 00 
  402859:	0f 94 c0             	sete   al
	while (ret != 0) {
  40285c:	84 c0                	test   al,al
  40285e:	75 2e                	jne    40288e <sched_thd_block+0x12e>
		tok    = cos_sched_sync();
  402860:	e8 9b ea 00 00       	call   411300 <cos_sched_sync>
  402865:	89 c1                	mov    ecx,eax
	unsigned long oc = ps_load(&cs->owner_contention);
  402867:	48 8b 05 52 f6 19 00 	mov    rax,QWORD PTR [rip+0x19f652]        # 5a1ec0 <__slm_global>
		if (unlikely(contention)) {
  40286e:	48 89 c2             	mov    rdx,rax
  402871:	83 e2 01             	and    edx,0x1
  402874:	74 da                	je     402850 <sched_thd_block+0xf0>
	*thd        = (struct slm_thd *)(oc & (~0UL << 1));
  402876:	48 89 c6             	mov    rsi,rax
			if (!slm_cs_exit_contention(cs, current, cached, tok)) return;
  402879:	48 89 c2             	mov    rdx,rax
  40287c:	bf c0 1e 5a 00       	mov    edi,0x5a1ec0
  402881:	48 83 e6 fe          	and    rsi,0xfffffffffffffffe
  402885:	e8 d6 0f 01 00       	call   413860 <slm_cs_exit_contention>
  40288a:	85 c0                	test   eax,eax
  40288c:	75 d2                	jne    402860 <sched_thd_block+0x100>
	struct cos_defcompinfo *dci = cos_defcompinfo_curr_get();
  40288e:	e8 cd 8f 00 00       	call   40b860 <cos_defcompinfo_curr_get>
	if (unlikely(t->properties & (SLM_THD_PROPERTY_SEND | SLM_THD_PROPERTY_OWN_TCAP | SLM_THD_PROPERTY_SPECIAL))) {
  402893:	41 8b 04 24          	mov    eax,DWORD PTR [r12]
	prio = inherit_prio ? curr->priority : t->priority;
  402897:	49 8b 74 24 30       	mov    rsi,QWORD PTR [r12+0x30]
	timeout = g->timeout_next;
  40289c:	4c 8b 05 25 f7 19 00 	mov    r8,QWORD PTR [rip+0x19f725]        # 5a1fc8 <__slm_global+0x108>
	if (unlikely(t->properties & (SLM_THD_PROPERTY_SEND | SLM_THD_PROPERTY_OWN_TCAP | SLM_THD_PROPERTY_SPECIAL))) {
  4028a3:	a8 0b                	test   al,0xb
  4028a5:	0f 85 41 01 00 00    	jne    4029ec <sched_thd_block+0x28c>
	ret = cos_defswitch(t->thd, prio, timeout, tok);
  4028ab:	49 8b 7c 24 10       	mov    rdi,QWORD PTR [r12+0x10]
  4028b0:	44 89 f1             	mov    ecx,r14d
  4028b3:	4c 89 c2             	mov    rdx,r8
  4028b6:	e8 a5 9e 00 00       	call   40c760 <cos_defswitch>
	if (unlikely(ret == -EPERM && !slm_thd_normal(t))) {
  4028bb:	83 f8 ff             	cmp    eax,0xffffffff
  4028be:	0f 84 97 01 00 00    	je     402a5b <sched_thd_block+0x2fb>
	if (unlikely(ret != 0)) {
  4028c4:	85 c0                	test   eax,eax
  4028c6:	0f 85 b0 00 00 00    	jne    40297c <sched_thd_block+0x21c>
}
  4028cc:	48 83 c4 08          	add    rsp,0x8
  4028d0:	44 89 e8             	mov    eax,r13d
  4028d3:	5b                   	pop    rbx
  4028d4:	41 5c                	pop    r12
  4028d6:	41 5d                	pop    r13
  4028d8:	41 5e                	pop    r14
  4028da:	41 5f                	pop    r15
  4028dc:	5d                   	pop    rbp
  4028dd:	c3                   	ret    
  4028de:	66 90                	xchg   ax,ax
  4028e0:	f0 48 0f b1 15 d7 f5 	lock cmpxchg QWORD PTR [rip+0x19f5d7],rdx        # 5a1ec0 <__slm_global>
  4028e7:	19 00 
  4028e9:	0f 94 c0             	sete   al
	while (ret != 0) {
  4028ec:	84 c0                	test   al,al
  4028ee:	75 dc                	jne    4028cc <sched_thd_block+0x16c>
		tok    = cos_sched_sync();
  4028f0:	e8 0b ea 00 00       	call   411300 <cos_sched_sync>
  4028f5:	89 c1                	mov    ecx,eax
	unsigned long oc = ps_load(&cs->owner_contention);
  4028f7:	48 8b 05 c2 f5 19 00 	mov    rax,QWORD PTR [rip+0x19f5c2]        # 5a1ec0 <__slm_global>
		if (unlikely(contention)) {
  4028fe:	48 89 c2             	mov    rdx,rax
  402901:	83 e2 01             	and    edx,0x1
  402904:	74 da                	je     4028e0 <sched_thd_block+0x180>
	*thd        = (struct slm_thd *)(oc & (~0UL << 1));
  402906:	48 89 c6             	mov    rsi,rax
			if (!slm_cs_exit_contention(cs, current, cached, tok)) return;
  402909:	48 89 c2             	mov    rdx,rax
  40290c:	bf c0 1e 5a 00       	mov    edi,0x5a1ec0
  402911:	48 83 e6 fe          	and    rsi,0xfffffffffffffffe
  402915:	e8 46 0f 01 00       	call   413860 <slm_cs_exit_contention>
  40291a:	85 c0                	test   eax,eax
  40291c:	74 ae                	je     4028cc <sched_thd_block+0x16c>
  40291e:	eb d0                	jmp    4028f0 <sched_thd_block+0x190>
  402920:	be 59 00 00 00       	mov    esi,0x59
  402925:	bf 60 c7 41 00       	mov    edi,0x41c760
  40292a:	e8 a1 77 00 00       	call   40a0d0 <cos_print_str>
	assert(current);
  40292f:	c7 04 25 00 00 00 00 	mov    DWORD PTR ds:0x0,0x0
  402936:	00 00 00 00 
  40293a:	0f 0b                	ud2    
  40293c:	0f 1f 40 00          	nop    DWORD PTR [rax+0x0]
			ret = slm_cs_enter_contention(cs, cached, current, owner, contended, tok);
  402940:	41 89 c0             	mov    r8d,eax
  402943:	48 89 da             	mov    rdx,rbx
  402946:	48 89 c6             	mov    rsi,rax
  402949:	bf c0 1e 5a 00       	mov    edi,0x5a1ec0
  40294e:	41 83 e0 01          	and    r8d,0x1
  402952:	e8 b9 0e 01 00       	call   413810 <slm_cs_enter_contention>
			assert(ret != -EBUSY);
  402957:	83 f8 f0             	cmp    eax,0xfffffff0
  40295a:	0f 85 74 fe ff ff    	jne    4027d4 <sched_thd_block+0x74>
  402960:	be 59 00 00 00       	mov    esi,0x59
  402965:	bf c0 c7 41 00       	mov    edi,0x41c7c0
  40296a:	e8 61 77 00 00       	call   40a0d0 <cos_print_str>
  40296f:	c7 04 25 00 00 00 00 	mov    DWORD PTR ds:0x0,0x0
  402976:	00 00 00 00 
  40297a:	0f 0b                	ud2    
		assert(ret != -EINVAL);
  40297c:	83 f8 ea             	cmp    eax,0xffffffea
  40297f:	0f 84 3a 01 00 00    	je     402abf <sched_thd_block+0x35f>
		if (ret == -EBUSY) return ret;
  402985:	83 f8 f0             	cmp    eax,0xfffffff0
  402988:	0f 84 8e 01 00 00    	je     402b1c <sched_thd_block+0x3bc>
		assert(ret == -EAGAIN);
  40298e:	83 f8 f5             	cmp    eax,0xfffffff5
  402991:	0f 85 69 01 00 00    	jne    402b00 <sched_thd_block+0x3a0>
		tok    = cos_sched_sync();
  402997:	e8 64 e9 00 00       	call   411300 <cos_sched_sync>
  40299c:	41 89 c1             	mov    r9d,eax
	unsigned long oc = ps_load(&cs->owner_contention);
  40299f:	48 8b 05 1a f5 19 00 	mov    rax,QWORD PTR [rip+0x19f51a]        # 5a1ec0 <__slm_global>
		if (unlikely(owner)) {
  4029a6:	48 89 c1             	mov    rcx,rax
  4029a9:	48 83 e1 fe          	and    rcx,0xfffffffffffffffe
  4029ad:	0f 85 28 01 00 00    	jne    402adb <sched_thd_block+0x37b>
  4029b3:	f0 48 0f b1 1d 04 f5 	lock cmpxchg QWORD PTR [rip+0x19f504],rbx        # 5a1ec0 <__slm_global>
  4029ba:	19 00 
  4029bc:	0f 94 c0             	sete   al
		if (likely(!__slm_cs_cas(cs, cached, current, 0))) return 0;
  4029bf:	84 c0                	test   al,al
  4029c1:	0f 85 57 fe ff ff    	jne    40281e <sched_thd_block+0xbe>
  4029c7:	eb ce                	jmp    402997 <sched_thd_block+0x237>
  4029c9:	0f 1f 80 00 00 00 00 	nop    DWORD PTR [rax+0x0]
  4029d0:	be 61 00 00 00       	mov    esi,0x61
  4029d5:	bf 48 c8 41 00       	mov    edi,0x41c848
  4029da:	e8 f1 76 00 00       	call   40a0d0 <cos_print_str>
	assert(slm_state_is_runnable(t->state));
  4029df:	c7 04 25 00 00 00 00 	mov    DWORD PTR ds:0x0,0x0
  4029e6:	00 00 00 00 
  4029ea:	0f 0b                	ud2    
	timeout = g->timeout_next;
  4029ec:	4c 89 c1             	mov    rcx,r8
		if (t == &g->sched_thd) {
  4029ef:	49 81 fc c8 1e 5a 00 	cmp    r12,0x5a1ec8
  4029f6:	0f 84 9c 00 00 00    	je     402a98 <sched_thd_block+0x338>
		if (t->properties & SLM_THD_PROPERTY_SEND) {
  4029fc:	a8 02                	test   al,0x2
  4029fe:	0f 85 9f 00 00 00    	jne    402aa3 <sched_thd_block+0x343>
		} else if (t->properties & SLM_THD_PROPERTY_OWN_TCAP) {
  402a04:	49 89 c8             	mov    r8,rcx
  402a07:	a8 01                	test   al,0x1
  402a09:	0f 84 9c fe ff ff    	je     4028ab <sched_thd_block+0x14b>
			return cos_switch(t->thd, t->tc, prio, timeout, g->sched_thd.rcv, tok);
  402a0f:	4d 8b 54 24 08       	mov    r10,QWORD PTR [r12+0x8]
  402a14:	49 8b 7c 24 10       	mov    rdi,QWORD PTR [r12+0x10]
  402a19:	48 89 f2             	mov    rdx,rsi
  402a1c:	45 89 f1             	mov    r9d,r14d
  402a1f:	4c 8b 05 c2 f4 19 00 	mov    r8,QWORD PTR [rip+0x19f4c2]        # 5a1ee8 <__slm_global+0x28>
  402a26:	4c 89 d6             	mov    rsi,r10
  402a29:	e8 f2 e8 00 00       	call   411320 <cos_switch>
	if (unlikely(ret != 0)) {
  402a2e:	85 c0                	test   eax,eax
  402a30:	0f 84 96 fe ff ff    	je     4028cc <sched_thd_block+0x16c>
		assert(ret != -EPERM);
  402a36:	83 f8 ff             	cmp    eax,0xffffffff
  402a39:	0f 85 3d ff ff ff    	jne    40297c <sched_thd_block+0x21c>
  402a3f:	be 61 00 00 00       	mov    esi,0x61
  402a44:	bf b0 c8 41 00       	mov    edi,0x41c8b0
  402a49:	e8 82 76 00 00       	call   40a0d0 <cos_print_str>
  402a4e:	c7 04 25 00 00 00 00 	mov    DWORD PTR ds:0x0,0x0
  402a55:	00 00 00 00 
  402a59:	0f 0b                	ud2    
	return t != &g->idle_thd && t != &g->sched_thd;
  402a5b:	49 81 fc 40 1f 5a 00 	cmp    r12,0x5a1f40
  402a62:	74 09                	je     402a6d <sched_thd_block+0x30d>
  402a64:	49 81 fc c8 1e 5a 00 	cmp    r12,0x5a1ec8
  402a6b:	75 d2                	jne    402a3f <sched_thd_block+0x2df>
		ret = cos_switch(g->sched_thd.thd, 0, curr->priority, TCAP_TIME_NIL, g->sched_thd.rcv, tok);
  402a6d:	48 8b 53 30          	mov    rdx,QWORD PTR [rbx+0x30]
  402a71:	4c 8b 05 70 f4 19 00 	mov    r8,QWORD PTR [rip+0x19f470]        # 5a1ee8 <__slm_global+0x28>
  402a78:	45 89 f1             	mov    r9d,r14d
  402a7b:	31 c9                	xor    ecx,ecx
  402a7d:	48 8b 3d 54 f4 19 00 	mov    rdi,QWORD PTR [rip+0x19f454]        # 5a1ed8 <__slm_global+0x18>
  402a84:	31 f6                	xor    esi,esi
  402a86:	e8 95 e8 00 00       	call   411320 <cos_switch>
  402a8b:	eb a1                	jmp    402a2e <sched_thd_block+0x2ce>
	if (dep_id) return -1;
  402a8d:	41 bd ff ff ff ff    	mov    r13d,0xffffffff
  402a93:	e9 34 fe ff ff       	jmp    4028cc <sched_thd_block+0x16c>
			prio    = curr->priority;
  402a98:	48 8b 73 30          	mov    rsi,QWORD PTR [rbx+0x30]
			timeout = TCAP_TIME_NIL;
  402a9c:	31 c9                	xor    ecx,ecx
  402a9e:	e9 59 ff ff ff       	jmp    4029fc <sched_thd_block+0x29c>
			return cos_sched_asnd(t->asnd, g->timeout_next, g->sched_thd.rcv, tok);
  402aa3:	49 8b 7c 24 28       	mov    rdi,QWORD PTR [r12+0x28]
  402aa8:	48 8b 15 39 f4 19 00 	mov    rdx,QWORD PTR [rip+0x19f439]        # 5a1ee8 <__slm_global+0x28>
  402aaf:	44 89 f1             	mov    ecx,r14d
  402ab2:	4c 89 c6             	mov    rsi,r8
  402ab5:	e8 d6 e8 00 00       	call   411390 <cos_sched_asnd>
  402aba:	e9 6f ff ff ff       	jmp    402a2e <sched_thd_block+0x2ce>
  402abf:	be 61 00 00 00       	mov    esi,0x61
  402ac4:	bf 18 c9 41 00       	mov    edi,0x41c918
  402ac9:	e8 02 76 00 00       	call   40a0d0 <cos_print_str>
		assert(ret != -EINVAL);
  402ace:	c7 04 25 00 00 00 00 	mov    DWORD PTR ds:0x0,0x0
  402ad5:	00 00 00 00 
  402ad9:	0f 0b                	ud2    
			ret = slm_cs_enter_contention(cs, cached, current, owner, contended, tok);
  402adb:	41 89 c0             	mov    r8d,eax
  402ade:	48 89 da             	mov    rdx,rbx
  402ae1:	48 89 c6             	mov    rsi,rax
  402ae4:	bf c0 1e 5a 00       	mov    edi,0x5a1ec0
  402ae9:	41 83 e0 01          	and    r8d,0x1
  402aed:	e8 1e 0d 01 00       	call   413810 <slm_cs_enter_contention>
			assert(ret != -EBUSY);
  402af2:	83 f8 f0             	cmp    eax,0xfffffff0
  402af5:	0f 85 9c fe ff ff    	jne    402997 <sched_thd_block+0x237>
  402afb:	e9 60 fe ff ff       	jmp    402960 <sched_thd_block+0x200>
  402b00:	be 61 00 00 00       	mov    esi,0x61
  402b05:	bf 80 c9 41 00       	mov    edi,0x41c980
  402b0a:	e8 c1 75 00 00       	call   40a0d0 <cos_print_str>
		assert(ret == -EAGAIN);
  402b0f:	c7 04 25 00 00 00 00 	mov    DWORD PTR ds:0x0,0x0
  402b16:	00 00 00 00 
  402b1a:	0f 0b                	ud2    
	ret = slm_thd_activate(curr, t, tok, 0);
  402b1c:	41 bd f0 ff ff ff    	mov    r13d,0xfffffff0
  402b22:	e9 a5 fd ff ff       	jmp    4028cc <sched_thd_block+0x16c>
  402b27:	66 0f 1f 84 00 00 00 	nop    WORD PTR [rax+rax*1+0x0]
  402b2e:	00 00 

0000000000402b30 <thd_wakeup>:
{
  402b30:	f3 0f 1e fa          	endbr64 
  402b34:	55                   	push   rbp
	__asm__("mov %%rsp, %0;" : "=r"(curr_stk_pointer));
  402b35:	48 89 e0             	mov    rax,rsp
	return *(long *)((curr_stk_pointer & ~(COS_STACK_SZ - 1)) + COS_STACK_SZ - offset * sizeof(unsigned long));
  402b38:	48 25 00 e0 ff ff    	and    rax,0xffffffffffffe000
  402b3e:	48 89 e5             	mov    rbp,rsp
  402b41:	41 57                	push   r15
  402b43:	41 56                	push   r14
  402b45:	41 55                	push   r13
  402b47:	41 54                	push   r12
  402b49:	53                   	push   rbx
  402b4a:	48 83 ec 08          	sub    rsp,0x8
  402b4e:	0f b7 80 f0 1f 00 00 	movzx  eax,WORD PTR [rax+0x1ff0]
SS_STATIC_SLAB(thd, struct slm_thd_container, MAX_NUM_THREADS);
  402b55:	48 85 c0             	test   rax,rax
  402b58:	0f 84 92 01 00 00    	je     402cf0 <thd_wakeup+0x1c0>
  402b5e:	83 e8 01             	sub    eax,0x1
  402b61:	83 f8 18             	cmp    eax,0x18
  402b64:	0f 87 86 01 00 00    	ja     402cf0 <thd_wakeup+0x1c0>
  402b6a:	48 8b 14 c5 00 e7 45 	mov    rdx,QWORD PTR [rax*8+0x45e700]
  402b71:	00 
  402b72:	48 f7 c2 fe ff ff ff 	test   rdx,0xfffffffffffffffe
  402b79:	0f 84 71 01 00 00    	je     402cf0 <thd_wakeup+0x1c0>
  402b7f:	83 e2 01             	and    edx,0x1
  402b82:	0f 85 68 01 00 00    	jne    402cf0 <thd_wakeup+0x1c0>
  402b88:	48 8d 14 80          	lea    rdx,[rax+rax*4]
  402b8c:	49 89 fd             	mov    r13,rdi
  402b8f:	4c 8d 24 50          	lea    r12,[rax+rdx*2]
  402b93:	49 c1 e4 04          	shl    r12,0x4
  402b97:	49 81 c4 c8 e7 45 00 	add    r12,0x45e7c8
		tok    = cos_sched_sync();
  402b9e:	e8 5d e7 00 00       	call   411300 <cos_sched_sync>
  402ba3:	41 89 c1             	mov    r9d,eax
	unsigned long oc = ps_load(&cs->owner_contention);
  402ba6:	48 8b 05 13 f3 19 00 	mov    rax,QWORD PTR [rip+0x19f313]        # 5a1ec0 <__slm_global>
		if (unlikely(owner)) {
  402bad:	48 89 c1             	mov    rcx,rax
  402bb0:	48 83 e1 fe          	and    rcx,0xfffffffffffffffe
  402bb4:	0f 85 56 01 00 00    	jne    402d10 <thd_wakeup+0x1e0>
  402bba:	f0 4c 0f b1 25 fd f2 	lock cmpxchg QWORD PTR [rip+0x19f2fd],r12        # 5a1ec0 <__slm_global>
  402bc1:	19 00 
  402bc3:	0f 94 c0             	sete   al
		if (likely(!__slm_cs_cas(cs, cached, current, 0))) return 0;
  402bc6:	84 c0                	test   al,al
  402bc8:	74 d4                	je     402b9e <thd_wakeup+0x6e>
	ret = slm_thd_wakeup(t, 0);
  402bca:	31 f6                	xor    esi,esi
  402bcc:	4c 89 ef             	mov    rdi,r13
  402bcf:	e8 5c 12 01 00       	call   413e30 <slm_thd_wakeup>
  402bd4:	41 89 c7             	mov    r15d,eax
	if (ret < 0) {
  402bd7:	85 c0                	test   eax,eax
  402bd9:	0f 88 e1 00 00 00    	js     402cc0 <thd_wakeup+0x190>
	struct cos_compinfo    *ci  = &cos_defcompinfo_curr_get()->ci;
  402bdf:	e8 7c 8c 00 00       	call   40b860 <cos_defcompinfo_curr_get>
	if (unlikely(!t)) t = &g->idle_thd;
  402be4:	41 be 40 1f 5a 00    	mov    r14d,0x5a1f40
	tok  = cos_sched_sync();
  402bea:	e8 11 e7 00 00       	call   411300 <cos_sched_sync>
  402bef:	41 89 c5             	mov    r13d,eax
SLM_MODULES_COMPOSE_FNS(quantum, fprr, static_cm);
  402bf2:	e8 99 f8 00 00       	call   412490 <slm_sched_fprr_schedule>
	if (unlikely(!t)) t = &g->idle_thd;
  402bf7:	48 85 c0             	test   rax,rax
  402bfa:	48 89 c3             	mov    rbx,rax
  402bfd:	49 0f 44 de          	cmove  rbx,r14
{ return s == SLM_THD_RUNNABLE || s == SLM_THD_WOKEN; }
  402c01:	8b 43 04             	mov    eax,DWORD PTR [rbx+0x4]
  402c04:	83 e8 02             	sub    eax,0x2
	assert(slm_state_is_runnable(t->state));
  402c07:	83 f8 01             	cmp    eax,0x1
  402c0a:	76 1c                	jbe    402c28 <thd_wakeup+0xf8>
  402c0c:	e9 3b 01 00 00       	jmp    402d4c <thd_wakeup+0x21c>
  402c11:	0f 1f 80 00 00 00 00 	nop    DWORD PTR [rax+0x0]
  402c18:	f0 48 0f b1 15 9f f2 	lock cmpxchg QWORD PTR [rip+0x19f29f],rdx        # 5a1ec0 <__slm_global>
  402c1f:	19 00 
  402c21:	0f 94 c0             	sete   al
	while (ret != 0) {
  402c24:	84 c0                	test   al,al
  402c26:	75 2e                	jne    402c56 <thd_wakeup+0x126>
		tok    = cos_sched_sync();
  402c28:	e8 d3 e6 00 00       	call   411300 <cos_sched_sync>
  402c2d:	89 c1                	mov    ecx,eax
	unsigned long oc = ps_load(&cs->owner_contention);
  402c2f:	48 8b 05 8a f2 19 00 	mov    rax,QWORD PTR [rip+0x19f28a]        # 5a1ec0 <__slm_global>
		if (unlikely(contention)) {
  402c36:	48 89 c2             	mov    rdx,rax
  402c39:	83 e2 01             	and    edx,0x1
  402c3c:	74 da                	je     402c18 <thd_wakeup+0xe8>
	*thd        = (struct slm_thd *)(oc & (~0UL << 1));
  402c3e:	48 89 c6             	mov    rsi,rax
			if (!slm_cs_exit_contention(cs, current, cached, tok)) return;
  402c41:	48 89 c2             	mov    rdx,rax
  402c44:	bf c0 1e 5a 00       	mov    edi,0x5a1ec0
  402c49:	48 83 e6 fe          	and    rsi,0xfffffffffffffffe
  402c4d:	e8 0e 0c 01 00       	call   413860 <slm_cs_exit_contention>
  402c52:	85 c0                	test   eax,eax
  402c54:	75 d2                	jne    402c28 <thd_wakeup+0xf8>
	struct cos_defcompinfo *dci = cos_defcompinfo_curr_get();
  402c56:	e8 05 8c 00 00       	call   40b860 <cos_defcompinfo_curr_get>
	if (unlikely(t->properties & (SLM_THD_PROPERTY_SEND | SLM_THD_PROPERTY_OWN_TCAP | SLM_THD_PROPERTY_SPECIAL))) {
  402c5b:	8b 03                	mov    eax,DWORD PTR [rbx]
	timeout = g->timeout_next;
  402c5d:	4c 8b 05 64 f3 19 00 	mov    r8,QWORD PTR [rip+0x19f364]        # 5a1fc8 <__slm_global+0x108>
	prio = inherit_prio ? curr->priority : t->priority;
  402c64:	48 8b 73 30          	mov    rsi,QWORD PTR [rbx+0x30]
	if (unlikely(t->properties & (SLM_THD_PROPERTY_SEND | SLM_THD_PROPERTY_OWN_TCAP | SLM_THD_PROPERTY_SPECIAL))) {
  402c68:	a8 0b                	test   al,0xb
  402c6a:	0f 85 f8 00 00 00    	jne    402d68 <thd_wakeup+0x238>
	ret = cos_defswitch(t->thd, prio, timeout, tok);
  402c70:	48 8b 7b 10          	mov    rdi,QWORD PTR [rbx+0x10]
  402c74:	44 89 e9             	mov    ecx,r13d
  402c77:	4c 89 c2             	mov    rdx,r8
  402c7a:	e8 e1 9a 00 00       	call   40c760 <cos_defswitch>
  402c7f:	41 89 c7             	mov    r15d,eax
	if (unlikely(ret == -EPERM && !slm_thd_normal(t))) {
  402c82:	83 f8 ff             	cmp    eax,0xffffffff
  402c85:	0f 84 85 01 00 00    	je     402e10 <thd_wakeup+0x2e0>
	if (unlikely(ret != 0)) {
  402c8b:	85 c0                	test   eax,eax
  402c8d:	0f 85 27 01 00 00    	jne    402dba <thd_wakeup+0x28a>
  402c93:	45 31 ff             	xor    r15d,r15d
}
  402c96:	48 83 c4 08          	add    rsp,0x8
  402c9a:	44 89 f8             	mov    eax,r15d
  402c9d:	5b                   	pop    rbx
  402c9e:	41 5c                	pop    r12
  402ca0:	41 5d                	pop    r13
  402ca2:	41 5e                	pop    r14
  402ca4:	41 5f                	pop    r15
  402ca6:	5d                   	pop    rbp
  402ca7:	c3                   	ret    
  402ca8:	0f 1f 84 00 00 00 00 	nop    DWORD PTR [rax+rax*1+0x0]
  402caf:	00 
  402cb0:	f0 48 0f b1 15 07 f2 	lock cmpxchg QWORD PTR [rip+0x19f207],rdx        # 5a1ec0 <__slm_global>
  402cb7:	19 00 
  402cb9:	0f 94 c0             	sete   al
	while (ret != 0) {
  402cbc:	84 c0                	test   al,al
  402cbe:	75 d6                	jne    402c96 <thd_wakeup+0x166>
		tok    = cos_sched_sync();
  402cc0:	e8 3b e6 00 00       	call   411300 <cos_sched_sync>
  402cc5:	89 c1                	mov    ecx,eax
	unsigned long oc = ps_load(&cs->owner_contention);
  402cc7:	48 8b 05 f2 f1 19 00 	mov    rax,QWORD PTR [rip+0x19f1f2]        # 5a1ec0 <__slm_global>
		if (unlikely(contention)) {
  402cce:	48 89 c2             	mov    rdx,rax
  402cd1:	83 e2 01             	and    edx,0x1
  402cd4:	74 da                	je     402cb0 <thd_wakeup+0x180>
	*thd        = (struct slm_thd *)(oc & (~0UL << 1));
  402cd6:	48 89 c6             	mov    rsi,rax
			if (!slm_cs_exit_contention(cs, current, cached, tok)) return;
  402cd9:	48 89 c2             	mov    rdx,rax
  402cdc:	bf c0 1e 5a 00       	mov    edi,0x5a1ec0
  402ce1:	48 83 e6 fe          	and    rsi,0xfffffffffffffffe
  402ce5:	e8 76 0b 01 00       	call   413860 <slm_cs_exit_contention>
  402cea:	85 c0                	test   eax,eax
  402cec:	74 a8                	je     402c96 <thd_wakeup+0x166>
  402cee:	eb d0                	jmp    402cc0 <thd_wakeup+0x190>
  402cf0:	be 59 00 00 00       	mov    esi,0x59
  402cf5:	bf 60 c7 41 00       	mov    edi,0x41c760
  402cfa:	e8 d1 73 00 00       	call   40a0d0 <cos_print_str>
	assert(current);
  402cff:	c7 04 25 00 00 00 00 	mov    DWORD PTR ds:0x0,0x0
  402d06:	00 00 00 00 
  402d0a:	0f 0b                	ud2    
  402d0c:	0f 1f 40 00          	nop    DWORD PTR [rax+0x0]
			ret = slm_cs_enter_contention(cs, cached, current, owner, contended, tok);
  402d10:	41 89 c0             	mov    r8d,eax
  402d13:	4c 89 e2             	mov    rdx,r12
  402d16:	48 89 c6             	mov    rsi,rax
  402d19:	bf c0 1e 5a 00       	mov    edi,0x5a1ec0
  402d1e:	41 83 e0 01          	and    r8d,0x1
  402d22:	e8 e9 0a 01 00       	call   413810 <slm_cs_enter_contention>
			assert(ret != -EBUSY);
  402d27:	83 f8 f0             	cmp    eax,0xfffffff0
  402d2a:	0f 85 6e fe ff ff    	jne    402b9e <thd_wakeup+0x6e>
  402d30:	be 59 00 00 00       	mov    esi,0x59
  402d35:	bf c0 c7 41 00       	mov    edi,0x41c7c0
  402d3a:	e8 91 73 00 00       	call   40a0d0 <cos_print_str>
  402d3f:	c7 04 25 00 00 00 00 	mov    DWORD PTR ds:0x0,0x0
  402d46:	00 00 00 00 
  402d4a:	0f 0b                	ud2    
  402d4c:	be 61 00 00 00       	mov    esi,0x61
  402d51:	bf 48 c8 41 00       	mov    edi,0x41c848
  402d56:	e8 75 73 00 00       	call   40a0d0 <cos_print_str>
	assert(slm_state_is_runnable(t->state));
  402d5b:	c7 04 25 00 00 00 00 	mov    DWORD PTR ds:0x0,0x0
  402d62:	00 00 00 00 
  402d66:	0f 0b                	ud2    
	timeout = g->timeout_next;
  402d68:	4c 89 c1             	mov    rcx,r8
		if (t == &g->sched_thd) {
  402d6b:	48 81 fb c8 1e 5a 00 	cmp    rbx,0x5a1ec8
  402d72:	0f 84 c6 00 00 00    	je     402e3e <thd_wakeup+0x30e>
		if (t->properties & SLM_THD_PROPERTY_SEND) {
  402d78:	a8 02                	test   al,0x2
  402d7a:	0f 85 f1 00 00 00    	jne    402e71 <thd_wakeup+0x341>
		} else if (t->properties & SLM_THD_PROPERTY_OWN_TCAP) {
  402d80:	49 89 c8             	mov    r8,rcx
  402d83:	a8 01                	test   al,0x1
  402d85:	0f 84 e5 fe ff ff    	je     402c70 <thd_wakeup+0x140>
			return cos_switch(t->thd, t->tc, prio, timeout, g->sched_thd.rcv, tok);
  402d8b:	4c 8b 53 08          	mov    r10,QWORD PTR [rbx+0x8]
  402d8f:	48 8b 7b 10          	mov    rdi,QWORD PTR [rbx+0x10]
  402d93:	48 89 f2             	mov    rdx,rsi
  402d96:	45 89 e9             	mov    r9d,r13d
  402d99:	4c 8b 05 48 f1 19 00 	mov    r8,QWORD PTR [rip+0x19f148]        # 5a1ee8 <__slm_global+0x28>
  402da0:	4c 89 d6             	mov    rsi,r10
  402da3:	e8 78 e5 00 00       	call   411320 <cos_switch>
  402da8:	41 89 c7             	mov    r15d,eax
	if (unlikely(ret != 0)) {
  402dab:	45 85 ff             	test   r15d,r15d
  402dae:	0f 84 df fe ff ff    	je     402c93 <thd_wakeup+0x163>
		assert(ret != -EPERM);
  402db4:	41 83 ff ff          	cmp    r15d,0xffffffff
  402db8:	74 68                	je     402e22 <thd_wakeup+0x2f2>
		assert(ret != -EINVAL);
  402dba:	41 83 ff ea          	cmp    r15d,0xffffffea
  402dbe:	0f 84 cb 00 00 00    	je     402e8f <thd_wakeup+0x35f>
		if (ret == -EBUSY) return ret;
  402dc4:	41 83 ff f0          	cmp    r15d,0xfffffff0
  402dc8:	0f 84 c8 fe ff ff    	je     402c96 <thd_wakeup+0x166>
		assert(ret == -EAGAIN);
  402dce:	41 83 ff f5          	cmp    r15d,0xfffffff5
  402dd2:	0f 85 f8 00 00 00    	jne    402ed0 <thd_wakeup+0x3a0>
		tok    = cos_sched_sync();
  402dd8:	e8 23 e5 00 00       	call   411300 <cos_sched_sync>
  402ddd:	41 89 c1             	mov    r9d,eax
	unsigned long oc = ps_load(&cs->owner_contention);
  402de0:	48 8b 05 d9 f0 19 00 	mov    rax,QWORD PTR [rip+0x19f0d9]        # 5a1ec0 <__slm_global>
		if (unlikely(owner)) {
  402de7:	48 89 c1             	mov    rcx,rax
  402dea:	48 83 e1 fe          	and    rcx,0xfffffffffffffffe
  402dee:	0f 85 b7 00 00 00    	jne    402eab <thd_wakeup+0x37b>
  402df4:	f0 4c 0f b1 25 c3 f0 	lock cmpxchg QWORD PTR [rip+0x19f0c3],r12        # 5a1ec0 <__slm_global>
  402dfb:	19 00 
  402dfd:	0f 94 c0             	sete   al
		if (likely(!__slm_cs_cas(cs, cached, current, 0))) return 0;
  402e00:	84 c0                	test   al,al
  402e02:	0f 85 e2 fd ff ff    	jne    402bea <thd_wakeup+0xba>
  402e08:	eb ce                	jmp    402dd8 <thd_wakeup+0x2a8>
  402e0a:	66 0f 1f 44 00 00    	nop    WORD PTR [rax+rax*1+0x0]
	return t != &g->idle_thd && t != &g->sched_thd;
  402e10:	48 81 fb 40 1f 5a 00 	cmp    rbx,0x5a1f40
  402e17:	74 31                	je     402e4a <thd_wakeup+0x31a>
  402e19:	48 81 fb c8 1e 5a 00 	cmp    rbx,0x5a1ec8
  402e20:	74 28                	je     402e4a <thd_wakeup+0x31a>
  402e22:	be 61 00 00 00       	mov    esi,0x61
  402e27:	bf b0 c8 41 00       	mov    edi,0x41c8b0
  402e2c:	e8 9f 72 00 00       	call   40a0d0 <cos_print_str>
		assert(ret != -EPERM);
  402e31:	c7 04 25 00 00 00 00 	mov    DWORD PTR ds:0x0,0x0
  402e38:	00 00 00 00 
  402e3c:	0f 0b                	ud2    
			prio    = curr->priority;
  402e3e:	49 8b 74 24 30       	mov    rsi,QWORD PTR [r12+0x30]
			timeout = TCAP_TIME_NIL;
  402e43:	31 c9                	xor    ecx,ecx
  402e45:	e9 2e ff ff ff       	jmp    402d78 <thd_wakeup+0x248>
		ret = cos_switch(g->sched_thd.thd, 0, curr->priority, TCAP_TIME_NIL, g->sched_thd.rcv, tok);
  402e4a:	49 8b 54 24 30       	mov    rdx,QWORD PTR [r12+0x30]
  402e4f:	4c 8b 05 92 f0 19 00 	mov    r8,QWORD PTR [rip+0x19f092]        # 5a1ee8 <__slm_global+0x28>
  402e56:	31 c9                	xor    ecx,ecx
  402e58:	31 f6                	xor    esi,esi
  402e5a:	48 8b 3d 77 f0 19 00 	mov    rdi,QWORD PTR [rip+0x19f077]        # 5a1ed8 <__slm_global+0x18>
  402e61:	45 89 e9             	mov    r9d,r13d
  402e64:	e8 b7 e4 00 00       	call   411320 <cos_switch>
  402e69:	41 89 c7             	mov    r15d,eax
  402e6c:	e9 3a ff ff ff       	jmp    402dab <thd_wakeup+0x27b>
			return cos_sched_asnd(t->asnd, g->timeout_next, g->sched_thd.rcv, tok);
  402e71:	48 8b 7b 28          	mov    rdi,QWORD PTR [rbx+0x28]
  402e75:	48 8b 15 6c f0 19 00 	mov    rdx,QWORD PTR [rip+0x19f06c]        # 5a1ee8 <__slm_global+0x28>
  402e7c:	44 89 e9             	mov    ecx,r13d
  402e7f:	4c 89 c6             	mov    rsi,r8
  402e82:	e8 09 e5 00 00       	call   411390 <cos_sched_asnd>
  402e87:	41 89 c7             	mov    r15d,eax
  402e8a:	e9 1c ff ff ff       	jmp    402dab <thd_wakeup+0x27b>
  402e8f:	be 61 00 00 00       	mov    esi,0x61
  402e94:	bf 18 c9 41 00       	mov    edi,0x41c918
  402e99:	e8 32 72 00 00       	call   40a0d0 <cos_print_str>
		assert(ret != -EINVAL);
  402e9e:	c7 04 25 00 00 00 00 	mov    DWORD PTR ds:0x0,0x0
  402ea5:	00 00 00 00 
  402ea9:	0f 0b                	ud2    
			ret = slm_cs_enter_contention(cs, cached, current, owner, contended, tok);
  402eab:	41 89 c0             	mov    r8d,eax
  402eae:	4c 89 e2             	mov    rdx,r12
  402eb1:	48 89 c6             	mov    rsi,rax
  402eb4:	bf c0 1e 5a 00       	mov    edi,0x5a1ec0
  402eb9:	41 83 e0 01          	and    r8d,0x1
  402ebd:	e8 4e 09 01 00       	call   413810 <slm_cs_enter_contention>
			assert(ret != -EBUSY);
  402ec2:	83 f8 f0             	cmp    eax,0xfffffff0
  402ec5:	0f 85 0d ff ff ff    	jne    402dd8 <thd_wakeup+0x2a8>
  402ecb:	e9 60 fe ff ff       	jmp    402d30 <thd_wakeup+0x200>
  402ed0:	be 61 00 00 00       	mov    esi,0x61
  402ed5:	bf 80 c9 41 00       	mov    edi,0x41c980
  402eda:	e8 f1 71 00 00       	call   40a0d0 <cos_print_str>
		assert(ret == -EAGAIN);
  402edf:	c7 04 25 00 00 00 00 	mov    DWORD PTR ds:0x0,0x0
  402ee6:	00 00 00 00 
  402eea:	0f 0b                	ud2    
  402eec:	0f 1f 40 00          	nop    DWORD PTR [rax+0x0]

0000000000402ef0 <sched_thd_wakeup>:
{
  402ef0:	f3 0f 1e fa          	endbr64 
  402ef4:	55                   	push   rbp
  402ef5:	48 89 e5             	mov    rbp,rsp
  402ef8:	41 57                	push   r15
  402efa:	41 56                	push   r14
  402efc:	41 55                	push   r13
  402efe:	41 54                	push   r12
  402f00:	53                   	push   rbx
  402f01:	48 83 ec 08          	sub    rsp,0x8
SS_STATIC_SLAB(thd, struct slm_thd_container, MAX_NUM_THREADS);
  402f05:	85 ff                	test   edi,edi
  402f07:	74 1b                	je     402f24 <sched_thd_wakeup+0x34>
  402f09:	83 ef 01             	sub    edi,0x1
  402f0c:	83 ff 18             	cmp    edi,0x18
  402f0f:	77 13                	ja     402f24 <sched_thd_wakeup+0x34>
  402f11:	89 f8                	mov    eax,edi
  402f13:	48 8b 14 c5 00 e7 45 	mov    rdx,QWORD PTR [rax*8+0x45e700]
  402f1a:	00 
  402f1b:	48 f7 c2 fe ff ff ff 	test   rdx,0xfffffffffffffffe
  402f22:	75 1c                	jne    402f40 <sched_thd_wakeup+0x50>
	if (!t) return -1;
  402f24:	41 bf ff ff ff ff    	mov    r15d,0xffffffff
}
  402f2a:	48 83 c4 08          	add    rsp,0x8
  402f2e:	44 89 f8             	mov    eax,r15d
  402f31:	5b                   	pop    rbx
  402f32:	41 5c                	pop    r12
  402f34:	41 5d                	pop    r13
  402f36:	41 5e                	pop    r14
  402f38:	41 5f                	pop    r15
  402f3a:	5d                   	pop    rbp
  402f3b:	c3                   	ret    
  402f3c:	0f 1f 40 00          	nop    DWORD PTR [rax+0x0]
  402f40:	83 e2 01             	and    edx,0x1
  402f43:	75 df                	jne    402f24 <sched_thd_wakeup+0x34>
	return &ss_thd_get(id)->thd;
  402f45:	48 8d 14 80          	lea    rdx,[rax+rax*4]
  402f49:	4c 8d 2c 50          	lea    r13,[rax+rdx*2]
	__asm__("mov %%rsp, %0;" : "=r"(curr_stk_pointer));
  402f4d:	48 89 e0             	mov    rax,rsp
	return *(long *)((curr_stk_pointer & ~(COS_STACK_SZ - 1)) + COS_STACK_SZ - offset * sizeof(unsigned long));
  402f50:	48 25 00 e0 ff ff    	and    rax,0xffffffffffffe000
  402f56:	49 c1 e5 04          	shl    r13,0x4
  402f5a:	0f b7 80 f0 1f 00 00 	movzx  eax,WORD PTR [rax+0x1ff0]
  402f61:	49 81 c5 c8 e7 45 00 	add    r13,0x45e7c8
SS_STATIC_SLAB(thd, struct slm_thd_container, MAX_NUM_THREADS);
  402f68:	48 85 c0             	test   rax,rax
  402f6b:	74 19                	je     402f86 <sched_thd_wakeup+0x96>
  402f6d:	83 e8 01             	sub    eax,0x1
  402f70:	83 f8 18             	cmp    eax,0x18
  402f73:	77 11                	ja     402f86 <sched_thd_wakeup+0x96>
  402f75:	48 8b 14 c5 00 e7 45 	mov    rdx,QWORD PTR [rax*8+0x45e700]
  402f7c:	00 
  402f7d:	48 f7 c2 fe ff ff ff 	test   rdx,0xfffffffffffffffe
  402f84:	75 22                	jne    402fa8 <sched_thd_wakeup+0xb8>
  402f86:	be 59 00 00 00       	mov    esi,0x59
  402f8b:	bf 60 c7 41 00       	mov    edi,0x41c760
  402f90:	e8 3b 71 00 00       	call   40a0d0 <cos_print_str>
	assert(current);
  402f95:	c7 04 25 00 00 00 00 	mov    DWORD PTR ds:0x0,0x0
  402f9c:	00 00 00 00 
  402fa0:	0f 0b                	ud2    
  402fa2:	66 0f 1f 44 00 00    	nop    WORD PTR [rax+rax*1+0x0]
  402fa8:	83 e2 01             	and    edx,0x1
  402fab:	75 d9                	jne    402f86 <sched_thd_wakeup+0x96>
  402fad:	48 8d 14 80          	lea    rdx,[rax+rax*4]
  402fb1:	4c 8d 24 50          	lea    r12,[rax+rdx*2]
  402fb5:	49 c1 e4 04          	shl    r12,0x4
  402fb9:	49 81 c4 c8 e7 45 00 	add    r12,0x45e7c8
		tok    = cos_sched_sync();
  402fc0:	e8 3b e3 00 00       	call   411300 <cos_sched_sync>
  402fc5:	41 89 c1             	mov    r9d,eax
	unsigned long oc = ps_load(&cs->owner_contention);
  402fc8:	48 8b 05 f1 ee 19 00 	mov    rax,QWORD PTR [rip+0x19eef1]        # 5a1ec0 <__slm_global>
		if (unlikely(owner)) {
  402fcf:	48 89 c1             	mov    rcx,rax
  402fd2:	48 83 e1 fe          	and    rcx,0xfffffffffffffffe
  402fd6:	0f 85 34 01 00 00    	jne    403110 <sched_thd_wakeup+0x220>
  402fdc:	f0 4c 0f b1 25 db ee 	lock cmpxchg QWORD PTR [rip+0x19eedb],r12        # 5a1ec0 <__slm_global>
  402fe3:	19 00 
  402fe5:	0f 94 c0             	sete   al
		if (likely(!__slm_cs_cas(cs, cached, current, 0))) return 0;
  402fe8:	84 c0                	test   al,al
  402fea:	74 d4                	je     402fc0 <sched_thd_wakeup+0xd0>
	ret = slm_thd_wakeup(t, 0);
  402fec:	31 f6                	xor    esi,esi
  402fee:	4c 89 ef             	mov    rdi,r13
  402ff1:	e8 3a 0e 01 00       	call   413e30 <slm_thd_wakeup>
  402ff6:	41 89 c7             	mov    r15d,eax
	if (ret < 0) {
  402ff9:	85 c0                	test   eax,eax
  402ffb:	0f 88 d3 00 00 00    	js     4030d4 <sched_thd_wakeup+0x1e4>
	struct cos_compinfo    *ci  = &cos_defcompinfo_curr_get()->ci;
  403001:	e8 5a 88 00 00       	call   40b860 <cos_defcompinfo_curr_get>
	if (unlikely(!t)) t = &g->idle_thd;
  403006:	41 be 40 1f 5a 00    	mov    r14d,0x5a1f40
	tok  = cos_sched_sync();
  40300c:	e8 ef e2 00 00       	call   411300 <cos_sched_sync>
  403011:	41 89 c5             	mov    r13d,eax
SLM_MODULES_COMPOSE_FNS(quantum, fprr, static_cm);
  403014:	e8 77 f4 00 00       	call   412490 <slm_sched_fprr_schedule>
	if (unlikely(!t)) t = &g->idle_thd;
  403019:	48 85 c0             	test   rax,rax
  40301c:	48 89 c3             	mov    rbx,rax
  40301f:	49 0f 44 de          	cmove  rbx,r14
{ return s == SLM_THD_RUNNABLE || s == SLM_THD_WOKEN; }
  403023:	8b 43 04             	mov    eax,DWORD PTR [rbx+0x4]
  403026:	83 e8 02             	sub    eax,0x2
	assert(slm_state_is_runnable(t->state));
  403029:	83 f8 01             	cmp    eax,0x1
  40302c:	76 1a                	jbe    403048 <sched_thd_wakeup+0x158>
  40302e:	e9 19 01 00 00       	jmp    40314c <sched_thd_wakeup+0x25c>
  403033:	0f 1f 44 00 00       	nop    DWORD PTR [rax+rax*1+0x0]
  403038:	f0 48 0f b1 15 7f ee 	lock cmpxchg QWORD PTR [rip+0x19ee7f],rdx        # 5a1ec0 <__slm_global>
  40303f:	19 00 
  403041:	0f 94 c0             	sete   al
	while (ret != 0) {
  403044:	84 c0                	test   al,al
  403046:	75 2e                	jne    403076 <sched_thd_wakeup+0x186>
		tok    = cos_sched_sync();
  403048:	e8 b3 e2 00 00       	call   411300 <cos_sched_sync>
  40304d:	89 c1                	mov    ecx,eax
	unsigned long oc = ps_load(&cs->owner_contention);
  40304f:	48 8b 05 6a ee 19 00 	mov    rax,QWORD PTR [rip+0x19ee6a]        # 5a1ec0 <__slm_global>
		if (unlikely(contention)) {
  403056:	48 89 c2             	mov    rdx,rax
  403059:	83 e2 01             	and    edx,0x1
  40305c:	74 da                	je     403038 <sched_thd_wakeup+0x148>
	*thd        = (struct slm_thd *)(oc & (~0UL << 1));
  40305e:	48 89 c6             	mov    rsi,rax
			if (!slm_cs_exit_contention(cs, current, cached, tok)) return;
  403061:	48 89 c2             	mov    rdx,rax
  403064:	bf c0 1e 5a 00       	mov    edi,0x5a1ec0
  403069:	48 83 e6 fe          	and    rsi,0xfffffffffffffffe
  40306d:	e8 ee 07 01 00       	call   413860 <slm_cs_exit_contention>
  403072:	85 c0                	test   eax,eax
  403074:	75 d2                	jne    403048 <sched_thd_wakeup+0x158>
	struct cos_defcompinfo *dci = cos_defcompinfo_curr_get();
  403076:	e8 e5 87 00 00       	call   40b860 <cos_defcompinfo_curr_get>
	if (unlikely(t->properties & (SLM_THD_PROPERTY_SEND | SLM_THD_PROPERTY_OWN_TCAP | SLM_THD_PROPERTY_SPECIAL))) {
  40307b:	8b 03                	mov    eax,DWORD PTR [rbx]
	timeout = g->timeout_next;
  40307d:	4c 8b 05 44 ef 19 00 	mov    r8,QWORD PTR [rip+0x19ef44]        # 5a1fc8 <__slm_global+0x108>
	prio = inherit_prio ? curr->priority : t->priority;
  403084:	48 8b 73 30          	mov    rsi,QWORD PTR [rbx+0x30]
	if (unlikely(t->properties & (SLM_THD_PROPERTY_SEND | SLM_THD_PROPERTY_OWN_TCAP | SLM_THD_PROPERTY_SPECIAL))) {
  403088:	a8 0b                	test   al,0xb
  40308a:	0f 85 d8 00 00 00    	jne    403168 <sched_thd_wakeup+0x278>
	ret = cos_defswitch(t->thd, prio, timeout, tok);
  403090:	48 8b 7b 10          	mov    rdi,QWORD PTR [rbx+0x10]
  403094:	44 89 e9             	mov    ecx,r13d
  403097:	4c 89 c2             	mov    rdx,r8
  40309a:	e8 c1 96 00 00       	call   40c760 <cos_defswitch>
  40309f:	41 89 c7             	mov    r15d,eax
	if (unlikely(ret == -EPERM && !slm_thd_normal(t))) {
  4030a2:	83 f8 ff             	cmp    eax,0xffffffff
  4030a5:	0f 84 65 01 00 00    	je     403210 <sched_thd_wakeup+0x320>
	if (unlikely(ret != 0)) {
  4030ab:	85 c0                	test   eax,eax
  4030ad:	0f 85 07 01 00 00    	jne    4031ba <sched_thd_wakeup+0x2ca>
	if (!t) return -1;
  4030b3:	45 31 ff             	xor    r15d,r15d
  4030b6:	e9 6f fe ff ff       	jmp    402f2a <sched_thd_wakeup+0x3a>
  4030bb:	0f 1f 44 00 00       	nop    DWORD PTR [rax+rax*1+0x0]
  4030c0:	f0 48 0f b1 15 f7 ed 	lock cmpxchg QWORD PTR [rip+0x19edf7],rdx        # 5a1ec0 <__slm_global>
  4030c7:	19 00 
  4030c9:	0f 94 c0             	sete   al
	while (ret != 0) {
  4030cc:	84 c0                	test   al,al
  4030ce:	0f 85 56 fe ff ff    	jne    402f2a <sched_thd_wakeup+0x3a>
		tok    = cos_sched_sync();
  4030d4:	e8 27 e2 00 00       	call   411300 <cos_sched_sync>
  4030d9:	89 c1                	mov    ecx,eax
	unsigned long oc = ps_load(&cs->owner_contention);
  4030db:	48 8b 05 de ed 19 00 	mov    rax,QWORD PTR [rip+0x19edde]        # 5a1ec0 <__slm_global>
		if (unlikely(contention)) {
  4030e2:	48 89 c2             	mov    rdx,rax
  4030e5:	83 e2 01             	and    edx,0x1
  4030e8:	74 d6                	je     4030c0 <sched_thd_wakeup+0x1d0>
	*thd        = (struct slm_thd *)(oc & (~0UL << 1));
  4030ea:	48 89 c6             	mov    rsi,rax
			if (!slm_cs_exit_contention(cs, current, cached, tok)) return;
  4030ed:	48 89 c2             	mov    rdx,rax
  4030f0:	bf c0 1e 5a 00       	mov    edi,0x5a1ec0
  4030f5:	48 83 e6 fe          	and    rsi,0xfffffffffffffffe
  4030f9:	e8 62 07 01 00       	call   413860 <slm_cs_exit_contention>
  4030fe:	85 c0                	test   eax,eax
  403100:	0f 84 24 fe ff ff    	je     402f2a <sched_thd_wakeup+0x3a>
  403106:	eb cc                	jmp    4030d4 <sched_thd_wakeup+0x1e4>
  403108:	0f 1f 84 00 00 00 00 	nop    DWORD PTR [rax+rax*1+0x0]
  40310f:	00 
			ret = slm_cs_enter_contention(cs, cached, current, owner, contended, tok);
  403110:	41 89 c0             	mov    r8d,eax
  403113:	4c 89 e2             	mov    rdx,r12
  403116:	48 89 c6             	mov    rsi,rax
  403119:	bf c0 1e 5a 00       	mov    edi,0x5a1ec0
  40311e:	41 83 e0 01          	and    r8d,0x1
  403122:	e8 e9 06 01 00       	call   413810 <slm_cs_enter_contention>
			assert(ret != -EBUSY);
  403127:	83 f8 f0             	cmp    eax,0xfffffff0
  40312a:	0f 85 90 fe ff ff    	jne    402fc0 <sched_thd_wakeup+0xd0>
  403130:	be 59 00 00 00       	mov    esi,0x59
  403135:	bf c0 c7 41 00       	mov    edi,0x41c7c0
  40313a:	e8 91 6f 00 00       	call   40a0d0 <cos_print_str>
  40313f:	c7 04 25 00 00 00 00 	mov    DWORD PTR ds:0x0,0x0
  403146:	00 00 00 00 
  40314a:	0f 0b                	ud2    
  40314c:	be 61 00 00 00       	mov    esi,0x61
  403151:	bf 48 c8 41 00       	mov    edi,0x41c848
  403156:	e8 75 6f 00 00       	call   40a0d0 <cos_print_str>
	assert(slm_state_is_runnable(t->state));
  40315b:	c7 04 25 00 00 00 00 	mov    DWORD PTR ds:0x0,0x0
  403162:	00 00 00 00 
  403166:	0f 0b                	ud2    
	timeout = g->timeout_next;
  403168:	4c 89 c1             	mov    rcx,r8
		if (t == &g->sched_thd) {
  40316b:	48 81 fb c8 1e 5a 00 	cmp    rbx,0x5a1ec8
  403172:	0f 84 c6 00 00 00    	je     40323e <sched_thd_wakeup+0x34e>
		if (t->properties & SLM_THD_PROPERTY_SEND) {
  403178:	a8 02                	test   al,0x2
  40317a:	0f 85 f1 00 00 00    	jne    403271 <sched_thd_wakeup+0x381>
		} else if (t->properties & SLM_THD_PROPERTY_OWN_TCAP) {
  403180:	49 89 c8             	mov    r8,rcx
  403183:	a8 01                	test   al,0x1
  403185:	0f 84 05 ff ff ff    	je     403090 <sched_thd_wakeup+0x1a0>
			return cos_switch(t->thd, t->tc, prio, timeout, g->sched_thd.rcv, tok);
  40318b:	4c 8b 53 08          	mov    r10,QWORD PTR [rbx+0x8]
  40318f:	48 8b 7b 10          	mov    rdi,QWORD PTR [rbx+0x10]
  403193:	48 89 f2             	mov    rdx,rsi
  403196:	45 89 e9             	mov    r9d,r13d
  403199:	4c 8b 05 48 ed 19 00 	mov    r8,QWORD PTR [rip+0x19ed48]        # 5a1ee8 <__slm_global+0x28>
  4031a0:	4c 89 d6             	mov    rsi,r10
  4031a3:	e8 78 e1 00 00       	call   411320 <cos_switch>
  4031a8:	41 89 c7             	mov    r15d,eax
	if (unlikely(ret != 0)) {
  4031ab:	45 85 ff             	test   r15d,r15d
  4031ae:	0f 84 ff fe ff ff    	je     4030b3 <sched_thd_wakeup+0x1c3>
		assert(ret != -EPERM);
  4031b4:	41 83 ff ff          	cmp    r15d,0xffffffff
  4031b8:	74 68                	je     403222 <sched_thd_wakeup+0x332>
		assert(ret != -EINVAL);
  4031ba:	41 83 ff ea          	cmp    r15d,0xffffffea
  4031be:	0f 84 cb 00 00 00    	je     40328f <sched_thd_wakeup+0x39f>
		if (ret == -EBUSY) return ret;
  4031c4:	41 83 ff f0          	cmp    r15d,0xfffffff0
  4031c8:	0f 84 5c fd ff ff    	je     402f2a <sched_thd_wakeup+0x3a>
		assert(ret == -EAGAIN);
  4031ce:	41 83 ff f5          	cmp    r15d,0xfffffff5
  4031d2:	0f 85 f8 00 00 00    	jne    4032d0 <sched_thd_wakeup+0x3e0>
		tok    = cos_sched_sync();
  4031d8:	e8 23 e1 00 00       	call   411300 <cos_sched_sync>
  4031dd:	41 89 c1             	mov    r9d,eax
	unsigned long oc = ps_load(&cs->owner_contention);
  4031e0:	48 8b 05 d9 ec 19 00 	mov    rax,QWORD PTR [rip+0x19ecd9]        # 5a1ec0 <__slm_global>
		if (unlikely(owner)) {
  4031e7:	48 89 c1             	mov    rcx,rax
  4031ea:	48 83 e1 fe          	and    rcx,0xfffffffffffffffe
  4031ee:	0f 85 b7 00 00 00    	jne    4032ab <sched_thd_wakeup+0x3bb>
  4031f4:	f0 4c 0f b1 25 c3 ec 	lock cmpxchg QWORD PTR [rip+0x19ecc3],r12        # 5a1ec0 <__slm_global>
  4031fb:	19 00 
  4031fd:	0f 94 c0             	sete   al
		if (likely(!__slm_cs_cas(cs, cached, current, 0))) return 0;
  403200:	84 c0                	test   al,al
  403202:	0f 85 04 fe ff ff    	jne    40300c <sched_thd_wakeup+0x11c>
  403208:	eb ce                	jmp    4031d8 <sched_thd_wakeup+0x2e8>
  40320a:	66 0f 1f 44 00 00    	nop    WORD PTR [rax+rax*1+0x0]
	return t != &g->idle_thd && t != &g->sched_thd;
  403210:	48 81 fb 40 1f 5a 00 	cmp    rbx,0x5a1f40
  403217:	74 31                	je     40324a <sched_thd_wakeup+0x35a>
  403219:	48 81 fb c8 1e 5a 00 	cmp    rbx,0x5a1ec8
  403220:	74 28                	je     40324a <sched_thd_wakeup+0x35a>
  403222:	be 61 00 00 00       	mov    esi,0x61
  403227:	bf b0 c8 41 00       	mov    edi,0x41c8b0
  40322c:	e8 9f 6e 00 00       	call   40a0d0 <cos_print_str>
		assert(ret != -EPERM);
  403231:	c7 04 25 00 00 00 00 	mov    DWORD PTR ds:0x0,0x0
  403238:	00 00 00 00 
  40323c:	0f 0b                	ud2    
			prio    = curr->priority;
  40323e:	49 8b 74 24 30       	mov    rsi,QWORD PTR [r12+0x30]
			timeout = TCAP_TIME_NIL;
  403243:	31 c9                	xor    ecx,ecx
  403245:	e9 2e ff ff ff       	jmp    403178 <sched_thd_wakeup+0x288>
		ret = cos_switch(g->sched_thd.thd, 0, curr->priority, TCAP_TIME_NIL, g->sched_thd.rcv, tok);
  40324a:	49 8b 54 24 30       	mov    rdx,QWORD PTR [r12+0x30]
  40324f:	4c 8b 05 92 ec 19 00 	mov    r8,QWORD PTR [rip+0x19ec92]        # 5a1ee8 <__slm_global+0x28>
  403256:	31 c9                	xor    ecx,ecx
  403258:	31 f6                	xor    esi,esi
  40325a:	48 8b 3d 77 ec 19 00 	mov    rdi,QWORD PTR [rip+0x19ec77]        # 5a1ed8 <__slm_global+0x18>
  403261:	45 89 e9             	mov    r9d,r13d
  403264:	e8 b7 e0 00 00       	call   411320 <cos_switch>
  403269:	41 89 c7             	mov    r15d,eax
  40326c:	e9 3a ff ff ff       	jmp    4031ab <sched_thd_wakeup+0x2bb>
			return cos_sched_asnd(t->asnd, g->timeout_next, g->sched_thd.rcv, tok);
  403271:	48 8b 7b 28          	mov    rdi,QWORD PTR [rbx+0x28]
  403275:	48 8b 15 6c ec 19 00 	mov    rdx,QWORD PTR [rip+0x19ec6c]        # 5a1ee8 <__slm_global+0x28>
  40327c:	44 89 e9             	mov    ecx,r13d
  40327f:	4c 89 c6             	mov    rsi,r8
  403282:	e8 09 e1 00 00       	call   411390 <cos_sched_asnd>
  403287:	41 89 c7             	mov    r15d,eax
  40328a:	e9 1c ff ff ff       	jmp    4031ab <sched_thd_wakeup+0x2bb>
  40328f:	be 61 00 00 00       	mov    esi,0x61
  403294:	bf 18 c9 41 00       	mov    edi,0x41c918
  403299:	e8 32 6e 00 00       	call   40a0d0 <cos_print_str>
		assert(ret != -EINVAL);
  40329e:	c7 04 25 00 00 00 00 	mov    DWORD PTR ds:0x0,0x0
  4032a5:	00 00 00 00 
  4032a9:	0f 0b                	ud2    
			ret = slm_cs_enter_contention(cs, cached, current, owner, contended, tok);
  4032ab:	41 89 c0             	mov    r8d,eax
  4032ae:	4c 89 e2             	mov    rdx,r12
  4032b1:	48 89 c6             	mov    rsi,rax
  4032b4:	bf c0 1e 5a 00       	mov    edi,0x5a1ec0
  4032b9:	41 83 e0 01          	and    r8d,0x1
  4032bd:	e8 4e 05 01 00       	call   413810 <slm_cs_enter_contention>
			assert(ret != -EBUSY);
  4032c2:	83 f8 f0             	cmp    eax,0xfffffff0
  4032c5:	0f 85 0d ff ff ff    	jne    4031d8 <sched_thd_wakeup+0x2e8>
  4032cb:	e9 60 fe ff ff       	jmp    403130 <sched_thd_wakeup+0x240>
  4032d0:	be 61 00 00 00       	mov    esi,0x61
  4032d5:	bf 80 c9 41 00       	mov    edi,0x41c980
  4032da:	e8 f1 6d 00 00       	call   40a0d0 <cos_print_str>
		assert(ret == -EAGAIN);
  4032df:	c7 04 25 00 00 00 00 	mov    DWORD PTR ds:0x0,0x0
  4032e6:	00 00 00 00 
  4032ea:	0f 0b                	ud2    
  4032ec:	0f 1f 40 00          	nop    DWORD PTR [rax+0x0]

00000000004032f0 <sched_debug_thd_state>:
{
  4032f0:	f3 0f 1e fa          	endbr64 
SS_STATIC_SLAB(thd, struct slm_thd_container, MAX_NUM_THREADS);
  4032f4:	85 ff                	test   edi,edi
  4032f6:	0f 84 6e 1b 01 00    	je     414e6a <sched_debug_thd_state.cold>
  4032fc:	83 ef 01             	sub    edi,0x1
  4032ff:	83 ff 18             	cmp    edi,0x18
  403302:	0f 87 62 1b 01 00    	ja     414e6a <sched_debug_thd_state.cold>
  403308:	48 8b 04 fd 00 e7 45 	mov    rax,QWORD PTR [rdi*8+0x45e700]
  40330f:	00 
  403310:	48 a9 fe ff ff ff    	test   rax,0xfffffffffffffffe
  403316:	0f 84 4e 1b 01 00    	je     414e6a <sched_debug_thd_state.cold>
  40331c:	a8 01                	test   al,0x1
  40331e:	0f 85 46 1b 01 00    	jne    414e6a <sched_debug_thd_state.cold>
	return t->state;
  403324:	48 8d 04 bf          	lea    rax,[rdi+rdi*4]
  403328:	48 8d 04 47          	lea    rax,[rdi+rax*2]
  40332c:	48 c1 e0 04          	shl    rax,0x4
  403330:	8b 80 cc e7 45 00    	mov    eax,DWORD PTR [rax+0x45e7cc]
}
  403336:	c3                   	ret    
  403337:	66 0f 1f 84 00 00 00 	nop    WORD PTR [rax+rax*1+0x0]
  40333e:	00 00 

0000000000403340 <sched_thd_block_timeout>:
{
  403340:	f3 0f 1e fa          	endbr64 
	if (dep_id) return 0;
  403344:	48 85 ff             	test   rdi,rdi
  403347:	74 07                	je     403350 <sched_thd_block_timeout+0x10>
  403349:	31 c0                	xor    eax,eax
}
  40334b:	c3                   	ret    
  40334c:	0f 1f 40 00          	nop    DWORD PTR [rax+0x0]
{
  403350:	55                   	push   rbp
	__asm__("mov %%rsp, %0;" : "=r"(curr_stk_pointer));
  403351:	48 89 e0             	mov    rax,rsp
	return *(long *)((curr_stk_pointer & ~(COS_STACK_SZ - 1)) + COS_STACK_SZ - offset * sizeof(unsigned long));
  403354:	48 25 00 e0 ff ff    	and    rax,0xffffffffffffe000
  40335a:	48 89 e5             	mov    rbp,rsp
  40335d:	41 57                	push   r15
  40335f:	41 56                	push   r14
  403361:	41 55                	push   r13
  403363:	49 89 f5             	mov    r13,rsi
  403366:	41 54                	push   r12
  403368:	53                   	push   rbx
  403369:	48 83 ec 08          	sub    rsp,0x8
  40336d:	0f b7 80 f0 1f 00 00 	movzx  eax,WORD PTR [rax+0x1ff0]
SS_STATIC_SLAB(thd, struct slm_thd_container, MAX_NUM_THREADS);
  403374:	48 85 c0             	test   rax,rax
  403377:	0f 84 bb 01 00 00    	je     403538 <sched_thd_block_timeout+0x1f8>
  40337d:	83 e8 01             	sub    eax,0x1
  403380:	83 f8 18             	cmp    eax,0x18
  403383:	0f 87 af 01 00 00    	ja     403538 <sched_thd_block_timeout+0x1f8>
  403389:	48 8b 14 c5 00 e7 45 	mov    rdx,QWORD PTR [rax*8+0x45e700]
  403390:	00 
  403391:	45 31 e4             	xor    r12d,r12d
  403394:	48 f7 c2 fe ff ff ff 	test   rdx,0xfffffffffffffffe
  40339b:	0f 85 5f 01 00 00    	jne    403500 <sched_thd_block_timeout+0x1c0>
static inline ps_tsc_t
ps_tsc(void)
{
	unsigned long a, d, c;

	__asm__ __volatile__("rdtsc" : "=a" (a), "=d" (d), "=c" (c) : : );
  4033a1:	0f 31                	rdtsc  

	return ((u64_t)d << 32) | (u64_t)a;
  4033a3:	48 c1 e2 20          	shl    rdx,0x20
  4033a7:	48 09 c2             	or     rdx,rax
 * more than 2^63 into the future.
 */
static inline int
cycles_greater_than(cycles_t g, cycles_t l)
{
	return (s64_t)(g - l) > 0;
  4033aa:	4c 89 e8             	mov    rax,r13
  4033ad:	48 29 d0             	sub    rax,rdx
	while (cycles_greater_than(timeout, slm_now())) {
  4033b0:	48 85 c0             	test   rax,rax
  4033b3:	0f 8e a7 02 00 00    	jle    403660 <sched_thd_block_timeout+0x320>
	assert(current);
  4033b9:	4d 85 e4             	test   r12,r12
  4033bc:	0f 84 ba 01 00 00    	je     40357c <sched_thd_block_timeout+0x23c>
		tok    = cos_sched_sync();
  4033c2:	e8 39 df 00 00       	call   411300 <cos_sched_sync>
  4033c7:	41 89 c1             	mov    r9d,eax
	unsigned long oc = ps_load(&cs->owner_contention);
  4033ca:	48 8b 05 ef ea 19 00 	mov    rax,QWORD PTR [rip+0x19eaef]        # 5a1ec0 <__slm_global>
		if (unlikely(owner)) {
  4033d1:	48 89 c1             	mov    rcx,rax
  4033d4:	48 83 e1 fe          	and    rcx,0xfffffffffffffffe
  4033d8:	0f 85 62 01 00 00    	jne    403540 <sched_thd_block_timeout+0x200>
        __asm__ __volatile__("lock " PS_CAS_STR
  4033de:	f0 4c 0f b1 25 d9 ea 	lock cmpxchg QWORD PTR [rip+0x19ead9],r12        # 5a1ec0 <__slm_global>
  4033e5:	19 00 
  4033e7:	0f 94 c0             	sete   al
		if (likely(!__slm_cs_cas(cs, cached, current, 0))) return 0;
  4033ea:	84 c0                	test   al,al
  4033ec:	74 d4                	je     4033c2 <sched_thd_block_timeout+0x82>
SLM_MODULES_COMPOSE_FNS(quantum, fprr, static_cm);
  4033ee:	4c 89 ee             	mov    rsi,r13
  4033f1:	4c 89 e7             	mov    rdi,r12
  4033f4:	e8 57 f8 00 00       	call   412c50 <slm_timer_quantum_add>
		if (slm_timer_add(current, timeout)) goto done;
  4033f9:	85 c0                	test   eax,eax
  4033fb:	75 10                	jne    40340d <sched_thd_block_timeout+0xcd>
		if (slm_thd_block(current)) {
  4033fd:	4c 89 e7             	mov    rdi,r12
  403400:	e8 bb 04 01 00       	call   4138c0 <slm_thd_block>
  403405:	85 c0                	test   eax,eax
  403407:	0f 85 1b 01 00 00    	jne    403528 <sched_thd_block_timeout+0x1e8>
	struct cos_compinfo    *ci  = &cos_defcompinfo_curr_get()->ci;
  40340d:	e8 4e 84 00 00       	call   40b860 <cos_defcompinfo_curr_get>
	tok  = cos_sched_sync();
  403412:	e8 e9 de 00 00       	call   411300 <cos_sched_sync>
  403417:	41 89 c6             	mov    r14d,eax
SLM_MODULES_COMPOSE_FNS(quantum, fprr, static_cm);
  40341a:	e8 71 f0 00 00       	call   412490 <slm_sched_fprr_schedule>
	if (unlikely(!t)) t = &g->idle_thd;
  40341f:	48 85 c0             	test   rax,rax
  403422:	48 89 c3             	mov    rbx,rax
  403425:	b8 40 1f 5a 00       	mov    eax,0x5a1f40
  40342a:	48 0f 44 d8          	cmove  rbx,rax
{ return s == SLM_THD_RUNNABLE || s == SLM_THD_WOKEN; }
  40342e:	8b 43 04             	mov    eax,DWORD PTR [rbx+0x4]
  403431:	83 e8 02             	sub    eax,0x2
	assert(slm_state_is_runnable(t->state));
  403434:	83 f8 01             	cmp    eax,0x1
  403437:	76 17                	jbe    403450 <sched_thd_block_timeout+0x110>
  403439:	e9 5a 01 00 00       	jmp    403598 <sched_thd_block_timeout+0x258>
  40343e:	66 90                	xchg   ax,ax
  403440:	f0 48 0f b1 15 77 ea 	lock cmpxchg QWORD PTR [rip+0x19ea77],rdx        # 5a1ec0 <__slm_global>
  403447:	19 00 
  403449:	0f 94 c0             	sete   al
	while (ret != 0) {
  40344c:	84 c0                	test   al,al
  40344e:	75 2e                	jne    40347e <sched_thd_block_timeout+0x13e>
		tok    = cos_sched_sync();
  403450:	e8 ab de 00 00       	call   411300 <cos_sched_sync>
  403455:	89 c1                	mov    ecx,eax
	unsigned long oc = ps_load(&cs->owner_contention);
  403457:	48 8b 05 62 ea 19 00 	mov    rax,QWORD PTR [rip+0x19ea62]        # 5a1ec0 <__slm_global>
		if (unlikely(contention)) {
  40345e:	48 89 c2             	mov    rdx,rax
  403461:	83 e2 01             	and    edx,0x1
  403464:	74 da                	je     403440 <sched_thd_block_timeout+0x100>
	*thd        = (struct slm_thd *)(oc & (~0UL << 1));
  403466:	48 89 c6             	mov    rsi,rax
			if (!slm_cs_exit_contention(cs, current, cached, tok)) return;
  403469:	48 89 c2             	mov    rdx,rax
  40346c:	bf c0 1e 5a 00       	mov    edi,0x5a1ec0
  403471:	48 83 e6 fe          	and    rsi,0xfffffffffffffffe
  403475:	e8 e6 03 01 00       	call   413860 <slm_cs_exit_contention>
  40347a:	85 c0                	test   eax,eax
  40347c:	75 d2                	jne    403450 <sched_thd_block_timeout+0x110>
	struct cos_defcompinfo *dci = cos_defcompinfo_curr_get();
  40347e:	e8 dd 83 00 00       	call   40b860 <cos_defcompinfo_curr_get>
	if (unlikely(t->properties & (SLM_THD_PROPERTY_SEND | SLM_THD_PROPERTY_OWN_TCAP | SLM_THD_PROPERTY_SPECIAL))) {
  403483:	8b 03                	mov    eax,DWORD PTR [rbx]
	timeout = g->timeout_next;
  403485:	4c 8b 05 3c eb 19 00 	mov    r8,QWORD PTR [rip+0x19eb3c]        # 5a1fc8 <__slm_global+0x108>
	prio = inherit_prio ? curr->priority : t->priority;
  40348c:	48 8b 73 30          	mov    rsi,QWORD PTR [rbx+0x30]
	if (unlikely(t->properties & (SLM_THD_PROPERTY_SEND | SLM_THD_PROPERTY_OWN_TCAP | SLM_THD_PROPERTY_SPECIAL))) {
  403490:	a8 0b                	test   al,0xb
  403492:	0f 85 1c 01 00 00    	jne    4035b4 <sched_thd_block_timeout+0x274>
	ret = cos_defswitch(t->thd, prio, timeout, tok);
  403498:	48 8b 7b 10          	mov    rdi,QWORD PTR [rbx+0x10]
  40349c:	44 89 f1             	mov    ecx,r14d
  40349f:	4c 89 c2             	mov    rdx,r8
  4034a2:	e8 b9 92 00 00       	call   40c760 <cos_defswitch>
  4034a7:	41 89 c7             	mov    r15d,eax
	if (unlikely(ret == -EPERM && !slm_thd_normal(t))) {
  4034aa:	83 f8 ff             	cmp    eax,0xffffffff
  4034ad:	0f 84 e5 01 00 00    	je     403698 <sched_thd_block_timeout+0x358>
	if (unlikely(ret != 0)) {
  4034b3:	85 c0                	test   eax,eax
  4034b5:	0f 85 4f 01 00 00    	jne    40360a <sched_thd_block_timeout+0x2ca>
  4034bb:	45 31 ff             	xor    r15d,r15d
  4034be:	4c 89 e7             	mov    rdi,r12
  4034c1:	e8 1a f8 00 00       	call   412ce0 <slm_timer_quantum_cancel>
	__asm__ __volatile__("rdtsc" : "=a" (a), "=d" (d), "=c" (c) : : );
  4034c6:	0f 31                	rdtsc  
	return ((u64_t)d << 32) | (u64_t)a;
  4034c8:	48 c1 e2 20          	shl    rdx,0x20
  4034cc:	48 09 c2             	or     rdx,rax
  4034cf:	4c 89 e8             	mov    rax,r13
  4034d2:	48 29 d0             	sub    rax,rdx
	while (cycles_greater_than(timeout, slm_now())) {
  4034d5:	48 85 c0             	test   rax,rax
  4034d8:	0f 8f e4 fe ff ff    	jg     4033c2 <sched_thd_block_timeout+0x82>
	if (dep_id) return 0;
  4034de:	31 c0                	xor    eax,eax
	if (thd_block_until(abs_timeout)) return 0;
  4034e0:	45 85 ff             	test   r15d,r15d
  4034e3:	0f 84 77 01 00 00    	je     403660 <sched_thd_block_timeout+0x320>
}
  4034e9:	48 83 c4 08          	add    rsp,0x8
  4034ed:	5b                   	pop    rbx
  4034ee:	41 5c                	pop    r12
  4034f0:	41 5d                	pop    r13
  4034f2:	41 5e                	pop    r14
  4034f4:	41 5f                	pop    r15
  4034f6:	5d                   	pop    rbp
  4034f7:	c3                   	ret    
  4034f8:	0f 1f 84 00 00 00 00 	nop    DWORD PTR [rax+rax*1+0x0]
  4034ff:	00 
  403500:	83 e2 01             	and    edx,0x1
  403503:	0f 85 98 fe ff ff    	jne    4033a1 <sched_thd_block_timeout+0x61>
SS_STATIC_SLAB(thd, struct slm_thd_container, MAX_NUM_THREADS);
  403509:	48 8d 14 80          	lea    rdx,[rax+rax*4]
  40350d:	4c 8d 24 50          	lea    r12,[rax+rdx*2]
  403511:	49 c1 e4 04          	shl    r12,0x4
  403515:	49 81 c4 c8 e7 45 00 	add    r12,0x45e7c8
  40351c:	e9 80 fe ff ff       	jmp    4033a1 <sched_thd_block_timeout+0x61>
  403521:	0f 1f 80 00 00 00 00 	nop    DWORD PTR [rax+0x0]
SLM_MODULES_COMPOSE_FNS(quantum, fprr, static_cm);
  403528:	4c 89 e7             	mov    rdi,r12
  40352b:	e8 b0 f7 00 00       	call   412ce0 <slm_timer_quantum_cancel>
  403530:	e9 d8 fe ff ff       	jmp    40340d <sched_thd_block_timeout+0xcd>
  403535:	0f 1f 00             	nop    DWORD PTR [rax]
SS_STATIC_SLAB(thd, struct slm_thd_container, MAX_NUM_THREADS);
  403538:	45 31 e4             	xor    r12d,r12d
  40353b:	e9 61 fe ff ff       	jmp    4033a1 <sched_thd_block_timeout+0x61>
			ret = slm_cs_enter_contention(cs, cached, current, owner, contended, tok);
  403540:	41 89 c0             	mov    r8d,eax
  403543:	4c 89 e2             	mov    rdx,r12
  403546:	48 89 c6             	mov    rsi,rax
  403549:	bf c0 1e 5a 00       	mov    edi,0x5a1ec0
  40354e:	41 83 e0 01          	and    r8d,0x1
  403552:	e8 b9 02 01 00       	call   413810 <slm_cs_enter_contention>
			assert(ret != -EBUSY);
  403557:	83 f8 f0             	cmp    eax,0xfffffff0
  40355a:	0f 85 62 fe ff ff    	jne    4033c2 <sched_thd_block_timeout+0x82>
  403560:	be 59 00 00 00       	mov    esi,0x59
  403565:	bf c0 c7 41 00       	mov    edi,0x41c7c0
  40356a:	e8 61 6b 00 00       	call   40a0d0 <cos_print_str>
  40356f:	c7 04 25 00 00 00 00 	mov    DWORD PTR ds:0x0,0x0
  403576:	00 00 00 00 
  40357a:	0f 0b                	ud2    
  40357c:	be 59 00 00 00       	mov    esi,0x59
  403581:	bf 60 c7 41 00       	mov    edi,0x41c760
  403586:	e8 45 6b 00 00       	call   40a0d0 <cos_print_str>
	assert(current);
  40358b:	c7 04 25 00 00 00 00 	mov    DWORD PTR ds:0x0,0x0
  403592:	00 00 00 00 
  403596:	0f 0b                	ud2    
  403598:	be 61 00 00 00       	mov    esi,0x61
  40359d:	bf 48 c8 41 00       	mov    edi,0x41c848
  4035a2:	e8 29 6b 00 00       	call   40a0d0 <cos_print_str>
	assert(slm_state_is_runnable(t->state));
  4035a7:	c7 04 25 00 00 00 00 	mov    DWORD PTR ds:0x0,0x0
  4035ae:	00 00 00 00 
  4035b2:	0f 0b                	ud2    
	timeout = g->timeout_next;
  4035b4:	4c 89 c1             	mov    rcx,r8
		if (t == &g->sched_thd) {
  4035b7:	48 81 fb c8 1e 5a 00 	cmp    rbx,0x5a1ec8
  4035be:	0f 84 02 01 00 00    	je     4036c6 <sched_thd_block_timeout+0x386>
		if (t->properties & SLM_THD_PROPERTY_SEND) {
  4035c4:	a8 02                	test   al,0x2
  4035c6:	0f 85 06 01 00 00    	jne    4036d2 <sched_thd_block_timeout+0x392>
		} else if (t->properties & SLM_THD_PROPERTY_OWN_TCAP) {
  4035cc:	49 89 c8             	mov    r8,rcx
  4035cf:	a8 01                	test   al,0x1
  4035d1:	0f 84 c1 fe ff ff    	je     403498 <sched_thd_block_timeout+0x158>
			return cos_switch(t->thd, t->tc, prio, timeout, g->sched_thd.rcv, tok);
  4035d7:	4c 8b 53 08          	mov    r10,QWORD PTR [rbx+0x8]
  4035db:	48 8b 7b 10          	mov    rdi,QWORD PTR [rbx+0x10]
  4035df:	48 89 f2             	mov    rdx,rsi
  4035e2:	45 89 f1             	mov    r9d,r14d
  4035e5:	4c 8b 05 fc e8 19 00 	mov    r8,QWORD PTR [rip+0x19e8fc]        # 5a1ee8 <__slm_global+0x28>
  4035ec:	4c 89 d6             	mov    rsi,r10
  4035ef:	e8 2c dd 00 00       	call   411320 <cos_switch>
  4035f4:	41 89 c7             	mov    r15d,eax
	if (unlikely(ret != 0)) {
  4035f7:	45 85 ff             	test   r15d,r15d
  4035fa:	0f 84 bb fe ff ff    	je     4034bb <sched_thd_block_timeout+0x17b>
		assert(ret != -EPERM);
  403600:	41 83 ff ff          	cmp    r15d,0xffffffff
  403604:	0f 84 a0 00 00 00    	je     4036aa <sched_thd_block_timeout+0x36a>
		assert(ret != -EINVAL);
  40360a:	41 83 ff ea          	cmp    r15d,0xffffffea
  40360e:	0f 84 03 01 00 00    	je     403717 <sched_thd_block_timeout+0x3d7>
		if (ret == -EBUSY) return ret;
  403614:	41 83 ff f0          	cmp    r15d,0xfffffff0
  403618:	0f 84 a0 fe ff ff    	je     4034be <sched_thd_block_timeout+0x17e>
		assert(ret == -EAGAIN);
  40361e:	41 83 ff f5          	cmp    r15d,0xfffffff5
  403622:	0f 85 0b 01 00 00    	jne    403733 <sched_thd_block_timeout+0x3f3>
		tok    = cos_sched_sync();
  403628:	e8 d3 dc 00 00       	call   411300 <cos_sched_sync>
  40362d:	41 89 c1             	mov    r9d,eax
	unsigned long oc = ps_load(&cs->owner_contention);
  403630:	48 8b 05 89 e8 19 00 	mov    rax,QWORD PTR [rip+0x19e889]        # 5a1ec0 <__slm_global>
		if (unlikely(owner)) {
  403637:	48 89 c1             	mov    rcx,rax
  40363a:	48 83 e1 fe          	and    rcx,0xfffffffffffffffe
  40363e:	0f 85 0b 01 00 00    	jne    40374f <sched_thd_block_timeout+0x40f>
        __asm__ __volatile__("lock " PS_CAS_STR
  403644:	f0 4c 0f b1 25 73 e8 	lock cmpxchg QWORD PTR [rip+0x19e873],r12        # 5a1ec0 <__slm_global>
  40364b:	19 00 
  40364d:	0f 94 c0             	sete   al
		if (likely(!__slm_cs_cas(cs, cached, current, 0))) return 0;
  403650:	84 c0                	test   al,al
  403652:	0f 85 ba fd ff ff    	jne    403412 <sched_thd_block_timeout+0xd2>
  403658:	eb ce                	jmp    403628 <sched_thd_block_timeout+0x2e8>
  40365a:	66 0f 1f 44 00 00    	nop    WORD PTR [rax+rax*1+0x0]
	__asm__ __volatile__("rdtsc" : "=a" (a), "=d" (d), "=c" (c) : : );
  403660:	0f 31                	rdtsc  
	return ((u64_t)d << 32) | (u64_t)a;
  403662:	48 c1 e2 20          	shl    rdx,0x20
  403666:	48 09 d0             	or     rax,rdx
  403669:	48 89 c2             	mov    rdx,rax
  40366c:	4c 29 ea             	sub    rdx,r13
	assert(cycles_greater_than(now, abs_timeout));
  40366f:	48 85 d2             	test   rdx,rdx
  403672:	0f 8f 71 fe ff ff    	jg     4034e9 <sched_thd_block_timeout+0x1a9>
  403678:	be 24 00 00 00       	mov    esi,0x24
  40367d:	bf 88 cc 41 00       	mov    edi,0x41cc88
  403682:	e8 49 6a 00 00       	call   40a0d0 <cos_print_str>
  403687:	c7 04 25 00 00 00 00 	mov    DWORD PTR ds:0x0,0x0
  40368e:	00 00 00 00 
  403692:	0f 0b                	ud2    
  403694:	0f 1f 40 00          	nop    DWORD PTR [rax+0x0]
	return t != &g->idle_thd && t != &g->sched_thd;
  403698:	48 81 fb 40 1f 5a 00 	cmp    rbx,0x5a1f40
  40369f:	74 4f                	je     4036f0 <sched_thd_block_timeout+0x3b0>
  4036a1:	48 81 fb c8 1e 5a 00 	cmp    rbx,0x5a1ec8
  4036a8:	74 46                	je     4036f0 <sched_thd_block_timeout+0x3b0>
  4036aa:	be 61 00 00 00       	mov    esi,0x61
  4036af:	bf b0 c8 41 00       	mov    edi,0x41c8b0
  4036b4:	e8 17 6a 00 00       	call   40a0d0 <cos_print_str>
		assert(ret != -EPERM);
  4036b9:	c7 04 25 00 00 00 00 	mov    DWORD PTR ds:0x0,0x0
  4036c0:	00 00 00 00 
  4036c4:	0f 0b                	ud2    
			prio    = curr->priority;
  4036c6:	49 8b 74 24 30       	mov    rsi,QWORD PTR [r12+0x30]
			timeout = TCAP_TIME_NIL;
  4036cb:	31 c9                	xor    ecx,ecx
  4036cd:	e9 f2 fe ff ff       	jmp    4035c4 <sched_thd_block_timeout+0x284>
			return cos_sched_asnd(t->asnd, g->timeout_next, g->sched_thd.rcv, tok);
  4036d2:	48 8b 7b 28          	mov    rdi,QWORD PTR [rbx+0x28]
  4036d6:	48 8b 15 0b e8 19 00 	mov    rdx,QWORD PTR [rip+0x19e80b]        # 5a1ee8 <__slm_global+0x28>
  4036dd:	44 89 f1             	mov    ecx,r14d
  4036e0:	4c 89 c6             	mov    rsi,r8
  4036e3:	e8 a8 dc 00 00       	call   411390 <cos_sched_asnd>
  4036e8:	41 89 c7             	mov    r15d,eax
  4036eb:	e9 07 ff ff ff       	jmp    4035f7 <sched_thd_block_timeout+0x2b7>
		ret = cos_switch(g->sched_thd.thd, 0, curr->priority, TCAP_TIME_NIL, g->sched_thd.rcv, tok);
  4036f0:	49 8b 54 24 30       	mov    rdx,QWORD PTR [r12+0x30]
  4036f5:	4c 8b 05 ec e7 19 00 	mov    r8,QWORD PTR [rip+0x19e7ec]        # 5a1ee8 <__slm_global+0x28>
  4036fc:	31 c9                	xor    ecx,ecx
  4036fe:	31 f6                	xor    esi,esi
  403700:	48 8b 3d d1 e7 19 00 	mov    rdi,QWORD PTR [rip+0x19e7d1]        # 5a1ed8 <__slm_global+0x18>
  403707:	45 89 f1             	mov    r9d,r14d
  40370a:	e8 11 dc 00 00       	call   411320 <cos_switch>
  40370f:	41 89 c7             	mov    r15d,eax
  403712:	e9 e0 fe ff ff       	jmp    4035f7 <sched_thd_block_timeout+0x2b7>
  403717:	be 61 00 00 00       	mov    esi,0x61
  40371c:	bf 18 c9 41 00       	mov    edi,0x41c918
  403721:	e8 aa 69 00 00       	call   40a0d0 <cos_print_str>
		assert(ret != -EINVAL);
  403726:	c7 04 25 00 00 00 00 	mov    DWORD PTR ds:0x0,0x0
  40372d:	00 00 00 00 
  403731:	0f 0b                	ud2    
  403733:	be 61 00 00 00       	mov    esi,0x61
  403738:	bf 80 c9 41 00       	mov    edi,0x41c980
  40373d:	e8 8e 69 00 00       	call   40a0d0 <cos_print_str>
		assert(ret == -EAGAIN);
  403742:	c7 04 25 00 00 00 00 	mov    DWORD PTR ds:0x0,0x0
  403749:	00 00 00 00 
  40374d:	0f 0b                	ud2    
			ret = slm_cs_enter_contention(cs, cached, current, owner, contended, tok);
  40374f:	41 89 c0             	mov    r8d,eax
  403752:	4c 89 e2             	mov    rdx,r12
  403755:	48 89 c6             	mov    rsi,rax
  403758:	bf c0 1e 5a 00       	mov    edi,0x5a1ec0
  40375d:	41 83 e0 01          	and    r8d,0x1
  403761:	e8 aa 00 01 00       	call   413810 <slm_cs_enter_contention>
			assert(ret != -EBUSY);
  403766:	83 f8 f0             	cmp    eax,0xfffffff0
  403769:	0f 85 b9 fe ff ff    	jne    403628 <sched_thd_block_timeout+0x2e8>
  40376f:	be 59 00 00 00       	mov    esi,0x59
  403774:	bf c0 c7 41 00       	mov    edi,0x41c7c0
  403779:	e8 52 69 00 00       	call   40a0d0 <cos_print_str>
  40377e:	c7 04 25 00 00 00 00 	mov    DWORD PTR ds:0x0,0x0
  403785:	00 00 00 00 
  403789:	0f 0b                	ud2    
  40378b:	0f 1f 44 00 00       	nop    DWORD PTR [rax+rax*1+0x0]

0000000000403790 <thd_sleep>:
{
  403790:	f3 0f 1e fa          	endbr64 
  403794:	55                   	push   rbp
  403795:	48 89 e5             	mov    rbp,rsp
  403798:	41 57                	push   r15
  40379a:	41 56                	push   r14
  40379c:	41 55                	push   r13
  40379e:	41 54                	push   r12
  4037a0:	53                   	push   rbx
  4037a1:	48 83 ec 08          	sub    rsp,0x8
	__asm__ __volatile__("rdtsc" : "=a" (a), "=d" (d), "=c" (c) : : );
  4037a5:	0f 31                	rdtsc  
	return ((u64_t)d << 32) | (u64_t)a;
  4037a7:	48 c1 e2 20          	shl    rdx,0x20
  4037ab:	48 09 c2             	or     rdx,rax
	__asm__("mov %%rsp, %0;" : "=r"(curr_stk_pointer));
  4037ae:	48 89 e0             	mov    rax,rsp
	return *(long *)((curr_stk_pointer & ~(COS_STACK_SZ - 1)) + COS_STACK_SZ - offset * sizeof(unsigned long));
  4037b1:	48 25 00 e0 ff ff    	and    rax,0xffffffffffffe000
	cycles_t timeout = c + slm_now();
  4037b7:	4c 8d 2c 3a          	lea    r13,[rdx+rdi*1]
  4037bb:	0f b7 80 f0 1f 00 00 	movzx  eax,WORD PTR [rax+0x1ff0]
SS_STATIC_SLAB(thd, struct slm_thd_container, MAX_NUM_THREADS);
  4037c2:	48 85 c0             	test   rax,rax
  4037c5:	0f 84 ad 01 00 00    	je     403978 <thd_sleep+0x1e8>
  4037cb:	83 e8 01             	sub    eax,0x1
  4037ce:	83 f8 18             	cmp    eax,0x18
  4037d1:	0f 87 a1 01 00 00    	ja     403978 <thd_sleep+0x1e8>
  4037d7:	48 8b 14 c5 00 e7 45 	mov    rdx,QWORD PTR [rax*8+0x45e700]
  4037de:	00 
  4037df:	45 31 e4             	xor    r12d,r12d
  4037e2:	48 f7 c2 fe ff ff ff 	test   rdx,0xfffffffffffffffe
  4037e9:	0f 85 51 01 00 00    	jne    403940 <thd_sleep+0x1b0>
	__asm__ __volatile__("rdtsc" : "=a" (a), "=d" (d), "=c" (c) : : );
  4037ef:	0f 31                	rdtsc  
	return ((u64_t)d << 32) | (u64_t)a;
  4037f1:	48 c1 e2 20          	shl    rdx,0x20
  4037f5:	48 09 c2             	or     rdx,rax
  4037f8:	4c 89 e8             	mov    rax,r13
  4037fb:	48 29 d0             	sub    rax,rdx
	while (cycles_greater_than(timeout, slm_now())) {
  4037fe:	48 85 c0             	test   rax,rax
  403801:	0f 8e da 02 00 00    	jle    403ae1 <thd_sleep+0x351>
	assert(current);
  403807:	4d 85 e4             	test   r12,r12
  40380a:	0f 84 ac 01 00 00    	je     4039bc <thd_sleep+0x22c>
		tok    = cos_sched_sync();
  403810:	e8 eb da 00 00       	call   411300 <cos_sched_sync>
  403815:	41 89 c1             	mov    r9d,eax
	unsigned long oc = ps_load(&cs->owner_contention);
  403818:	48 8b 05 a1 e6 19 00 	mov    rax,QWORD PTR [rip+0x19e6a1]        # 5a1ec0 <__slm_global>
		if (unlikely(owner)) {
  40381f:	48 89 c1             	mov    rcx,rax
  403822:	48 83 e1 fe          	and    rcx,0xfffffffffffffffe
  403826:	0f 85 54 01 00 00    	jne    403980 <thd_sleep+0x1f0>
        __asm__ __volatile__("lock " PS_CAS_STR
  40382c:	f0 4c 0f b1 25 8b e6 	lock cmpxchg QWORD PTR [rip+0x19e68b],r12        # 5a1ec0 <__slm_global>
  403833:	19 00 
  403835:	0f 94 c0             	sete   al
		if (likely(!__slm_cs_cas(cs, cached, current, 0))) return 0;
  403838:	84 c0                	test   al,al
  40383a:	74 d4                	je     403810 <thd_sleep+0x80>
SLM_MODULES_COMPOSE_FNS(quantum, fprr, static_cm);
  40383c:	4c 89 ee             	mov    rsi,r13
  40383f:	4c 89 e7             	mov    rdi,r12
  403842:	e8 09 f4 00 00       	call   412c50 <slm_timer_quantum_add>
		if (slm_timer_add(current, timeout)) goto done;
  403847:	85 c0                	test   eax,eax
  403849:	75 10                	jne    40385b <thd_sleep+0xcb>
		if (slm_thd_block(current)) {
  40384b:	4c 89 e7             	mov    rdi,r12
  40384e:	e8 6d 00 01 00       	call   4138c0 <slm_thd_block>
  403853:	85 c0                	test   eax,eax
  403855:	0f 85 0d 01 00 00    	jne    403968 <thd_sleep+0x1d8>
	struct cos_compinfo    *ci  = &cos_defcompinfo_curr_get()->ci;
  40385b:	e8 00 80 00 00       	call   40b860 <cos_defcompinfo_curr_get>
	tok  = cos_sched_sync();
  403860:	e8 9b da 00 00       	call   411300 <cos_sched_sync>
  403865:	41 89 c6             	mov    r14d,eax
SLM_MODULES_COMPOSE_FNS(quantum, fprr, static_cm);
  403868:	e8 23 ec 00 00       	call   412490 <slm_sched_fprr_schedule>
	if (unlikely(!t)) t = &g->idle_thd;
  40386d:	48 85 c0             	test   rax,rax
  403870:	48 89 c3             	mov    rbx,rax
  403873:	b8 40 1f 5a 00       	mov    eax,0x5a1f40
  403878:	48 0f 44 d8          	cmove  rbx,rax
{ return s == SLM_THD_RUNNABLE || s == SLM_THD_WOKEN; }
  40387c:	8b 43 04             	mov    eax,DWORD PTR [rbx+0x4]
  40387f:	83 e8 02             	sub    eax,0x2
	assert(slm_state_is_runnable(t->state));
  403882:	83 f8 01             	cmp    eax,0x1
