  400098:	e8 03 53 01 00       	call   4153a0 <vsnprintf>
  4000a6:	e8 25 a0 00 00       	call   40a0d0 <cos_print_str>
  4000ba:	e8 81 18 00 00       	call   401940 <slm_thd_current_extern>
  4000e7:	e8 14 ff ff ff       	call   400000 <printc>
  4000f5:	e8 06 12 01 00       	call   411300 <cos_sched_sync>
  400124:	e8 b7 36 01 00       	call   4137e0 <slm_thd_deinit>
  400140:	e8 bb 11 01 00       	call   411300 <cos_sched_sync>
  400165:	e8 f6 36 01 00       	call   413860 <slm_cs_exit_contention>
  40016e:	e8 8d 11 01 00       	call   411300 <cos_sched_sync>
  400186:	e8 d5 c5 00 00       	call   40c760 <cos_defswitch>
  400199:	e8 32 9f 00 00       	call   40a0d0 <cos_print_str>
  4001b0:	e8 1b 9f 00 00       	call   40a0d0 <cos_print_str>
  4001d4:	e8 37 36 01 00       	call   413810 <slm_cs_enter_contention>
  4001ec:	e8 df 9e 00 00       	call   40a0d0 <cos_print_str>
  400208:	e8 c3 9e 00 00       	call   40a0d0 <cos_print_str>
  400238:	e8 43 ae 00 00       	call   40b080 <args_get_entry>
  400249:	e8 32 a8 00 00       	call   40aa80 <args_len>
  40025e:	e8 9d fd ff ff       	call   400000 <printc>
  40026f:	e8 cc a8 00 00       	call   40ab40 <args_iter>
  400284:	e8 57 a7 00 00       	call   40a9e0 <args_key>
  40028c:	e8 1f 52 01 00       	call   4154b0 <atoi>
  400298:	e8 a3 a7 00 00       	call   40aa40 <args_value>
  4002be:	e8 6d 54 01 00       	call   415730 <strcmp>
  4002e3:	e8 18 fd ff ff       	call   400000 <printc>
  40033d:	e8 de 99 00 00       	call   409d20 <init_parallelism>
  400359:	e8 72 a7 00 00       	call   40aad0 <args_iter_next>
  40037a:	e8 51 9d 00 00       	call   40a0d0 <cos_print_str>
  400396:	e8 35 9d 00 00       	call   40a0d0 <cos_print_str>
  4003b2:	e8 19 9d 00 00       	call   40a0d0 <cos_print_str>
  4003ce:	e8 fd 9c 00 00       	call   40a0d0 <cos_print_str>
  4003ea:	e8 e1 9c 00 00       	call   40a0d0 <cos_print_str>
	 * `init_done` should not be called once initialization is
  40049d:	e8 9e 14 00 00       	call   401940 <slm_thd_current_extern>
  4004a7:	e8 04 1f 00 00       	call   4023b0 <thd_block>
	 * main execution. We'd expect the next API call here to be
  4004de:	e8 ed 9b 00 00       	call   40a0d0 <cos_print_str>
  4004fa:	e8 d1 9b 00 00       	call   40a0d0 <cos_print_str>
  40050c:	e8 9f fb ff ff       	call   4000b0 <exit_init_thd>
  400528:	e8 83 fb ff ff       	call   4000b0 <exit_init_thd>
  400553:	e8 a8 fa ff ff       	call   400000 <printc>
  40058a:	e8 d1 47 00 00       	call   404d60 <thd_alloc_in>
  4005b1:	e8 4a fa ff ff       	call   400000 <printc>
  4005eb:	e8 10 fa ff ff       	call   400000 <printc>
  4005f0:	e8 db 30 01 00       	call   4136d0 <slm_thd_special>
  400601:	e8 fa 0c 01 00       	call   411300 <cos_sched_sync>
  400646:	e8 e5 37 01 00       	call   413e30 <slm_thd_wakeup>
  40067a:	e8 51 9a 00 00       	call   40a0d0 <cos_print_str>
  400696:	e8 35 9a 00 00       	call   40a0d0 <cos_print_str>
  4006a8:	e8 23 30 01 00       	call   4136d0 <slm_thd_special>
  4006b6:	e8 a5 b1 00 00       	call   40b860 <cos_defcompinfo_curr_get>
  4006bb:	e8 40 0c 01 00       	call   411300 <cos_sched_sync>
  4006c3:	e8 d8 10 00 00       	call   4017a0 <slm_sched_schedule>
  4006f8:	e8 03 0c 01 00       	call   411300 <cos_sched_sync>
  40071d:	e8 3e 31 01 00       	call   413860 <slm_cs_exit_contention>
  400726:	e8 35 b1 00 00       	call   40b860 <cos_defcompinfo_curr_get>
  40074d:	e8 0e c0 00 00       	call   40c760 <cos_defswitch>
  400782:	e8 89 30 01 00       	call   413810 <slm_cs_enter_contention>
  40079a:	e8 31 99 00 00       	call   40a0d0 <cos_print_str>
  4007b6:	e8 15 99 00 00       	call   40a0d0 <cos_print_str>
  4007d2:	e8 f9 98 00 00       	call   40a0d0 <cos_print_str>
  400808:	e8 c3 98 00 00       	call   40a0d0 <cos_print_str>
  400852:	e8 c9 0a 01 00       	call   411320 <cos_switch>
  400888:	e8 73 0a 01 00       	call   411300 <cos_sched_sync>
  4008dd:	e8 3e 0a 01 00       	call   411320 <cos_switch>
  4008f5:	e8 96 0a 01 00       	call   411390 <cos_sched_asnd>
  40090e:	e8 fd 2e 01 00       	call   413810 <slm_cs_enter_contention>
  40092b:	e8 a0 97 00 00       	call   40a0d0 <cos_print_str>
  400947:	e8 84 97 00 00       	call   40a0d0 <cos_print_str>
  4009f7:	e8 a4 49 01 00       	call   4153a0 <vsnprintf>
  400a08:	e8 c3 96 00 00       	call   40a0d0 <cos_print_str>
  400a23:	e8 88 2c 01 00       	call   4136b0 <slm_ipi_percore_get>
  400a7d:	e8 7e 0a 01 00       	call   411500 <cos_rcv>
  400a84:	e8 f7 2b 01 00       	call   413680 <slm_ipi_event_empty>
  400a93:	e8 88 2b 01 00       	call   413620 <slm_ipi_event_dequeue>
  400ae5:	e8 16 08 01 00       	call   411300 <cos_sched_sync>
  400b16:	e8 15 33 01 00       	call   413e30 <slm_thd_wakeup>
			 * Return "0" means the thread is woken up in this call.
  400b3c:	e8 bf 07 01 00       	call   411300 <cos_sched_sync>
  400b61:	e8 fa 2c 01 00       	call   413860 <slm_cs_exit_contention>
  400b86:	e8 45 95 00 00       	call   40a0d0 <cos_print_str>
  400baa:	e8 61 2c 01 00       	call   413810 <slm_cs_enter_contention>
  400bc2:	e8 09 95 00 00       	call   40a0d0 <cos_print_str>
  400bfa:	e8 d1 94 00 00       	call   40a0d0 <cos_print_str>
  400c3a:	e8 c1 06 01 00       	call   411300 <cos_sched_sync>
  400cd0:	e8 2b 06 01 00       	call   411300 <cos_sched_sync>
  400cf5:	e8 66 2b 01 00       	call   413860 <slm_cs_exit_contention>
  400d22:	e8 e9 2a 01 00       	call   413810 <slm_cs_enter_contention>
  400d3a:	e8 91 93 00 00       	call   40a0d0 <cos_print_str>
  400d56:	e8 75 93 00 00       	call   40a0d0 <cos_print_str>
  400daa:	e8 51 05 01 00       	call   411300 <cos_sched_sync>
  400e58:	e8 a3 04 01 00       	call   411300 <cos_sched_sync>
  400e7d:	e8 de 29 01 00       	call   413860 <slm_cs_exit_contention>
  400eed:	e8 6e a9 00 00       	call   40b860 <cos_defcompinfo_curr_get>
  400ef2:	e8 09 04 01 00       	call   411300 <cos_sched_sync>
  400efa:	e8 91 15 01 00       	call   412490 <slm_sched_fprr_schedule>
  400f30:	e8 cb 03 01 00       	call   411300 <cos_sched_sync>
  400f55:	e8 06 29 01 00       	call   413860 <slm_cs_exit_contention>
  400f5e:	e8 fd a8 00 00       	call   40b860 <cos_defcompinfo_curr_get>
  400f86:	e8 d5 b7 00 00       	call   40c760 <cos_defswitch>
  400fb5:	e8 76 2e 01 00       	call   413e30 <slm_thd_wakeup>
  400fda:	e8 31 28 01 00       	call   413810 <slm_cs_enter_contention>
  400ff2:	e8 d9 90 00 00       	call   40a0d0 <cos_print_str>
  40100e:	e8 bd 90 00 00       	call   40a0d0 <cos_print_str>
  401035:	e8 96 90 00 00       	call   40a0d0 <cos_print_str>
  401084:	e8 97 02 01 00       	call   411320 <cos_switch>
  4010b1:	e8 4a 02 01 00       	call   411300 <cos_sched_sync>
  40110c:	e8 bf 8f 00 00       	call   40a0d0 <cos_print_str>
  40113b:	e8 50 02 01 00       	call   411390 <cos_sched_asnd>
  40115e:	e8 bd 01 01 00       	call   411320 <cos_switch>
  401177:	e8 94 26 01 00       	call   413810 <slm_cs_enter_contention>
  40119a:	e8 31 8f 00 00       	call   40a0d0 <cos_print_str>
  4011b6:	e8 15 8f 00 00       	call   40a0d0 <cos_print_str>
  4011f7:	e8 04 01 01 00       	call   411300 <cos_sched_sync>
  401288:	e8 73 00 01 00       	call   411300 <cos_sched_sync>
  4012ad:	e8 ae 25 01 00       	call   413860 <slm_cs_exit_contention>
  401358:	e8 73 8d 00 00       	call   40a0d0 <cos_print_str>
  401386:	e8 45 8d 00 00       	call   40a0d0 <cos_print_str>
  4013a3:	e8 18 25 01 00       	call   4138c0 <slm_thd_block>
  4013d2:	e8 39 24 01 00       	call   413810 <slm_cs_enter_contention>
  4013ea:	e8 e1 8c 00 00       	call   40a0d0 <cos_print_str>
  401406:	e8 c5 8c 00 00       	call   40a0d0 <cos_print_str>
  401423:	e8 38 a4 00 00       	call   40b860 <cos_defcompinfo_curr_get>
  40142e:	e8 cd fe 00 00       	call   411300 <cos_sched_sync>
  401436:	e8 55 10 01 00       	call   412490 <slm_sched_fprr_schedule>
  401470:	e8 8b fe 00 00       	call   411300 <cos_sched_sync>
  401495:	e8 c6 23 01 00       	call   413860 <slm_cs_exit_contention>
  40149e:	e8 bd a3 00 00       	call   40b860 <cos_defcompinfo_curr_get>
  4014c0:	e8 9b b2 00 00       	call   40c760 <cos_defswitch>
  4014e7:	e8 e4 8b 00 00       	call   40a0d0 <cos_print_str>
  40151d:	e8 ae 8b 00 00       	call   40a0d0 <cos_print_str>
  40156a:	e8 b1 fd 00 00       	call   411320 <cos_switch>
  401597:	e8 64 fd 00 00       	call   411300 <cos_sched_sync>
  4015da:	e8 f1 8a 00 00       	call   40a0d0 <cos_print_str>
  401608:	e8 83 fd 00 00       	call   411390 <cos_sched_asnd>
  40162b:	e8 f0 fc 00 00       	call   411320 <cos_switch>
  401644:	e8 c7 21 01 00       	call   413810 <slm_cs_enter_contention>
  401661:	e8 6a 8a 00 00       	call   40a0d0 <cos_print_str>
  40167d:	e8 4e 8a 00 00       	call   40a0d0 <cos_print_str>
  401860:	e8 6b 88 00 00       	call   40a0d0 <cos_print_str>
  4018d2:	e8 f9 87 00 00       	call   40a0d0 <cos_print_str>
  401a62:	e8 69 86 00 00       	call   40a0d0 <cos_print_str>
  401a7e:	e8 4d 86 00 00       	call   40a0d0 <cos_print_str>
  401afb:	e8 d0 85 00 00       	call   40a0d0 <cos_print_str>
  401b17:	e8 b4 85 00 00       	call   40a0d0 <cos_print_str>
  401b33:	e8 98 85 00 00       	call   40a0d0 <cos_print_str>
  401b8b:	e8 d0 31 00 00       	call   404d60 <thd_alloc_in>
  401c7b:	e8 80 f6 00 00       	call   411300 <cos_sched_sync>
  401cb6:	e8 25 1b 01 00       	call   4137e0 <slm_thd_deinit>
  401cbb:	e8 a0 9b 00 00       	call   40b860 <cos_defcompinfo_curr_get>
  401cc0:	e8 3b f6 00 00       	call   411300 <cos_sched_sync>
  401cc8:	e8 c3 07 01 00       	call   412490 <slm_sched_fprr_schedule>
  401d00:	e8 fb f5 00 00       	call   411300 <cos_sched_sync>
  401d25:	e8 36 1b 01 00       	call   413860 <slm_cs_exit_contention>
  401d2e:	e8 2d 9b 00 00       	call   40b860 <cos_defcompinfo_curr_get>
  401d4e:	e8 0d aa 00 00       	call   40c760 <cos_defswitch>
  401d6a:	e8 61 83 00 00       	call   40a0d0 <cos_print_str>
  401d86:	e8 45 83 00 00       	call   40a0d0 <cos_print_str>
  401dcf:	e8 4c f5 00 00       	call   411320 <cos_switch>
  401df8:	e8 03 f5 00 00       	call   411300 <cos_sched_sync>
  401e4e:	e8 7d 82 00 00       	call   40a0d0 <cos_print_str>
  401e6a:	e8 61 82 00 00       	call   40a0d0 <cos_print_str>
  401eac:	e8 5f 19 01 00       	call   413810 <slm_cs_enter_contention>
  401ec4:	e8 07 82 00 00       	call   40a0d0 <cos_print_str>
  401ee7:	e8 a4 f4 00 00       	call   411390 <cos_sched_asnd>
  401f0a:	e8 11 f4 00 00       	call   411320 <cos_switch>
  401f1e:	e8 ad 81 00 00       	call   40a0d0 <cos_print_str>
  401f42:	e8 c9 18 01 00       	call   413810 <slm_cs_enter_contention>
  401f5f:	e8 6c 81 00 00       	call   40a0d0 <cos_print_str>
  40201c:	e8 df f2 00 00       	call   411300 <cos_sched_sync>
  402054:	e8 37 05 01 00       	call   412590 <slm_sched_fprr_yield>
  402059:	e8 02 98 00 00       	call   40b860 <cos_defcompinfo_curr_get>
  40205e:	e8 9d f2 00 00       	call   411300 <cos_sched_sync>
  402066:	e8 25 04 01 00       	call   412490 <slm_sched_fprr_schedule>
  402098:	e8 63 f2 00 00       	call   411300 <cos_sched_sync>
  4020bd:	e8 9e 17 01 00       	call   413860 <slm_cs_exit_contention>
  4020c6:	e8 95 97 00 00       	call   40b860 <cos_defcompinfo_curr_get>
  4020ea:	e8 71 a6 00 00       	call   40c760 <cos_defswitch>
  402142:	e8 89 7f 00 00       	call   40a0d0 <cos_print_str>
  402172:	e8 99 16 01 00       	call   413810 <slm_cs_enter_contention>
  40218a:	e8 41 7f 00 00       	call   40a0d0 <cos_print_str>
  4021a6:	e8 25 7f 00 00       	call   40a0d0 <cos_print_str>
  4021c2:	e8 09 7f 00 00       	call   40a0d0 <cos_print_str>
  40220f:	e8 0c f1 00 00       	call   411320 <cos_switch>
  402232:	e8 99 7e 00 00       	call   40a0d0 <cos_print_str>
  40225e:	e8 bd f0 00 00       	call   411320 <cos_switch>
  402287:	e8 74 f0 00 00       	call   411300 <cos_sched_sync>
  4022d2:	e8 b9 f0 00 00       	call   411390 <cos_sched_asnd>
  4022e3:	e8 e8 7d 00 00       	call   40a0d0 <cos_print_str>
  402307:	e8 04 15 01 00       	call   413810 <slm_cs_enter_contention>
  40232a:	e8 a1 7d 00 00       	call   40a0d0 <cos_print_str>
  40241b:	e8 e0 ee 00 00       	call   411300 <cos_sched_sync>
  40244a:	e8 71 14 01 00       	call   4138c0 <slm_thd_block>
  40245a:	e8 01 94 00 00       	call   40b860 <cos_defcompinfo_curr_get>
  402465:	e8 96 ee 00 00       	call   411300 <cos_sched_sync>
  40246d:	e8 1e 00 01 00       	call   412490 <slm_sched_fprr_schedule>
  4024a0:	e8 5b ee 00 00       	call   411300 <cos_sched_sync>
  4024c5:	e8 96 13 01 00       	call   413860 <slm_cs_exit_contention>
  4024ce:	e8 8d 93 00 00       	call   40b860 <cos_defcompinfo_curr_get>
  4024f6:	e8 65 a2 00 00       	call   40c760 <cos_defswitch>
  402530:	e8 cb ed 00 00       	call   411300 <cos_sched_sync>
  402555:	e8 06 13 01 00       	call   413860 <slm_cs_exit_contention>
  40256a:	e8 61 7b 00 00       	call   40a0d0 <cos_print_str>
  402592:	e8 79 12 01 00       	call   413810 <slm_cs_enter_contention>
  4025aa:	e8 21 7b 00 00       	call   40a0d0 <cos_print_str>
  4025d7:	e8 24 ed 00 00       	call   411300 <cos_sched_sync>
  40261a:	e8 b1 7a 00 00       	call   40a0d0 <cos_print_str>
  402669:	e8 b2 ec 00 00       	call   411320 <cos_switch>
  402689:	e8 42 7a 00 00       	call   40a0d0 <cos_print_str>
  4026c6:	e8 55 ec 00 00       	call   411320 <cos_switch>
  4026ea:	e8 a1 ec 00 00       	call   411390 <cos_sched_asnd>
  4026fe:	e8 cd 79 00 00       	call   40a0d0 <cos_print_str>
  402722:	e8 e9 10 01 00       	call   413810 <slm_cs_enter_contention>
  402742:	e8 89 79 00 00       	call   40a0d0 <cos_print_str>
  4027d4:	e8 27 eb 00 00       	call   411300 <cos_sched_sync>
  402803:	e8 b8 10 01 00       	call   4138c0 <slm_thd_block>
  402813:	e8 48 90 00 00       	call   40b860 <cos_defcompinfo_curr_get>
  40281e:	e8 dd ea 00 00       	call   411300 <cos_sched_sync>
  402826:	e8 65 fc 00 00       	call   412490 <slm_sched_fprr_schedule>
  402860:	e8 9b ea 00 00       	call   411300 <cos_sched_sync>
  402885:	e8 d6 0f 01 00       	call   413860 <slm_cs_exit_contention>
  40288e:	e8 cd 8f 00 00       	call   40b860 <cos_defcompinfo_curr_get>
  4028b6:	e8 a5 9e 00 00       	call   40c760 <cos_defswitch>
  4028f0:	e8 0b ea 00 00       	call   411300 <cos_sched_sync>
  402915:	e8 46 0f 01 00       	call   413860 <slm_cs_exit_contention>
  40292a:	e8 a1 77 00 00       	call   40a0d0 <cos_print_str>
  402952:	e8 b9 0e 01 00       	call   413810 <slm_cs_enter_contention>
  40296a:	e8 61 77 00 00       	call   40a0d0 <cos_print_str>
  402997:	e8 64 e9 00 00       	call   411300 <cos_sched_sync>
  4029da:	e8 f1 76 00 00       	call   40a0d0 <cos_print_str>
  402a29:	e8 f2 e8 00 00       	call   411320 <cos_switch>
  402a49:	e8 82 76 00 00       	call   40a0d0 <cos_print_str>
  402a86:	e8 95 e8 00 00       	call   411320 <cos_switch>
  402ab5:	e8 d6 e8 00 00       	call   411390 <cos_sched_asnd>
  402ac9:	e8 02 76 00 00       	call   40a0d0 <cos_print_str>
  402aed:	e8 1e 0d 01 00       	call   413810 <slm_cs_enter_contention>
  402b0a:	e8 c1 75 00 00       	call   40a0d0 <cos_print_str>
  402b9e:	e8 5d e7 00 00       	call   411300 <cos_sched_sync>
  402bcf:	e8 5c 12 01 00       	call   413e30 <slm_thd_wakeup>
  402bdf:	e8 7c 8c 00 00       	call   40b860 <cos_defcompinfo_curr_get>
  402bea:	e8 11 e7 00 00       	call   411300 <cos_sched_sync>
  402bf2:	e8 99 f8 00 00       	call   412490 <slm_sched_fprr_schedule>
  402c28:	e8 d3 e6 00 00       	call   411300 <cos_sched_sync>
  402c4d:	e8 0e 0c 01 00       	call   413860 <slm_cs_exit_contention>
  402c56:	e8 05 8c 00 00       	call   40b860 <cos_defcompinfo_curr_get>
  402c7a:	e8 e1 9a 00 00       	call   40c760 <cos_defswitch>
  402cc0:	e8 3b e6 00 00       	call   411300 <cos_sched_sync>
  402ce5:	e8 76 0b 01 00       	call   413860 <slm_cs_exit_contention>
  402cfa:	e8 d1 73 00 00       	call   40a0d0 <cos_print_str>
  402d22:	e8 e9 0a 01 00       	call   413810 <slm_cs_enter_contention>
  402d3a:	e8 91 73 00 00       	call   40a0d0 <cos_print_str>
  402d56:	e8 75 73 00 00       	call   40a0d0 <cos_print_str>
  402da3:	e8 78 e5 00 00       	call   411320 <cos_switch>
  402dd8:	e8 23 e5 00 00       	call   411300 <cos_sched_sync>
  402e2c:	e8 9f 72 00 00       	call   40a0d0 <cos_print_str>
  402e64:	e8 b7 e4 00 00       	call   411320 <cos_switch>
  402e82:	e8 09 e5 00 00       	call   411390 <cos_sched_asnd>
  402e99:	e8 32 72 00 00       	call   40a0d0 <cos_print_str>
  402ebd:	e8 4e 09 01 00       	call   413810 <slm_cs_enter_contention>
  402eda:	e8 f1 71 00 00       	call   40a0d0 <cos_print_str>
  402f90:	e8 3b 71 00 00       	call   40a0d0 <cos_print_str>
  402fc0:	e8 3b e3 00 00       	call   411300 <cos_sched_sync>
  402ff1:	e8 3a 0e 01 00       	call   413e30 <slm_thd_wakeup>
  403001:	e8 5a 88 00 00       	call   40b860 <cos_defcompinfo_curr_get>
  40300c:	e8 ef e2 00 00       	call   411300 <cos_sched_sync>
  403014:	e8 77 f4 00 00       	call   412490 <slm_sched_fprr_schedule>
  403048:	e8 b3 e2 00 00       	call   411300 <cos_sched_sync>
  40306d:	e8 ee 07 01 00       	call   413860 <slm_cs_exit_contention>
  403076:	e8 e5 87 00 00       	call   40b860 <cos_defcompinfo_curr_get>
  40309a:	e8 c1 96 00 00       	call   40c760 <cos_defswitch>
  4030d4:	e8 27 e2 00 00       	call   411300 <cos_sched_sync>
  4030f9:	e8 62 07 01 00       	call   413860 <slm_cs_exit_contention>
  403122:	e8 e9 06 01 00       	call   413810 <slm_cs_enter_contention>
  40313a:	e8 91 6f 00 00       	call   40a0d0 <cos_print_str>
  403156:	e8 75 6f 00 00       	call   40a0d0 <cos_print_str>
  4031a3:	e8 78 e1 00 00       	call   411320 <cos_switch>
  4031d8:	e8 23 e1 00 00       	call   411300 <cos_sched_sync>
  40322c:	e8 9f 6e 00 00       	call   40a0d0 <cos_print_str>
  403264:	e8 b7 e0 00 00       	call   411320 <cos_switch>
  403282:	e8 09 e1 00 00       	call   411390 <cos_sched_asnd>
  403299:	e8 32 6e 00 00       	call   40a0d0 <cos_print_str>
  4032bd:	e8 4e 05 01 00       	call   413810 <slm_cs_enter_contention>
  4032da:	e8 f1 6d 00 00       	call   40a0d0 <cos_print_str>
  4033c2:	e8 39 df 00 00       	call   411300 <cos_sched_sync>
  4033f4:	e8 57 f8 00 00       	call   412c50 <slm_timer_quantum_add>
  403400:	e8 bb 04 01 00       	call   4138c0 <slm_thd_block>
  40340d:	e8 4e 84 00 00       	call   40b860 <cos_defcompinfo_curr_get>
  403412:	e8 e9 de 00 00       	call   411300 <cos_sched_sync>
  40341a:	e8 71 f0 00 00       	call   412490 <slm_sched_fprr_schedule>
  403450:	e8 ab de 00 00       	call   411300 <cos_sched_sync>
  403475:	e8 e6 03 01 00       	call   413860 <slm_cs_exit_contention>
  40347e:	e8 dd 83 00 00       	call   40b860 <cos_defcompinfo_curr_get>
  4034a2:	e8 b9 92 00 00       	call   40c760 <cos_defswitch>
  4034c1:	e8 1a f8 00 00       	call   412ce0 <slm_timer_quantum_cancel>
  40352b:	e8 b0 f7 00 00       	call   412ce0 <slm_timer_quantum_cancel>
  403552:	e8 b9 02 01 00       	call   413810 <slm_cs_enter_contention>
  40356a:	e8 61 6b 00 00       	call   40a0d0 <cos_print_str>
  403586:	e8 45 6b 00 00       	call   40a0d0 <cos_print_str>
  4035a2:	e8 29 6b 00 00       	call   40a0d0 <cos_print_str>
  4035ef:	e8 2c dd 00 00       	call   411320 <cos_switch>
  403628:	e8 d3 dc 00 00       	call   411300 <cos_sched_sync>
  403682:	e8 49 6a 00 00       	call   40a0d0 <cos_print_str>
  4036b4:	e8 17 6a 00 00       	call   40a0d0 <cos_print_str>
  4036e3:	e8 a8 dc 00 00       	call   411390 <cos_sched_asnd>
  40370a:	e8 11 dc 00 00       	call   411320 <cos_switch>
  403721:	e8 aa 69 00 00       	call   40a0d0 <cos_print_str>
  40373d:	e8 8e 69 00 00       	call   40a0d0 <cos_print_str>
  403761:	e8 aa 00 01 00       	call   413810 <slm_cs_enter_contention>
  403779:	e8 52 69 00 00       	call   40a0d0 <cos_print_str>
  403810:	e8 eb da 00 00       	call   411300 <cos_sched_sync>
  403842:	e8 09 f4 00 00       	call   412c50 <slm_timer_quantum_add>
  40384e:	e8 6d 00 01 00       	call   4138c0 <slm_thd_block>
  40385b:	e8 00 80 00 00       	call   40b860 <cos_defcompinfo_curr_get>
  403860:	e8 9b da 00 00       	call   411300 <cos_sched_sync>
  403868:	e8 23 ec 00 00       	call   412490 <slm_sched_fprr_schedule>
  4038a0:	e8 5b da 00 00       	call   411300 <cos_sched_sync>
  4038c5:	e8 96 ff 00 00       	call   413860 <slm_cs_exit_contention>
  4038ce:	e8 8d 7f 00 00       	call   40b860 <cos_defcompinfo_curr_get>
  4038f2:	e8 69 8e 00 00       	call   40c760 <cos_defswitch>
  403911:	e8 ca f3 00 00       	call   412ce0 <slm_timer_quantum_cancel>
  40396b:	e8 70 f3 00 00       	call   412ce0 <slm_timer_quantum_cancel>
  403992:	e8 79 fe 00 00       	call   413810 <slm_cs_enter_contention>
  4039aa:	e8 21 67 00 00       	call   40a0d0 <cos_print_str>
  4039c6:	e8 05 67 00 00       	call   40a0d0 <cos_print_str>
  4039e2:	e8 e9 66 00 00       	call   40a0d0 <cos_print_str>
  403a2b:	e8 f0 d8 00 00       	call   411320 <cos_switch>
  403a51:	e8 7a 66 00 00       	call   40a0d0 <cos_print_str>
  403a86:	e8 95 d8 00 00       	call   411320 <cos_switch>
  403ab3:	e8 48 d8 00 00       	call   411300 <cos_sched_sync>
  403afa:	e8 91 d8 00 00       	call   411390 <cos_sched_asnd>
  403b0e:	e8 bd 65 00 00       	call   40a0d0 <cos_print_str>
  403b2a:	e8 a1 65 00 00       	call   40a0d0 <cos_print_str>
  403b4e:	e8 bd fc 00 00       	call   413810 <slm_cs_enter_contention>
  403bd4:	e8 27 d7 00 00       	call   411300 <cos_sched_sync>
  403c68:	e8 93 d6 00 00       	call   411300 <cos_sched_sync>
  403c8d:	e8 ce fb 00 00       	call   413860 <slm_cs_exit_contention>
  403caa:	e8 21 64 00 00       	call   40a0d0 <cos_print_str>
  403cd2:	e8 39 fb 00 00       	call   413810 <slm_cs_enter_contention>
  403cea:	e8 e1 63 00 00       	call   40a0d0 <cos_print_str>
0000000000403e00 <syncipc_call>:
  403e40:	0f 84 62 01 00 00    	je     403fa8 <syncipc_call+0x1a8>
  403e4c:	0f 87 56 01 00 00    	ja     403fa8 <syncipc_call+0x1a8>
  403e63:	0f 85 17 01 00 00    	jne    403f80 <syncipc_call+0x180>
  403e89:	0f 84 29 02 00 00    	je     4040b8 <syncipc_call+0x2b8>
  403e8f:	e8 6c d4 00 00       	call   411300 <cos_sched_sync>
  403eae:	0f 84 fc 00 00 00    	je     403fb0 <syncipc_call+0x1b0>
  403ed5:	0f 85 0f 01 00 00    	jne    403fea <syncipc_call+0x1ea>
  403eee:	0f 87 e4 00 00 00    	ja     403fd8 <syncipc_call+0x1d8>
  403ef4:	e8 67 79 00 00       	call   40b860 <cos_defcompinfo_curr_get>
  403f09:	0f 85 f7 00 00 00    	jne    404006 <syncipc_call+0x206>
  403f19:	e8 42 88 00 00       	call   40c760 <cos_defswitch>
  403f24:	0f 84 21 01 00 00    	je     40404b <syncipc_call+0x24b>
  403f47:	75 25                	jne    403f6e <syncipc_call+0x16e>
  403f4e:	0f 84 3b ff ff ff    	je     403e8f <syncipc_call+0x8f>
  403f83:	0f 85 e0 fe ff ff    	jne    403e69 <syncipc_call+0x69>
  403f9c:	e9 c8 fe ff ff       	jmp    403e69 <syncipc_call+0x69>
  403faa:	e9 ba fe ff ff       	jmp    403e69 <syncipc_call+0x69>
  403fbe:	0f 84 1e ff ff ff    	je     403ee2 <syncipc_call+0xe2>
  403fd0:	e9 0d ff ff ff       	jmp    403ee2 <syncipc_call+0xe2>
  403fe8:	eb 84                	jmp    403f6e <syncipc_call+0x16e>
  403ff4:	e8 d7 60 00 00       	call   40a0d0 <cos_print_str>
  404015:	0f 85 85 00 00 00    	jne    4040a0 <syncipc_call+0x2a0>
  404020:	0f 84 e9 fe ff ff    	je     403f0f <syncipc_call+0x10f>
  40403e:	e8 dd d2 00 00       	call   411320 <cos_switch>
  404046:	e9 df fe ff ff       	jmp    403f2a <syncipc_call+0x12a>
  404052:	74 18                	je     40406c <syncipc_call+0x26c>
  40405b:	74 0f                	je     40406c <syncipc_call+0x26c>
  404067:	e9 02 ff ff ff       	jmp    403f6e <syncipc_call+0x16e>
  404085:	e8 96 d2 00 00       	call   411320 <cos_switch>
  40409b:	e9 9a fe ff ff       	jmp    403f3a <syncipc_call+0x13a>
  4040b1:	e8 da d2 00 00       	call   411390 <cos_sched_asnd>
  4040b6:	eb d2                	jmp    40408a <syncipc_call+0x28a>
  4040be:	e9 ab fe ff ff       	jmp    403f6e <syncipc_call+0x16e>
  404197:	e8 64 d1 00 00       	call   411300 <cos_sched_sync>
  4041ae:	e8 ad 76 00 00       	call   40b860 <cos_defcompinfo_curr_get>
  4041d2:	e8 89 85 00 00       	call   40c760 <cos_defswitch>
  4042a8:	e8 73 d0 00 00       	call   411320 <cos_switch>
  4042d6:	e8 45 d0 00 00       	call   411320 <cos_switch>
  404343:	e8 08 e3 00 00       	call   412650 <slm_sched_fprr_thd_update>
  4043b1:	e8 da cf 00 00       	call   411390 <cos_sched_asnd>
  4043c8:	e8 03 5d 00 00       	call   40a0d0 <cos_print_str>
  4043e4:	e8 e7 5c 00 00       	call   40a0d0 <cos_print_str>
  404456:	e8 55 f2 00 00       	call   4136b0 <slm_ipi_percore_get>
  404473:	e8 a8 59 00 00       	call   409e20 <capmgr_rcv_alloc>
  40452b:	e8 d0 cd 00 00       	call   411300 <cos_sched_sync>
  404562:	e8 a9 f1 00 00       	call   413710 <slm_thd_init>
  4045f0:	e8 0b cd 00 00       	call   411300 <cos_sched_sync>
  404615:	e8 46 f2 00 00       	call   413860 <slm_cs_exit_contention>
  40463a:	e8 91 5a 00 00       	call   40a0d0 <cos_print_str>
  40465b:	e8 70 5a 00 00       	call   40a0d0 <cos_print_str>
  404677:	e8 54 5a 00 00       	call   40a0d0 <cos_print_str>
  40469d:	e8 6e f1 00 00       	call   413810 <slm_cs_enter_contention>
  4046b5:	e8 16 5a 00 00       	call   40a0d0 <cos_print_str>
  4046d1:	e8 fa 59 00 00       	call   40a0d0 <cos_print_str>
  4046ed:	e8 de 59 00 00       	call   40a0d0 <cos_print_str>
  404723:	e8 38 c2 ff ff       	call   400960 <printc.constprop.0>
  40474a:	e8 61 ef 00 00       	call   4136b0 <slm_ipi_percore_get>
  404752:	e8 89 73 00 00       	call   40bae0 <cos_defcompinfo_sched_init>
  404766:	e8 35 01 00 00       	call   4048a0 <slm_thd_alloc>
  40477c:	e8 df fc 00 00       	call   414460 <slm_init>
  404792:	e8 99 fc ff ff       	call   404430 <slm_ipithd_create>
  4047df:	e8 6c de 00 00       	call   412650 <slm_sched_fprr_thd_update>
  40481a:	e8 b1 58 00 00       	call   40a0d0 <cos_print_str>
  40483a:	e8 91 58 00 00       	call   40a0d0 <cos_print_str>
  404858:	e8 03 70 00 00       	call   40b860 <cos_defcompinfo_curr_get>
  404860:	e8 0b 70 00 00       	call   40b870 <cos_compinfo_get>
  404882:	e8 69 8e 00 00       	call   40d6f0 <cos_meminfo_init>
  404887:	e8 94 b9 ff ff       	call   400220 <calculate_initialization_schedule>
  4048ba:	e8 b1 54 00 00       	call   409d70 <capmgr_thd_create>
  4048d3:	e8 d8 d0 ff ff       	call   4019b0 <slm_thd_mem_alloc>
  40490d:	e8 5e 22 00 00       	call   406b70 <__cosrt_extern_capmgr_thd_create_ext>
  404926:	e8 85 d0 ff ff       	call   4019b0 <slm_thd_mem_alloc>
  404961:	e8 da cf ff ff       	call   401940 <slm_thd_current_extern>
  40497c:	e8 ef 53 00 00       	call   409d70 <capmgr_thd_create>
  404999:	e8 12 d0 ff ff       	call   4019b0 <slm_thd_mem_alloc>
  4049ad:	e8 ee cf ff ff       	call   4019a0 <slm_thd_from_container>
  4049b5:	e8 46 c9 00 00       	call   411300 <cos_sched_sync>
  4049ec:	e8 1f ed 00 00       	call   413710 <slm_thd_init>
  404a1e:	e8 3d cd ff ff       	call   401760 <slm_sched_thd_update>
  404a2a:	e8 21 d1 ff ff       	call   401b50 <slm_thd_mem_free>
  404a4b:	e8 40 d0 ff ff       	call   401a90 <slm_thd_mem_activate>
  404a59:	e8 02 6e 00 00       	call   40b860 <cos_defcompinfo_curr_get>
  404a5e:	e8 9d c8 00 00       	call   411300 <cos_sched_sync>
  404a66:	e8 35 cd ff ff       	call   4017a0 <slm_sched_schedule>
  404aa0:	e8 5b c8 00 00       	call   411300 <cos_sched_sync>
  404ac5:	e8 96 ed 00 00       	call   413860 <slm_cs_exit_contention>
  404ace:	e8 8d 6d 00 00       	call   40b860 <cos_defcompinfo_curr_get>
  404af3:	e8 68 7c 00 00       	call   40c760 <cos_defswitch>
  404b24:	e8 d7 c7 00 00       	call   411300 <cos_sched_sync>
  404b74:	e8 87 c7 00 00       	call   411300 <cos_sched_sync>
  404b99:	e8 c2 ec 00 00       	call   413860 <slm_cs_exit_contention>
  404bb0:	e8 1b eb 00 00       	call   4136d0 <slm_thd_special>
  404bcb:	e8 00 55 00 00       	call   40a0d0 <cos_print_str>
  404bf2:	e8 19 ec 00 00       	call   413810 <slm_cs_enter_contention>
  404c0a:	e8 c1 54 00 00       	call   40a0d0 <cos_print_str>
  404c26:	e8 a5 54 00 00       	call   40a0d0 <cos_print_str>
  404c73:	e8 a8 c6 00 00       	call   411320 <cos_switch>
  404c93:	e8 38 54 00 00       	call   40a0d0 <cos_print_str>
  404cd0:	e8 4b c6 00 00       	call   411320 <cos_switch>
  404cf3:	e8 98 c6 00 00       	call   411390 <cos_sched_asnd>
  404d07:	e8 c4 53 00 00       	call   40a0d0 <cos_print_str>
  404d28:	e8 e3 ea 00 00       	call   413810 <slm_cs_enter_contention>
  404d4a:	e8 81 53 00 00       	call   40a0d0 <cos_print_str>
  404d81:	e8 ba cb ff ff       	call   401940 <slm_thd_current_extern>
  404d9d:	e8 ce 1d 00 00       	call   406b70 <__cosrt_extern_capmgr_thd_create_ext>
  404dba:	e8 f1 cb ff ff       	call   4019b0 <slm_thd_mem_alloc>
  404dca:	e8 d1 cb ff ff       	call   4019a0 <slm_thd_from_container>
  404dd2:	e8 29 c5 00 00       	call   411300 <cos_sched_sync>
  404e09:	e8 02 e9 00 00       	call   413710 <slm_thd_init>
  404e35:	e8 26 c9 ff ff       	call   401760 <slm_sched_thd_update>
  404e41:	e8 0a cd ff ff       	call   401b50 <slm_thd_mem_free>
  404e63:	e8 28 cc ff ff       	call   401a90 <slm_thd_mem_activate>
  404e71:	e8 ea 69 00 00       	call   40b860 <cos_defcompinfo_curr_get>
  404e7c:	e8 7f c4 00 00       	call   411300 <cos_sched_sync>
  404e84:	e8 17 c9 ff ff       	call   4017a0 <slm_sched_schedule>
  404eb8:	e8 43 c4 00 00       	call   411300 <cos_sched_sync>
  404edd:	e8 7e e9 00 00       	call   413860 <slm_cs_exit_contention>
  404ee6:	e8 75 69 00 00       	call   40b860 <cos_defcompinfo_curr_get>
  404f0a:	e8 51 78 00 00       	call   40c760 <cos_defswitch>
  404f3b:	e8 c0 c3 00 00       	call   411300 <cos_sched_sync>
  404f84:	e8 77 c3 00 00       	call   411300 <cos_sched_sync>
  404fa9:	e8 b2 e8 00 00       	call   413860 <slm_cs_exit_contention>
  404fc0:	e8 0b e7 00 00       	call   4136d0 <slm_thd_special>
  404fdb:	e8 f0 50 00 00       	call   40a0d0 <cos_print_str>
  405002:	e8 09 e8 00 00       	call   413810 <slm_cs_enter_contention>
  40501a:	e8 b1 50 00 00       	call   40a0d0 <cos_print_str>
  405036:	e8 95 50 00 00       	call   40a0d0 <cos_print_str>
  405083:	e8 98 c2 00 00       	call   411320 <cos_switch>
  4050a3:	e8 28 50 00 00       	call   40a0d0 <cos_print_str>
  4050e0:	e8 3b c2 00 00       	call   411320 <cos_switch>
  405103:	e8 88 c2 00 00       	call   411390 <cos_sched_asnd>
  405117:	e8 b4 4f 00 00       	call   40a0d0 <cos_print_str>
  405138:	e8 d3 e6 00 00       	call   413810 <slm_cs_enter_contention>
  40515a:	e8 71 4f 00 00       	call   40a0d0 <cos_print_str>
  405195:	e8 86 f2 ff ff       	call   404420 <sched_get_cpu_freq>
  4051a4:	0f 05                	syscall 
  4051d4:	e8 47 f2 ff ff       	call   404420 <sched_get_cpu_freq>
  405205:	e8 76 cd ff ff       	call   401f80 <sched_thd_yield_to>
  405214:	0f 05                	syscall 
  405244:	e8 37 cd ff ff       	call   401f80 <sched_thd_yield_to>
  405275:	e8 76 dc ff ff       	call   402ef0 <sched_thd_wakeup>
  405284:	0f 05                	syscall 
  4052b4:	e8 37 dc ff ff       	call   402ef0 <sched_thd_wakeup>
  4052e5:	e8 06 e0 ff ff       	call   4032f0 <sched_debug_thd_state>
  4052f4:	0f 05                	syscall 
  405324:	e8 c7 df ff ff       	call   4032f0 <sched_debug_thd_state>
  405355:	e8 06 d4 ff ff       	call   402760 <sched_thd_block>
  405364:	0f 05                	syscall 
  405394:	e8 c7 d3 ff ff       	call   402760 <sched_thd_block>
  4053c5:	e8 a6 e7 ff ff       	call   403b70 <sched_blkpt_alloc>
  4053d4:	0f 05                	syscall 
  405404:	e8 67 e7 ff ff       	call   403b70 <sched_blkpt_alloc>
  405435:	e8 d6 e8 ff ff       	call   403d10 <sched_blkpt_free>
  405444:	0f 05                	syscall 
  405474:	e8 97 e8 ff ff       	call   403d10 <sched_blkpt_free>
  4054a5:	e8 76 e8 ff ff       	call   403d20 <sched_blkpt_trigger>
  4054b4:	0f 05                	syscall 
  4054e4:	e8 37 e8 ff ff       	call   403d20 <sched_blkpt_trigger>
  405515:	e8 76 e8 ff ff       	call   403d90 <sched_blkpt_block>
  405524:	0f 05                	syscall 
  405554:	e8 37 e8 ff ff       	call   403d90 <sched_blkpt_block>
  40558f:	e8 1c 03 00 00       	call   4058b0 <__cosrt_s_cstub_sched_thd_block_timeout>
  4055a0:	0f 05                	syscall 
  4055de:	e8 cd 02 00 00       	call   4058b0 <__cosrt_s_cstub_sched_thd_block_timeout>
  405615:	e8 46 c5 ff ff       	call   401b60 <sched_thd_create_closure>
  405624:	0f 05                	syscall 
  405654:	e8 07 c5 ff ff       	call   401b60 <sched_thd_create_closure>
  40568f:	e8 4c 02 00 00       	call   4058e0 <__cosrt_s_cstub_sched_aep_create_closure>
  4056a0:	0f 05                	syscall 
  4056de:	e8 fd 01 00 00       	call   4058e0 <__cosrt_s_cstub_sched_aep_create_closure>
  405715:	e8 96 c4 ff ff       	call   401bb0 <sched_thd_param_set>
  405724:	0f 05                	syscall 
  405754:	e8 57 c4 ff ff       	call   401bb0 <sched_thd_param_set>
  405785:	e8 86 c4 ff ff       	call   401c10 <sched_thd_exit>
  405794:	0f 05                	syscall 
  4057c4:	e8 47 c4 ff ff       	call   401c10 <sched_thd_exit>
  4057f5:	e8 06 c4 ff ff       	call   401c00 <sched_thd_delete>
  405804:	0f 05                	syscall 
  405834:	e8 c7 c3 ff ff       	call   401c00 <sched_thd_delete>
  405865:	e8 d6 ca ff ff       	call   402340 <sched_set_tls>
  405874:	0f 05                	syscall 
  4058a4:	e8 97 ca ff ff       	call   402340 <sched_set_tls>
  4058c1:	e8 7a da ff ff       	call   403340 <sched_thd_block_timeout>
  40590d:	e8 fe ea ff ff       	call   404410 <sched_aep_create_closure>
  405955:	e8 a6 aa ff ff       	call   400400 <init_done>
  405964:	0f 05                	syscall 
  405994:	e8 67 aa ff ff       	call   400400 <init_done>
  4059c5:	e8 56 ab ff ff       	call   400520 <init_exit>
  4059d4:	0f 05                	syscall 
  405a04:	e8 17 ab ff ff       	call   400520 <init_exit>
  405a42:	41 ff d5             	call   r13
  405a87:	0f 05                	syscall 
	return call_cap_op(uc->cap_no, 0, arg1, arg2, arg3, arg4);
  405ada:	ff 10                	call   QWORD PTR [rax]
0000000000405ae0 <__cosrt_fast_callgate_init_done>:
0000000000405bc4 <srv_call_ret_init_done>:
  405c7a:	ff 10                	call   QWORD PTR [rax]
0000000000405c80 <__cosrt_fast_callgate_init_exit>:
0000000000405d64 <srv_call_ret_init_exit>:
  405e4d:	41 ff d7             	call   r15
	return call_cap_2retvals_asm(uc->cap_no, 0, arg1, arg2, arg3, arg4, ret1, ret2);
  405eb0:	0f 05                	syscall 
  405f0d:	ff d3                	call   rbx
	return call_cap_2retvals_asm(uc->cap_no, 0, arg1, arg2, arg3, arg4, ret1, ret2);
  405f53:	0f 05                	syscall 
  405fad:	ff d3                	call   rbx
  405ff3:	0f 05                	syscall 
  40604d:	ff d3                	call   rbx
  406093:	0f 05                	syscall 
  4060ed:	41 ff d6             	call   r14
	return call_cap_2retvals_asm(uc->cap_no, 0, arg1, arg2, arg3, arg4, ret1, ret2);
  40613b:	0f 05                	syscall 
  406196:	41 ff d6             	call   r14
	return call_cap_2retvals_asm(uc->cap_no, 0, arg1, arg2, arg3, arg4, ret1, ret2);
  4061e6:	0f 05                	syscall 
  406245:	41 ff d6             	call   r14
	return call_cap_2retvals_asm(uc->cap_no, 0, arg1, arg2, arg3, arg4, ret1, ret2);
  406296:	0f 05                	syscall 
  4062f7:	41 ff d6             	call   r14
	return call_cap_2retvals_asm(uc->cap_no, 0, arg1, arg2, arg3, arg4, ret1, ret2);
  406343:	0f 05                	syscall 
  4063d9:	41 ff d7             	call   r15
	return call_cap_2retvals_asm(uc->cap_no, 0, arg1, arg2, arg3, arg4, ret1, ret2);
  406470:	0f 05                	syscall 
  406507:	41 ff d2             	call   r10
	return call_cap_2retvals_asm(uc->cap_no, 0, arg1, arg2, arg3, arg4, ret1, ret2);
  4065a8:	0f 05                	syscall 
	/* FIXME: MPK call gate make indirect call complicated, arguments passed via stack gets wrong, walk around now by avoiding pass that argument */
  406658:	41 ff d6             	call   r14
	return call_cap_2retvals_asm(uc->cap_no, 0, arg1, arg2, arg3, arg4, ret1, ret2);
  40669b:	0f 05                	syscall 
  40672b:	41 ff d7             	call   r15
	return call_cap_2retvals_asm(uc->cap_no, 0, arg1, arg2, arg3, arg4, ret1, ret2);
  4067de:	0f 05                	syscall 
  40681a:	ff 10                	call   QWORD PTR [rax]
0000000000406820 <__cosrt_fast_callgate_capmgr_initthd_create>:
000000000040690d <srv_call_ret_capmgr_initthd_create>:
  4069ca:	ff 10                	call   QWORD PTR [rax]
00000000004069d0 <__cosrt_fast_callgate_capmgr_thd_create_thunk>:
0000000000406abd <srv_call_ret_capmgr_thd_create_thunk>:
  406b7a:	ff 10                	call   QWORD PTR [rax]
0000000000406b80 <__cosrt_fast_callgate_capmgr_thd_create_ext>:
0000000000406c6d <srv_call_ret_capmgr_thd_create_ext>:
  406d2a:	ff 10                	call   QWORD PTR [rax]
0000000000406d30 <__cosrt_fast_callgate_capmgr_initaep_create>:
0000000000406e1d <srv_call_ret_capmgr_initaep_create>:
  406eda:	ff 10                	call   QWORD PTR [rax]
0000000000406ee0 <__cosrt_fast_callgate_capmgr_aep_create_thunk>:
0000000000406fcd <srv_call_ret_capmgr_aep_create_thunk>:
  40708a:	ff 10                	call   QWORD PTR [rax]
0000000000407090 <__cosrt_fast_callgate_capmgr_aep_create_ext>:
000000000040717d <srv_call_ret_capmgr_aep_create_ext>:
  40723a:	ff 10                	call   QWORD PTR [rax]
0000000000407240 <__cosrt_fast_callgate_capmgr_rcv_create>:
000000000040732d <srv_call_ret_capmgr_rcv_create>:
  4073ea:	ff 10                	call   QWORD PTR [rax]
00000000004073f0 <__cosrt_fast_callgate_capmgr_set_tls>:
00000000004074d4 <srv_call_ret_capmgr_set_tls>:
  40758a:	ff 10                	call   QWORD PTR [rax]
0000000000407590 <__cosrt_fast_callgate_capmgr_asnd_create>:
0000000000407674 <srv_call_ret_capmgr_asnd_create>:
  40772a:	ff 10                	call   QWORD PTR [rax]
0000000000407730 <__cosrt_fast_callgate_capmgr_asnd_rcv_create>:
0000000000407814 <srv_call_ret_capmgr_asnd_rcv_create>:
  4078ca:	ff 10                	call   QWORD PTR [rax]
00000000004078d0 <__cosrt_fast_callgate_capmgr_asnd_key_create>:
00000000004079b4 <srv_call_ret_capmgr_asnd_key_create>:
  407a6a:	ff 10                	call   QWORD PTR [rax]
0000000000407a70 <__cosrt_fast_callgate_capmgr_vm_comp_create>:
0000000000407b54 <srv_call_ret_capmgr_vm_comp_create>:
  407c0a:	ff 10                	call   QWORD PTR [rax]
0000000000407c10 <__cosrt_fast_callgate_capmgr_vm_shared_kernel_page_create_at>:
0000000000407cf4 <srv_call_ret_capmgr_vm_shared_kernel_page_create_at>:
  407daa:	ff 10                	call   QWORD PTR [rax]
0000000000407db0 <__cosrt_fast_callgate_capmgr_vm_vmcs_create>:
0000000000407e94 <srv_call_ret_capmgr_vm_vmcs_create>:
  407f4a:	ff 10                	call   QWORD PTR [rax]
0000000000407f50 <__cosrt_fast_callgate_capmgr_vm_msr_bitmap_create>:
0000000000408034 <srv_call_ret_capmgr_vm_msr_bitmap_create>:
  4080ea:	ff 10                	call   QWORD PTR [rax]
00000000004080f0 <__cosrt_fast_callgate_capmgr_vm_lapic_access_create>:
00000000004081d4 <srv_call_ret_capmgr_vm_lapic_access_create>:
  40828a:	ff 10                	call   QWORD PTR [rax]
0000000000408290 <__cosrt_fast_callgate_capmgr_shared_kernel_page_create>:
000000000040837d <srv_call_ret_capmgr_shared_kernel_page_create>:
  40843a:	ff 10                	call   QWORD PTR [rax]
0000000000408440 <__cosrt_fast_callgate_capmgr_vm_lapic_create>:
000000000040852d <srv_call_ret_capmgr_vm_lapic_create>:
  4085ea:	ff 10                	call   QWORD PTR [rax]
00000000004085f0 <__cosrt_fast_callgate_capmgr_vm_shared_region_create>:
00000000004086dd <srv_call_ret_capmgr_vm_shared_region_create>:
  40879a:	ff 10                	call   QWORD PTR [rax]
00000000004087a0 <__cosrt_fast_callgate_capmgr_vm_vmcb_create>:
000000000040888d <srv_call_ret_capmgr_vm_vmcb_create>:
  40894a:	ff 10                	call   QWORD PTR [rax]
0000000000408950 <__cosrt_fast_callgate_capmgr_vm_vcpu_create>:
0000000000408a3d <srv_call_ret_capmgr_vm_vcpu_create>:
  408b1f:	41 ff d6             	call   r14
	return call_cap_2retvals_asm(uc->cap_no, 0, arg1, arg2, arg3, arg4, ret1, ret2);
  408b6e:	0f 05                	syscall 
  408bc5:	41 ff d6             	call   r14
	return call_cap_2retvals_asm(uc->cap_no, 0, arg1, arg2, arg3, arg4, ret1, ret2);
  408c16:	0f 05                	syscall 
  408c6d:	41 ff d6             	call   r14
	return call_cap_2retvals_asm(uc->cap_no, 0, arg1, arg2, arg3, arg4, ret1, ret2);
  408cbb:	0f 05                	syscall 
  408d13:	41 ff d6             	call   r14
	return call_cap_2retvals_asm(uc->cap_no, 0, arg1, arg2, arg3, arg4, ret1, ret2);
  408d5b:	0f 05                	syscall 
  408db8:	41 ff d6             	call   r14
	return call_cap_2retvals_asm(uc->cap_no, 0, arg1, arg2, arg3, arg4, ret1, ret2);
  408e0b:	0f 05                	syscall 
  408e3a:	ff 10                	call   QWORD PTR [rax]
0000000000408e40 <__cosrt_fast_callgate_memmgr_heap_page_allocn>:
0000000000408f24 <srv_call_ret_memmgr_heap_page_allocn>:
  408fda:	ff 10                	call   QWORD PTR [rax]
0000000000408fe0 <__cosrt_fast_callgate_memmgr_heap_page_allocn_aligned>:
00000000004090c4 <srv_call_ret_memmgr_heap_page_allocn_aligned>:
  40917a:	ff 10                	call   QWORD PTR [rax]
0000000000409180 <__cosrt_fast_callgate_memmgr_virt_to_phys>:
0000000000409264 <srv_call_ret_memmgr_virt_to_phys>:
  40931a:	ff 10                	call   QWORD PTR [rax]
0000000000409320 <__cosrt_fast_callgate_memmgr_map_phys_to_virt>:
0000000000409404 <srv_call_ret_memmgr_map_phys_to_virt>:
  4094ba:	ff 10                	call   QWORD PTR [rax]
00000000004094c0 <__cosrt_fast_callgate_memmgr_shared_page_allocn>:
00000000004095ad <srv_call_ret_memmgr_shared_page_allocn>:
  40966a:	ff 10                	call   QWORD PTR [rax]
0000000000409670 <__cosrt_fast_callgate_memmgr_shared_page_allocn_aligned>:
000000000040975d <srv_call_ret_memmgr_shared_page_allocn_aligned>:
  40981a:	ff 10                	call   QWORD PTR [rax]
0000000000409820 <__cosrt_fast_callgate_memmgr_shared_page_map>:
000000000040990d <srv_call_ret_memmgr_shared_page_map>:
  4099ca:	ff 10                	call   QWORD PTR [rax]
00000000004099d0 <__cosrt_fast_callgate_memmgr_shared_page_map_aligned>:
0000000000409abd <srv_call_ret_memmgr_shared_page_map_aligned>:
  409b7a:	ff 10                	call   QWORD PTR [rax]
0000000000409b80 <__cosrt_fast_callgate_memmgr_shared_page_map_aligned_in_vm>:
0000000000409c6d <srv_call_ret_memmgr_shared_page_map_aligned_in_vm>:
  409d43:	ff 50 20             	call   QWORD PTR [rax+0x20]
  409d50:	e8 7b 03 00 00       	call   40a0d0 <cos_print_str>
  409e00:	e8 cb 02 00 00       	call   40a0d0 <cos_print_str>
  409ec3:	e8 08 02 00 00       	call   40a0d0 <cos_print_str>
  409f96:	e8 35 01 00 00       	call   40a0d0 <cos_print_str>
000000000040a020 <pre_syscall_default_setup>:
000000000040a030 <pre_syscall_setup>:
pre_syscall_setup()
	pre_syscall_default_setup();
  40a036:	e9 e5 ff ff ff       	jmp    40a020 <pre_syscall_default_setup>
000000000040a040 <syscall_emulation_setup>:
000000000040a0b0 <cos_upcall_exec>:
cos_upcall_exec(void *arg)
		ret = call_cap(PRINT_CAP_TEMP, s_ints[0], s_ints[1], s_ints[2], len - written);
		ret = call_cap(PRINT_CAP_TEMP, s_ints[0], s_ints[1], s_ints[2], len - written);
		ret = call_cap(PRINT_CAP_TEMP, s_ints[0], s_ints[1], s_ints[2], len - written);
  40a13b:	0f 05                	syscall 
  40a227:	e8 74 b1 00 00       	call   4153a0 <vsnprintf>
  40a235:	e8 96 fe ff ff       	call   40a0d0 <cos_print_str>
  40a24d:	e8 1e b5 00 00       	call   415770 <strlen>
  40a282:	e8 49 fe ff ff       	call   40a0d0 <cos_print_str>
000000000040a2a0 <cos_syscall_handler>:
	printc("Default syscall handler called (syscall: %d, first arg: %ld), faulting!", syscall_num, a);
	printc("Default syscall handler called (syscall: %d, first arg: %ld), faulting!", syscall_num, a);
  40a2b4:	e8 d7 fe ff ff       	call   40a190 <printc.constprop.0>
  40a2c3:	e8 08 fe ff ff       	call   40a0d0 <cos_print_str>
000000000040a2e0 <__cos_syscall>:
	return cos_syscall_handler(syscall_num, a, b, c, d, e, f, g);
  40a2e4:	e9 b7 ff ff ff       	jmp    40a2a0 <cos_syscall_handler>
  40a314:	e8 b7 fd ff ff       	call   40a0d0 <cos_print_str>
000000000040a350 <cos_upcall_fn>:
cos_upcall_fn(upcall_type_t t, void *arg1, void *arg2, void *arg3)
  40a381:	74 ed                	je     40a370 <cos_upcall_fn+0x20>
  40a385:	e8 f6 fc ff ff       	call   40a080 <libc_tls_init>
  40a392:	0f 84 a5 00 00 00    	je     40a43d <cos_upcall_fn+0xed>
  40a3aa:	75 12                	jne    40a3be <cos_upcall_fn+0x6e>
  40a3cb:	e8 60 ff ff ff       	call   40a330 <cos_print_level_set>
		/* The syscall enumlator might need something to be setup before it can work */
		pre_syscall_setup();
  40a3d2:	e8 59 fc ff ff       	call   40a030 <pre_syscall_setup>
		/* libc needs syscall emulation to work */
		syscall_emulation_setup();
  40a3d9:	e8 62 fc ff ff       	call   40a040 <syscall_emulation_setup>
  40a3e0:	e8 6b fc ff ff       	call   40a050 <libc_initialization_handler>
  40a3e7:	e8 74 fc ff ff       	call   40a060 <libc_posixcap_initialization_handler>
  40a3ee:	e8 7d fc ff ff       	call   40a070 <libc_posixsched_initialization_handler>
  40a3fb:	7e 18                	jle    40a415 <cos_upcall_fn+0xc5>
  40a400:	42 ff 14 ed 08 20 42 	call   QWORD PTR [r13*8+0x422008]
  40a413:	7c eb                	jl     40a400 <cos_upcall_fn+0xb0>
  40a420:	7e 1b                	jle    40a43d <cos_upcall_fn+0xed>
  40a428:	42 ff 14 ed 28 20 42 	call   QWORD PTR [r13*8+0x422028]
  40a43b:	7f eb                	jg     40a428 <cos_upcall_fn+0xd8>
	 * NOTE: for "fork"ing components and not updating "spdid"s, this call will just fail and should be fine.
  40a450:	74 58                	je     40a4aa <cos_upcall_fn+0x15a>
  40a455:	75 62                	jne    40a4b9 <cos_upcall_fn+0x169>
  40a45a:	0f 84 82 00 00 00    	je     40a4e2 <cos_upcall_fn+0x192>
  40a46b:	77 68                	ja     40a4d5 <cos_upcall_fn+0x185>
  40a48c:	ff d0                	call   rax
  40a498:	e8 33 fc ff ff       	call   40a0d0 <cos_print_str>
  40a4af:	e8 6c 7a 00 00       	call   411f20 <cos_hw_cycles_per_usec>
  40a4b7:	74 9e                	je     40a457 <cos_upcall_fn+0x107>
  40a4c3:	e8 08 fc ff ff       	call   40a0d0 <cos_print_str>
  40a4db:	e8 90 fd ff ff       	call   40a270 <cos_thd_entry_static>
  40a4e0:	eb ac                	jmp    40a48e <cos_upcall_fn+0x13e>
  40a4e2:	e8 39 f8 ff ff       	call   409d20 <init_parallelism>
  40a507:	0f 84 9b 00 00 00    	je     40a5a8 <cos_upcall_fn+0x258>
  40a515:	75 79                	jne    40a590 <cos_upcall_fn+0x240>
  40a520:	0f 85 a4 00 00 00    	jne    40a5ca <cos_upcall_fn+0x27a>
  40a52b:	e8 80 b5 ff ff       	call   405ab0 <__cosrt_extern_init_parallel_await_init>
  40a537:	74 11                	je     40a54a <cos_upcall_fn+0x1fa>
  40a539:	e8 e2 f7 ff ff       	call   409d20 <init_parallelism>
  40a545:	e8 e6 a1 ff ff       	call   404730 <cos_parallel_init>
  40a54f:	e8 7c b5 ff ff       	call   405ad0 <__cosrt_extern_init_done>
  40a561:	0f 84 89 00 00 00    	je     40a5f0 <cos_upcall_fn+0x2a0>
  40a56b:	74 23                	je     40a590 <cos_upcall_fn+0x240>
  40a570:	0f 84 ff 00 00 00    	je     40a675 <cos_upcall_fn+0x325>
  40a581:	0f 84 d7 00 00 00    	je     40a65e <cos_upcall_fn+0x30e>
  40a587:	e8 34 fa ff ff       	call   409fc0 <main>
  40a58e:	eb 13                	jmp    40a5a3 <cos_upcall_fn+0x253>
  40a590:	e8 8b f7 ff ff       	call   409d20 <init_parallelism>
  40a59c:	e8 5f a1 ff ff       	call   404700 <parallel_main>
  40a5a3:	e8 c8 b6 ff ff       	call   405c70 <__cosrt_extern_init_exit>
  40a5b3:	74 52                	je     40a607 <cos_upcall_fn+0x2b7>
  40a5bd:	75 ae                	jne    40a56d <cos_upcall_fn+0x21d>
  40a5c5:	e9 53 ff ff ff       	jmp    40a51d <cos_upcall_fn+0x1cd>
  40a5d1:	e8 7a a2 ff ff       	call   404850 <cos_init>
  40a5e6:	e8 e5 b4 ff ff       	call   405ad0 <__cosrt_extern_init_done>
  40a5eb:	e9 3b ff ff ff       	jmp    40a52b <cos_upcall_fn+0x1db>
  40a5f5:	e8 46 fc ff ff       	call   40a240 <prints.isra.0>
  40a60f:	75 df                	jne    40a5f0 <cos_upcall_fn+0x2a0>
  40a614:	0f 84 0c ff ff ff    	je     40a526 <cos_upcall_fn+0x1d6>
  40a621:	e8 2a a2 ff ff       	call   404850 <cos_init>
  40a635:	e8 96 b4 ff ff       	call   405ad0 <__cosrt_extern_init_done>
  40a641:	0f 85 e4 fe ff ff    	jne    40a52b <cos_upcall_fn+0x1db>
  40a64c:	e8 ef fb ff ff       	call   40a240 <prints.isra.0>
  40a663:	e8 d8 fb ff ff       	call   40a240 <prints.isra.0>
  40a67a:	e8 c1 fb ff ff       	call   40a240 <prints.isra.0>
	__asm__ __volatile__("call cos_atomic_cmpxchg"
  40a6ae:	e8 7d 02 00 00       	call   40a930 <cos_atomic_cmpxchg>
  40a6d8:	e8 53 02 00 00       	call   40a930 <cos_atomic_cmpxchg>
  40a74b:	ff d0                	call   rax
  40a788:	0f 05                	syscall 
  40a821:	0f 05                	syscall 
  40a86c:	e8 4f f8 ff ff       	call   40a0c0 <cos_async_inv>
000000000040a8e0 <__cosrt_upcall_entry>:
  40a918:	e8 33 fa ff ff       	call   40a350 <cos_upcall_fn>
  40aa20:	e8 4b ad 00 00       	call   415770 <strlen>
  40ac41:	e8 9a 0a 00 00       	call   40b6e0 <tar_iter>
  40ac56:	ff d3                	call   rbx
  40ac6f:	e8 6c 07 00 00       	call   40b3e0 <tar_iter_next>
  40accf:	e8 6c fc ff ff       	call   40a940 <args_iter.part.0.isra.0>
  40ad47:	e8 d4 a8 00 00       	call   415620 <strchr>
  40ad89:	e8 52 09 00 00       	call   40b6e0 <tar_iter>
  40adcc:	e8 1f aa 00 00       	call   4157f0 <strncmp>
  40ae35:	e8 36 a9 00 00       	call   415770 <strlen>
  40ae60:	e8 7b 05 00 00       	call   40b3e0 <tar_iter_next>
  40ae9e:	e8 0d 03 00 00       	call   40b1b0 <tar_key>
  40aecf:	e8 6c fa ff ff       	call   40a940 <args_iter.part.0.isra.0>
  40aee9:	e8 82 a8 00 00       	call   415770 <strlen>
  40af33:	e8 38 a8 00 00       	call   415770 <strlen>
  40af80:	e8 fb 03 00 00       	call   40b380 <tar_is_value>
  40b019:	e8 d2 fc ff ff       	call   40acf0 <args_lkup_entry>
  40b044:	e8 17 02 00 00       	call   40b260 <tar_value>
  40b0a1:	e8 4a fc ff ff       	call   40acf0 <args_lkup_entry>
  40b0b8:	e8 33 07 00 00       	call   40b7f0 <tar_root>
  40b0e0:	e8 0b fc ff ff       	call   40acf0 <args_lkup_entry>
  40b11d:	e8 ce fb ff ff       	call   40acf0 <args_lkup_entry>
  40b144:	e8 17 01 00 00       	call   40b260 <tar_value>
  40b170:	e8 7b 06 00 00       	call   40b7f0 <tar_root>
  40b199:	e8 52 fb ff ff       	call   40acf0 <args_lkup_entry>
  40b1f1:	e8 2a a4 00 00       	call   415620 <strchr>
  40b219:	e8 02 a4 00 00       	call   415620 <strchr>
  40b240:	e8 2b a5 00 00       	call   415770 <strlen>
  40b331:	e8 3a a5 00 00       	call   415870 <strnlen>
  40b4ac:	e8 6f a1 00 00       	call   415620 <strchr>
  40b51f:	e8 4c a3 00 00       	call   415870 <strnlen>
  40b593:	e8 d8 a2 00 00       	call   415870 <strnlen>
  40b63f:	e8 dc 9f 00 00       	call   415620 <strchr>
  40b681:	e8 6a a1 00 00       	call   4157f0 <strncmp>
  40b6a2:	e8 79 9f 00 00       	call   415620 <strchr>
  40b7bb:	e8 20 fc ff ff       	call   40b3e0 <tar_iter_next>
  40b7dc:	e8 ff fb ff ff       	call   40b3e0 <tar_iter_next>
  40b833:	ff 50 20             	call   QWORD PTR [rax+0x20]
  40b840:	e8 8b e8 ff ff       	call   40a0d0 <cos_print_str>
  40b88b:	e8 40 e8 ff ff       	call   40a0d0 <cos_print_str>
  40b8bf:	e8 0c e8 ff ff       	call   40a0d0 <cos_print_str>
  40b8ed:	e8 0e f8 ff ff       	call   40b100 <args_get>
  40b8f5:	e8 66 9c 00 00       	call   415560 <atol>
  40b937:	e8 e4 1d 00 00       	call   40d720 <cos_compinfo_init>
  40b982:	e8 b9 61 00 00       	call   411b40 <cos_introspect>
  40b99e:	e8 2d e7 ff ff       	call   40a0d0 <cos_print_str>
  40b9ff:	e8 1c 1d 00 00       	call   40d720 <cos_compinfo_init>
  40ba41:	e8 fa 60 00 00       	call   411b40 <cos_introspect>
  40baaa:	e8 91 60 00 00       	call   411b40 <cos_introspect>
  40bac4:	e8 07 e6 ff ff       	call   40a0d0 <cos_print_str>
  40bb2d:	e8 0e 60 00 00       	call   411b40 <cos_introspect>
  40bb47:	e8 84 e5 ff ff       	call   40a0d0 <cos_print_str>
  40bba2:	e8 99 4b 00 00       	call   410740 <cos_compinfo_alloc>
  40bbf3:	e8 d8 3b 00 00       	call   40f7d0 <cos_initthd_alloc>
  40bc12:	e8 29 5f 00 00       	call   411b40 <cos_introspect>
  40bc2a:	e8 71 5f 00 00       	call   411ba0 <cos_tcap_alloc>
  40bc59:	e8 52 4e 00 00       	call   410ab0 <cos_arcv_alloc>
  40bc9c:	e8 2f e4 ff ff       	call   40a0d0 <cos_print_str>
  40bcb8:	e8 13 e4 ff ff       	call   40a0d0 <cos_print_str>
  40bcd4:	e8 f7 e3 ff ff       	call   40a0d0 <cos_print_str>
  40bcf0:	e8 db e3 ff ff       	call   40a0d0 <cos_print_str>
  40bd0c:	e8 bf e3 ff ff       	call   40a0d0 <cos_print_str>
  40bd28:	e8 a3 e3 ff ff       	call   40a0d0 <cos_print_str>
  40bd5f:	e8 6c e3 ff ff       	call   40a0d0 <cos_print_str>
  40bdd2:	e8 f9 39 00 00       	call   40f7d0 <cos_initthd_alloc>
  40bdf1:	e8 4a 5d 00 00       	call   411b40 <cos_introspect>
  40be09:	e8 92 5d 00 00       	call   411ba0 <cos_tcap_alloc>
  40be39:	e8 72 4c 00 00       	call   410ab0 <cos_arcv_alloc>
  40be8e:	e8 3d e2 ff ff       	call   40a0d0 <cos_print_str>
  40beaa:	e8 21 e2 ff ff       	call   40a0d0 <cos_print_str>
  40bec6:	e8 05 e2 ff ff       	call   40a0d0 <cos_print_str>
  40bee2:	e8 e9 e1 ff ff       	call   40a0d0 <cos_print_str>
  40befe:	e8 cd e1 ff ff       	call   40a0d0 <cos_print_str>
  40bf6f:	e8 5c 38 00 00       	call   40f7d0 <cos_initthd_alloc>
  40bf8e:	e8 ad 5b 00 00       	call   411b40 <cos_introspect>
  40bfc3:	e8 e8 4a 00 00       	call   410ab0 <cos_arcv_alloc>
  40c005:	e8 96 5b 00 00       	call   411ba0 <cos_tcap_alloc>
  40c023:	e8 a8 e0 ff ff       	call   40a0d0 <cos_print_str>
  40c03f:	e8 8c e0 ff ff       	call   40a0d0 <cos_print_str>
  40c05b:	e8 70 e0 ff ff       	call   40a0d0 <cos_print_str>
  40c077:	e8 54 e0 ff ff       	call   40a0d0 <cos_print_str>
  40c093:	e8 38 e0 ff ff       	call   40a0d0 <cos_print_str>
  40c0e8:	e8 e3 df ff ff       	call   40a0d0 <cos_print_str>
  40c135:	e8 b6 29 00 00       	call   40eaf0 <cos_thd_alloc_ext>
  40c151:	e8 ea 59 00 00       	call   411b40 <cos_introspect>
  40c161:	e8 3a 5a 00 00       	call   411ba0 <cos_tcap_alloc>
  40c18a:	e8 21 49 00 00       	call   410ab0 <cos_arcv_alloc>
  40c1bd:	e8 0e df ff ff       	call   40a0d0 <cos_print_str>
  40c1da:	e8 f1 de ff ff       	call   40a0d0 <cos_print_str>
  40c1fa:	e8 d1 de ff ff       	call   40a0d0 <cos_print_str>
  40c216:	e8 b5 de ff ff       	call   40a0d0 <cos_print_str>
  40c232:	e8 99 de ff ff       	call   40a0d0 <cos_print_str>
  40c24e:	e8 7d de ff ff       	call   40a0d0 <cos_print_str>
  40c2c6:	e8 25 28 00 00       	call   40eaf0 <cos_thd_alloc_ext>
  40c2e2:	e8 59 58 00 00       	call   411b40 <cos_introspect>
  40c30c:	e8 9f 47 00 00       	call   410ab0 <cos_arcv_alloc>
  40c35a:	e8 71 dd ff ff       	call   40a0d0 <cos_print_str>
  40c375:	e8 26 58 00 00       	call   411ba0 <cos_tcap_alloc>
  40c393:	e8 38 dd ff ff       	call   40a0d0 <cos_print_str>
  40c3af:	e8 1c dd ff ff       	call   40a0d0 <cos_print_str>
  40c3cb:	e8 00 dd ff ff       	call   40a0d0 <cos_print_str>
  40c3e7:	e8 e4 dc ff ff       	call   40a0d0 <cos_print_str>
  40c403:	e8 c8 dc ff ff       	call   40a0d0 <cos_print_str>
  40c41f:	e8 ac dc ff ff       	call   40a0d0 <cos_print_str>
  40c43b:	e8 90 dc ff ff       	call   40a0d0 <cos_print_str>
  40c4a0:	e8 2b 33 00 00       	call   40f7d0 <cos_initthd_alloc>
  40c4bc:	e8 7f 56 00 00       	call   411b40 <cos_introspect>
  40c4cc:	e8 cf 56 00 00       	call   411ba0 <cos_tcap_alloc>
  40c4f7:	e8 b4 45 00 00       	call   410ab0 <cos_arcv_alloc>
  40c548:	e8 d3 25 00 00       	call   40eb20 <cos_thd_alloc>
  40c562:	e8 69 db ff ff       	call   40a0d0 <cos_print_str>
  40c57e:	e8 4d db ff ff       	call   40a0d0 <cos_print_str>
  40c59a:	e8 31 db ff ff       	call   40a0d0 <cos_print_str>
  40c5b6:	e8 15 db ff ff       	call   40a0d0 <cos_print_str>
  40c61e:	e8 ad 31 00 00       	call   40f7d0 <cos_initthd_alloc>
  40c63a:	e8 01 55 00 00       	call   411b40 <cos_introspect>
  40c66b:	e8 40 44 00 00       	call   410ab0 <cos_arcv_alloc>
  40c6b8:	e8 63 24 00 00       	call   40eb20 <cos_thd_alloc>
  40c6d2:	e8 f9 d9 ff ff       	call   40a0d0 <cos_print_str>
  40c6ed:	e8 ae 54 00 00       	call   411ba0 <cos_tcap_alloc>
  40c70b:	e8 c0 d9 ff ff       	call   40a0d0 <cos_print_str>
  40c727:	e8 a4 d9 ff ff       	call   40a0d0 <cos_print_str>
  40c743:	e8 88 d9 ff ff       	call   40a0d0 <cos_print_str>
  40c797:	e8 34 d9 ff ff       	call   40a0d0 <cos_print_str>
  40c847:	e8 54 8b 00 00       	call   4153a0 <vsnprintf>
  40c855:	e8 76 d8 ff ff       	call   40a0d0 <cos_print_str>
  40c942:	0f 05                	syscall 
		syscall_op_t op = km ? CAPTBL_OP_MEM_RETYPE2KERN : CAPTBL_OP_MEM_RETYPE2USER;
		if (call_cap_op(ci->mi.pgtbl_cap, op, ret, 0, 0, 0)) goto error;
  40c9af:	e8 1c d7 ff ff       	call   40a0d0 <cos_print_str>
  40c9cb:	e8 00 d7 ff ff       	call   40a0d0 <cos_print_str>
  40ca38:	e8 93 d6 ff ff       	call   40a0d0 <cos_print_str>
  40ca54:	e8 77 d6 ff ff       	call   40a0d0 <cos_print_str>
  40ca69:	e8 f2 fd ff ff       	call   40c860 <__mem_bump_alloc.constprop.0>
  40cad2:	e8 f9 d5 ff ff       	call   40a0d0 <cos_print_str>
  40cb34:	0f 05                	syscall 
	if (call_cap_op(meta->captbl_cap, CAPTBL_OP_CAPTBLACTIVATE, captblcap, meta->mi.pgtbl_cap, kmem, 1)) {
  40cb7f:	0f 05                	syscall 
	if (call_cap_op(ci->captbl_cap, CAPTBL_OP_CONS, captblcap, captblid_add, 0, 0)) {
  40cbc9:	e8 02 d5 ff ff       	call   40a0d0 <cos_print_str>
  40cbe5:	e8 e6 d4 ff ff       	call   40a0d0 <cos_print_str>
  40cbfa:	e8 e1 fd ff ff       	call   40c9e0 <__capid_captbl_check_expand>
  40cc23:	e8 a8 d4 ff ff       	call   40a0d0 <cos_print_str>
  40cc3f:	e8 8c d4 ff ff       	call   40a0d0 <cos_print_str>
  40cd83:	e8 d8 fa ff ff       	call   40c860 <__mem_bump_alloc.constprop.0>
		if (call_cap_op(meta->captbl_cap, CAPTBL_OP_PGTBLACTIVATE, pte_cap, meta->mi.pgtbl_cap, ptemem_cap,
  40cdcf:	0f 05                	syscall 
  40ce19:	0f 05                	syscall 
  40ce5f:	e8 6c d2 ff ff       	call   40a0d0 <cos_print_str>
  40ce96:	e8 45 fb ff ff       	call   40c9e0 <__capid_captbl_check_expand>
  40cead:	e8 ae f9 ff ff       	call   40c860 <__mem_bump_alloc.constprop.0>
  40cebc:	e8 0f d2 ff ff       	call   40a0d0 <cos_print_str>
  40ced8:	e8 f3 d1 ff ff       	call   40a0d0 <cos_print_str>
  40cf08:	e8 c3 d1 ff ff       	call   40a0d0 <cos_print_str>
  40d045:	e8 26 fc ff ff       	call   40cc70 <__bump_mem_expand_range>
  40d0ca:	e8 01 d0 ff ff       	call   40a0d0 <cos_print_str>
  40d0e6:	e8 e5 cf ff ff       	call   40a0d0 <cos_print_str>
  40d102:	e8 c9 cf ff ff       	call   40a0d0 <cos_print_str>
  40d11e:	e8 ad cf ff ff       	call   40a0d0 <cos_print_str>
  40d14f:	e8 cc fd ff ff       	call   40cf20 <__page_bump_valloc>
  40d253:	0f 05                	syscall 
		if (call_cap_op(ci->mi.pgtbl_cap, op, ret, 0, 0, 0)) goto error;
		if (call_cap_op(meta->mi.pgtbl_cap, CAPTBL_OP_MEMACTIVATE, umem, ci->pgtbl_cap, heap_cursor, PAGE_ORDER)) {
  40d2c8:	0f 05                	syscall 
  40d317:	e8 b4 cd ff ff       	call   40a0d0 <cos_print_str>
  40d370:	e8 5b cd ff ff       	call   40a0d0 <cos_print_str>
  40d38c:	e8 3f cd ff ff       	call   40a0d0 <cos_print_str>
  40d425:	e8 36 f4 ff ff       	call   40c860 <__mem_bump_alloc.constprop.0>
		if (call_cap_op(meta->captbl_cap, CAPTBL_OP_PGTBLACTIVATE, pte_cap, meta->mi.pgtbl_cap, ptemem_cap,
  40d477:	0f 05                	syscall 
  40d4c7:	0f 05                	syscall 
  40d502:	e8 c9 cb ff ff       	call   40a0d0 <cos_print_str>
  40d523:	e8 38 f3 ff ff       	call   40c860 <__mem_bump_alloc.constprop.0>
  40d532:	e8 99 cb ff ff       	call   40a0d0 <cos_print_str>
  40d54b:	e8 90 f4 ff ff       	call   40c9e0 <__capid_captbl_check_expand>
  40d578:	e8 53 cb ff ff       	call   40a0d0 <cos_print_str>
  40d869:	e8 62 c8 ff ff       	call   40a0d0 <cos_print_str>
  40d885:	e8 46 c8 ff ff       	call   40a0d0 <cos_print_str>
  40d8a1:	e8 2a c8 ff ff       	call   40a0d0 <cos_print_str>
  40d8bd:	e8 0e c8 ff ff       	call   40a0d0 <cos_print_str>
  40d993:	e8 48 f0 ff ff       	call   40c9e0 <__capid_captbl_check_expand>
  40d9ee:	e8 7d f2 ff ff       	call   40cc70 <__bump_mem_expand_range>
  40daa7:	e8 f4 f8 ff ff       	call   40d3a0 <__bump_mem_expand_intern>
  40daf1:	e8 da c5 ff ff       	call   40a0d0 <cos_print_str>
  40dba8:	e8 f3 f7 ff ff       	call   40d3a0 <__bump_mem_expand_intern>
  40dc2b:	e8 40 f0 ff ff       	call   40cc70 <__bump_mem_expand_range>
  40dd0e:	0f 05                	syscall 
		if (call_cap_op(meta->mi.pgtbl_cap, CAPTBL_OP_MEMMOVE, start_addr, ci->mi.pgtbl_cap, addr, 0)) BUG();
  40dd34:	e8 97 c3 ff ff       	call   40a0d0 <cos_print_str>
  40dd85:	e8 46 c3 ff ff       	call   40a0d0 <cos_print_str>
  40dda1:	e8 2a c3 ff ff       	call   40a0d0 <cos_print_str>
  40ddbd:	e8 0e c3 ff ff       	call   40a0d0 <cos_print_str>
  40de37:	0f 05                	syscall 
		ret = call_cap_op(root_source->captbl_cap, CAPTBL_OP_CAPCHECK, ci->captbl_cap, 0, 1, 0);
  40de70:	e8 5b ff ff ff       	call   40ddd0 <missing_captbl_node_expand>
  40deda:	0f 05                	syscall 
  40df01:	e8 5a e9 ff ff       	call   40c860 <__mem_bump_alloc.constprop.0>
  40df8d:	0f 05                	syscall 
				if (call_cap_op(root_source->captbl_cap, CAPTBL_OP_CAPTBLACTIVATE, frontier, root_source->mi.pgtbl_cap, kmem, 1)) {
  40dfdb:	0f 05                	syscall 
				if (call_cap_op(ci->captbl_cap, CAPTBL_OP_CONS, frontier, test_cap, 0, 0)) {
					ret = call_cap_op(root_source->captbl_cap, CAPTBL_OP_CAPCHECK, ci->captbl_cap, 384, 0, 0);
  40e02b:	0f 05                	syscall 
  40e04f:	e8 5c e7 ff ff       	call   40c7b0 <printc.constprop.0>
  40e05e:	e8 6d c0 ff ff       	call   40a0d0 <cos_print_str>
  40e077:	e8 64 e9 ff ff       	call   40c9e0 <__capid_captbl_check_expand>
  40e0bf:	e8 0c c0 ff ff       	call   40a0d0 <cos_print_str>
  40e133:	0f 05                	syscall 
  40e159:	e8 02 e7 ff ff       	call   40c860 <__mem_bump_alloc.constprop.0>
  40e19b:	0f 05                	syscall 
				if (call_cap_op(root_source->captbl_cap, CAPTBL_OP_CAPTBLACTIVATE, frontier, root_source->mi.pgtbl_cap, kmem, 1)) {
  40e1eb:	0f 05                	syscall 
				if (call_cap_op(root_source->captbl_cap, CAPTBL_OP_CONS, frontier, test_cap, 0, 0)) {
  40e218:	e8 b3 be ff ff       	call   40a0d0 <cos_print_str>
  40e234:	e8 97 be ff ff       	call   40a0d0 <cos_print_str>
  40e250:	e8 7b be ff ff       	call   40a0d0 <cos_print_str>
  40e26c:	e8 5f be ff ff       	call   40a0d0 <cos_print_str>
  40e288:	e8 43 be ff ff       	call   40a0d0 <cos_print_str>
  40e2cb:	e8 00 fb ff ff       	call   40ddd0 <missing_captbl_node_expand>
  40e327:	e8 34 e5 ff ff       	call   40c860 <__mem_bump_alloc.constprop.0>
  40e396:	e8 35 bd ff ff       	call   40a0d0 <cos_print_str>
  40e46f:	0f 05                	syscall 
	if (call_cap_op(meta->captbl_cap, CAPTBL_OP_CAPTBLACTIVATE, captblcap, meta->mi.pgtbl_cap, kmem, 1)) {
  40e4c5:	0f 05                	syscall 
	if (call_cap_op(ci->captbl_cap, CAPTBL_OP_CONS, captblcap, captblid_add, 0, 0)) {
  40e50d:	e8 be bb ff ff       	call   40a0d0 <cos_print_str>
  40e529:	e8 a2 bb ff ff       	call   40a0d0 <cos_print_str>
  40e545:	e8 86 bb ff ff       	call   40a0d0 <cos_print_str>
  40e561:	e8 6a bb ff ff       	call   40a0d0 <cos_print_str>
  40e57d:	e8 4e bb ff ff       	call   40a0d0 <cos_print_str>
  40e596:	e8 45 e4 ff ff       	call   40c9e0 <__capid_captbl_check_expand>
  40e5c3:	e8 08 bb ff ff       	call   40a0d0 <cos_print_str>
  40e5df:	e8 ec ba ff ff       	call   40a0d0 <cos_print_str>
  40e67a:	e8 e1 e1 ff ff       	call   40c860 <__mem_bump_alloc.constprop.0>
	if (call_cap_op(ci_resources->captbl_cap, CAPTBL_OP_ULK_MEMACTIVATE, cap << 16 | lid, ci_resources->mi.pgtbl_cap << 16 | ulkpt, kmem, uaddr))
  40e737:	0f 05                	syscall 
  40e777:	e8 64 e2 ff ff       	call   40c9e0 <__capid_captbl_check_expand>
  40e7aa:	e8 21 b9 ff ff       	call   40a0d0 <cos_print_str>
  40e7d4:	e8 f7 b8 ff ff       	call   40a0d0 <cos_print_str>
  40e7f0:	e8 db b8 ff ff       	call   40a0d0 <cos_print_str>
  40e86e:	e8 bd fd ff ff       	call   40e630 <cos_ulk_page_alloc>
  40e894:	e8 c7 df ff ff       	call   40c860 <__mem_bump_alloc.constprop.0>
	ret = call_cap_op(ci->captbl_cap, CAPTBL_OP_THDACTIVATE, (init_data << 16) | cap,
	ret = call_cap_op(ci->captbl_cap, CAPTBL_OP_THDACTIVATE, (init_data << 16) | cap,
	ret = call_cap_op(ci->captbl_cap, CAPTBL_OP_THDACTIVATE, (init_data << 16) | cap,
  40e950:	0f 05                	syscall 
  40e98f:	e8 4c e0 ff ff       	call   40c9e0 <__capid_captbl_check_expand>
  40e9ca:	e8 01 b7 ff ff       	call   40a0d0 <cos_print_str>
  40e9f3:	e8 d8 b6 ff ff       	call   40a0d0 <cos_print_str>
  40ea0f:	e8 bc b6 ff ff       	call   40a0d0 <cos_print_str>
  40ea2b:	e8 a0 b6 ff ff       	call   40a0d0 <cos_print_str>
  40eaa0:	0f 05                	syscall 
	if (call_cap_op(ptc, CAPTBL_OP_CONS, __cos_ulk_info.secondlvl, ULK_BASE_ADDR, 0, 0)) {
  40ead5:	e8 f6 b5 ff ff       	call   40a0d0 <cos_print_str>
  40ebb7:	e8 54 fc ff ff       	call   40e810 <__cos_thd_alloc>
  40ebf5:	e8 d6 b4 ff ff       	call   40a0d0 <cos_print_str>
  40ec39:	e8 22 dc ff ff       	call   40c860 <__mem_bump_alloc.constprop.0>
	ret = call_cap_op(meta->mi.pgtbl_cap, CAPTBL_OP_MEMACTIVATE, ptemem_cap, ci->pgtbl_cap, mem_ptr, PAGE_ORDER);
  40ec80:	0f 05                	syscall 
  40ecba:	e8 11 b4 ff ff       	call   40a0d0 <cos_print_str>
  40ecd6:	e8 f5 b3 ff ff       	call   40a0d0 <cos_print_str>
  40ecf2:	e8 d9 b3 ff ff       	call   40a0d0 <cos_print_str>
  40ed37:	e8 24 db ff ff       	call   40c860 <__mem_bump_alloc.constprop.0>
  40ed55:	e8 c6 e1 ff ff       	call   40cf20 <__page_bump_valloc>
	ret = call_cap_op(meta->mi.pgtbl_cap, CAPTBL_OP_MEMACTIVATE, kmem, ci->pgtbl_cap, heap_vaddr, PAGE_ORDER);
  40ed99:	0f 05                	syscall 
  40edda:	e8 f1 b2 ff ff       	call   40a0d0 <cos_print_str>
  40edf6:	e8 d5 b2 ff ff       	call   40a0d0 <cos_print_str>
  40ee12:	e8 b9 b2 ff ff       	call   40a0d0 <cos_print_str>
  40ee2e:	e8 9d b2 ff ff       	call   40a0d0 <cos_print_str>
  40ef26:	0f 05                	syscall 
		if (call_cap_op(ci->mi.pgtbl_cap, op, ret, 0, 0, 0)) goto error;
  40ef95:	e8 36 b1 ff ff       	call   40a0d0 <cos_print_str>
  40efd3:	e8 f8 b0 ff ff       	call   40a0d0 <cos_print_str>
  40efef:	e8 dc b0 ff ff       	call   40a0d0 <cos_print_str>
	if (call_cap_op(ci->captbl_cap, CAPTBL_OP_VM_VMCS_ACTIVATE, kmem, __compinfo_metacap(ci)->mi.pgtbl_cap, cap, 0)) BUG();
  40f0b6:	0f 05                	syscall 
  40f0ea:	e8 e1 af ff ff       	call   40a0d0 <cos_print_str>
	if (call_cap_op(ci->captbl_cap, CAPTBL_OP_VM_VMCS_ACTIVATE, kmem, __compinfo_metacap(ci)->mi.pgtbl_cap, cap, 0)) BUG();
  40f0ff:	e8 dc d8 ff ff       	call   40c9e0 <__capid_captbl_check_expand>
  40f11e:	e8 ad af ff ff       	call   40a0d0 <cos_print_str>
	if (call_cap_op(ci->captbl_cap, CAPTBL_OP_VM_MSR_BITMAP_ACTIVATE, kmem, __compinfo_metacap(ci)->mi.pgtbl_cap, cap, 0)) BUG();
  40f1f6:	0f 05                	syscall 
  40f22a:	e8 a1 ae ff ff       	call   40a0d0 <cos_print_str>
	if (call_cap_op(ci->captbl_cap, CAPTBL_OP_VM_MSR_BITMAP_ACTIVATE, kmem, __compinfo_metacap(ci)->mi.pgtbl_cap, cap, 0)) BUG();
  40f23f:	e8 9c d7 ff ff       	call   40c9e0 <__capid_captbl_check_expand>
  40f25e:	e8 6d ae ff ff       	call   40a0d0 <cos_print_str>
	if (call_cap_op(ci->captbl_cap, CAPTBL_OP_VM_LAPIC_ACTIVATE, kmem, __compinfo_metacap(ci)->mi.pgtbl_cap, cap, 0)) BUG();
  40f336:	0f 05                	syscall 
  40f36a:	e8 61 ad ff ff       	call   40a0d0 <cos_print_str>
	if (call_cap_op(ci->captbl_cap, CAPTBL_OP_VM_LAPIC_ACTIVATE, kmem, __compinfo_metacap(ci)->mi.pgtbl_cap, cap, 0)) BUG();
  40f37f:	e8 5c d6 ff ff       	call   40c9e0 <__capid_captbl_check_expand>
  40f39e:	e8 2d ad ff ff       	call   40a0d0 <cos_print_str>
	if (call_cap_op(ci->captbl_cap, CAPTBL_OP_VM_SHARED_MEM_ACTIVATE, kmem, __compinfo_metacap(ci)->mi.pgtbl_cap, cap, 0)) BUG();
  40f476:	0f 05                	syscall 
  40f4aa:	e8 21 ac ff ff       	call   40a0d0 <cos_print_str>
	if (call_cap_op(ci->captbl_cap, CAPTBL_OP_VM_SHARED_MEM_ACTIVATE, kmem, __compinfo_metacap(ci)->mi.pgtbl_cap, cap, 0)) BUG();
  40f4bf:	e8 1c d5 ff ff       	call   40c9e0 <__capid_captbl_check_expand>
  40f4de:	e8 ed ab ff ff       	call   40a0d0 <cos_print_str>
	if (call_cap_op(ci->captbl_cap, CAPTBL_OP_VM_LAPIC_ACCESS_ACTIVATE, kmem, __compinfo_metacap(ci)->mi.pgtbl_cap, cap, 0)) BUG();
  40f5b6:	0f 05                	syscall 
  40f5ea:	e8 e1 aa ff ff       	call   40a0d0 <cos_print_str>
	if (call_cap_op(ci->captbl_cap, CAPTBL_OP_VM_LAPIC_ACCESS_ACTIVATE, kmem, __compinfo_metacap(ci)->mi.pgtbl_cap, cap, 0)) BUG();
  40f5ff:	e8 dc d3 ff ff       	call   40c9e0 <__capid_captbl_check_expand>
  40f61e:	e8 ad aa ff ff       	call   40a0d0 <cos_print_str>
	if (call_cap_op(ci->captbl_cap, CAPTBL_OP_VM_VMCB_ACTIVATE, arg1, arg2, 0, 0)) BUG();
  40f725:	0f 05                	syscall 
	if (call_cap_op(ci->captbl_cap, CAPTBL_OP_VM_VMCB_ACTIVATE, arg1, arg2, 0, 0)) BUG();
  40f75f:	e8 7c d2 ff ff       	call   40c9e0 <__capid_captbl_check_expand>
  40f78e:	e8 3d a9 ff ff       	call   40a0d0 <cos_print_str>
	if (call_cap_op(ci->captbl_cap, CAPTBL_OP_VM_VMCB_ACTIVATE, arg1, arg2, 0, 0)) BUG();
  40f7b5:	e8 16 a9 ff ff       	call   40a0d0 <cos_print_str>
  40f83b:	e8 f0 ed ff ff       	call   40e630 <cos_ulk_page_alloc>
  40f865:	e8 f6 cf ff ff       	call   40c860 <__mem_bump_alloc.constprop.0>
	ret = call_cap_op(ci->captbl_cap, CAPTBL_OP_THDACTIVATE, (init_data << 16) | cap,
  40f912:	0f 05                	syscall 
  40f953:	e8 88 d0 ff ff       	call   40c9e0 <__capid_captbl_check_expand>
  40f9a2:	e8 29 a7 ff ff       	call   40a0d0 <cos_print_str>
  40f9be:	e8 0d a7 ff ff       	call   40a0d0 <cos_print_str>
  40f9da:	e8 f1 a6 ff ff       	call   40a0d0 <cos_print_str>
  40fa1f:	e8 3c ce ff ff       	call   40c860 <__mem_bump_alloc.constprop.0>
	if (call_cap_op(ci->captbl_cap, CAPTBL_OP_CAPTBLACTIVATE, cap, __compinfo_metacap(ci)->mi.pgtbl_cap, kmem, 0))
  40fab8:	0f 05                	syscall 
  40faf3:	e8 e8 ce ff ff       	call   40c9e0 <__capid_captbl_check_expand>
  40fb2a:	e8 a1 a5 ff ff       	call   40a0d0 <cos_print_str>
  40fb46:	e8 85 a5 ff ff       	call   40a0d0 <cos_print_str>
  40fb84:	e8 d7 cc ff ff       	call   40c860 <__mem_bump_alloc.constprop.0>
	if (call_cap_op(ci->captbl_cap, CAPTBL_OP_PGTBLACTIVATE, cap, __compinfo_metacap(ci)->mi.pgtbl_cap, kmem, lvl))
  40fc25:	0f 05                	syscall 
	if (call_cap_op(ci->captbl_cap, CAPTBL_OP_PGTBLACTIVATE, cap, __compinfo_metacap(ci)->mi.pgtbl_cap, kmem, lvl))
  40fc5b:	e8 80 cd ff ff       	call   40c9e0 <__capid_captbl_check_expand>
  40fc92:	e8 39 a4 ff ff       	call   40a0d0 <cos_print_str>
  40fcae:	e8 1d a4 ff ff       	call   40a0d0 <cos_print_str>
  40fd03:	e8 58 fe ff ff       	call   40fb60 <cos_pgtbl_alloc>
  40fd21:	e8 7a d6 ff ff       	call   40d3a0 <__bump_mem_expand_intern>
  40fd5e:	e8 3d d6 ff ff       	call   40d3a0 <__bump_mem_expand_intern>
  40fe1b:	e8 40 ca ff ff       	call   40c860 <__mem_bump_alloc.constprop.0>
		if (call_cap_op(meta->captbl_cap, CAPTBL_OP_PGTBLACTIVATE, pte_cap, meta->mi.pgtbl_cap, ptemem_cap,
  40fe74:	0f 05                	syscall 
  40feb9:	0f 05                	syscall 
  40ff1a:	e8 b1 a1 ff ff       	call   40a0d0 <cos_print_str>
  40ff2f:	e8 ac ca ff ff       	call   40c9e0 <__capid_captbl_check_expand>
  40ff46:	e8 15 c9 ff ff       	call   40c860 <__mem_bump_alloc.constprop.0>
  40ff55:	e8 76 a1 ff ff       	call   40a0d0 <cos_print_str>
  40ff85:	e8 46 a1 ff ff       	call   40a0d0 <cos_print_str>
  40ffa1:	e8 2a a1 ff ff       	call   40a0d0 <cos_print_str>
  40ffe7:	e8 74 fb ff ff       	call   40fb60 <cos_pgtbl_alloc>
  410005:	e8 96 d3 ff ff       	call   40d3a0 <__bump_mem_expand_intern>
  410047:	e8 84 a0 ff ff       	call   40a0d0 <cos_print_str>
  410076:	e8 25 d3 ff ff       	call   40d3a0 <__bump_mem_expand_intern>
  410133:	e8 28 c7 ff ff       	call   40c860 <__mem_bump_alloc.constprop.0>
		if (call_cap_op(meta->captbl_cap, CAPTBL_OP_PGTBLACTIVATE, pte_cap, meta->mi.pgtbl_cap, ptemem_cap,
  41018c:	0f 05                	syscall 
  4101d1:	0f 05                	syscall 
  410265:	e8 66 9e ff ff       	call   40a0d0 <cos_print_str>
  41027a:	e8 61 c7 ff ff       	call   40c9e0 <__capid_captbl_check_expand>
  410291:	e8 ca c5 ff ff       	call   40c860 <__mem_bump_alloc.constprop.0>
  4102a0:	e8 2b 9e ff ff       	call   40a0d0 <cos_print_str>
  4102d0:	e8 fb 9d ff ff       	call   40a0d0 <cos_print_str>
  4102ec:	e8 df 9d ff ff       	call   40a0d0 <cos_print_str>
	if (call_cap_op(ci->captbl_cap, CAPTBL_OP_COMPACTIVATE, comp, (ctc << 16) | ptc, ((unsigned long)lid << 32) | protdom, entry)) return 1;
	if (call_cap_op(ci->captbl_cap, CAPTBL_OP_COMPACTIVATE, comp, (ctc << 16) | ptc, ((unsigned long)lid << 32) | protdom, entry)) return 1;
	if (call_cap_op(ci->captbl_cap, CAPTBL_OP_COMPACTIVATE, comp, (ctc << 16) | ptc, ((unsigned long)lid << 32) | protdom, entry)) return 1;
	if (call_cap_op(ci->captbl_cap, CAPTBL_OP_COMPACTIVATE, comp, (ctc << 16) | ptc, ((unsigned long)lid << 32) | protdom, entry)) return 1;
  410352:	0f 05                	syscall 
	if (call_cap_op(ci->captbl_cap, CAPTBL_OP_COMPACTIVATE, comp, (ctc << 16) | ptc, ((unsigned long)lid << 32) | protdom, entry)) return 1;
	if (call_cap_op(ci->captbl_cap, CAPTBL_OP_COMPACTIVATE, comp, (ctc << 16) | ptc, ((unsigned long)lid << 32) | protdom, entry)) return 1;
  41046d:	0f 05                	syscall 
  4104aa:	e8 21 9c ff ff       	call   40a0d0 <cos_print_str>
  4104cf:	e8 0c c5 ff ff       	call   40c9e0 <__capid_captbl_check_expand>
  410512:	e8 b9 9b ff ff       	call   40a0d0 <cos_print_str>
	if (call_cap_op(ci->captbl_cap, CAPTBL_OP_COMPACTIVATE, comp, (ctc << 16) | ptc, ((unsigned long)lid << 32) | protdom, entry)) return 1;
  410626:	0f 05                	syscall 
  41066a:	e8 61 9a ff ff       	call   40a0d0 <cos_print_str>
  41068e:	e8 4d c3 ff ff       	call   40c9e0 <__capid_captbl_check_expand>
  4106c2:	e8 09 9a ff ff       	call   40a0d0 <cos_print_str>
  4106de:	e8 ed 99 ff ff       	call   40a0d0 <cos_print_str>
  4106fa:	e8 d1 99 ff ff       	call   40a0d0 <cos_print_str>
  410722:	e8 a9 99 ff ff       	call   40a0d0 <cos_print_str>
  4107ac:	e8 af f3 ff ff       	call   40fb60 <cos_pgtbl_alloc>
  4107c0:	e8 3b f2 ff ff       	call   40fa00 <cos_captbl_alloc>
  4107e3:	e8 98 fb ff ff       	call   410380 <cos_comp_alloc>
  410811:	e8 0a cf ff ff       	call   40d720 <cos_compinfo_init>
  410826:	e8 75 cb ff ff       	call   40d3a0 <__bump_mem_expand_intern>
  410880:	e8 1b cb ff ff       	call   40d3a0 <__bump_mem_expand_intern>
  4108a1:	e8 fa ca ff ff       	call   40d3a0 <__bump_mem_expand_intern>
  4108cc:	e8 cf ca ff ff       	call   40d3a0 <__bump_mem_expand_intern>
  4108ec:	e8 df 97 ff ff       	call   40a0d0 <cos_print_str>
  410908:	e8 c3 97 ff ff       	call   40a0d0 <cos_print_str>
  410924:	e8 a7 97 ff ff       	call   40a0d0 <cos_print_str>
  410973:	e8 58 d4 ff ff       	call   40ddd0 <missing_captbl_node_expand>
	if (call_cap_op(srcci->captbl_cap, CAPTBL_OP_SINVACTIVATE, cap, dstcomp, entry, token)) BUG();
  4109fc:	0f 05                	syscall 
  410a37:	e8 a4 bf ff ff       	call   40c9e0 <__capid_captbl_check_expand>
  410a6a:	e8 61 96 ff ff       	call   40a0d0 <cos_print_str>
	if (call_cap_op(srcci->captbl_cap, CAPTBL_OP_SINVACTIVATE, cap, dstcomp, entry, token)) BUG();
  410a94:	e8 37 96 ff ff       	call   40a0d0 <cos_print_str>
	if ((ret = call_cap_op(ci->captbl_cap, CAPTBL_OP_ARCVACTIVATE, cap, thdcap | (tcapcap << 16), compcap, arcvcap))) BUG();
  410b80:	0f 05                	syscall 
  410bc3:	e8 18 be ff ff       	call   40c9e0 <__capid_captbl_check_expand>
  410bfa:	e8 d1 94 ff ff       	call   40a0d0 <cos_print_str>
	if ((ret = call_cap_op(ci->captbl_cap, CAPTBL_OP_ARCVACTIVATE, cap, thdcap | (tcapcap << 16), compcap, arcvcap))) BUG();
  410c24:	e8 a7 94 ff ff       	call   40a0d0 <cos_print_str>
	if (call_cap_op(ci->captbl_cap, CAPTBL_OP_ASNDACTIVATE, cap, ctcap, arcvcap, 0)) BUG();
  410cfb:	0f 05                	syscall 
  410d33:	e8 a8 bc ff ff       	call   40c9e0 <__capid_captbl_check_expand>
  410d62:	e8 69 93 ff ff       	call   40a0d0 <cos_print_str>
	if (call_cap_op(ci->captbl_cap, CAPTBL_OP_ASNDACTIVATE, cap, ctcap, arcvcap, 0)) BUG();
  410d8c:	e8 3f 93 ff ff       	call   40a0d0 <cos_print_str>
	if (call_cap_op(ci->captbl_cap, CAPTBL_OP_HW_ACTIVATE, cap, bitmap, 0, 0)) BUG();
  410e43:	0f 05                	syscall 
  410e7b:	e8 60 bb ff ff       	call   40c9e0 <__capid_captbl_check_expand>
  410eaa:	e8 21 92 ff ff       	call   40a0d0 <cos_print_str>
	if (call_cap_op(ci->captbl_cap, CAPTBL_OP_HW_ACTIVATE, cap, bitmap, 0, 0)) BUG();
  410ed4:	e8 f7 91 ff ff       	call   40a0d0 <cos_print_str>
  410f14:	e8 b7 91 ff ff       	call   40a0d0 <cos_print_str>
  410f58:	e8 73 91 ff ff       	call   40a0d0 <cos_print_str>
  410f74:	e8 57 91 ff ff       	call   40a0d0 <cos_print_str>
	if (call_cap_op(srcci->captbl_cap, CAPTBL_OP_CPY, srccap, dstci->captbl_cap, dstcap, 0)) BUG();
  411084:	0f 05                	syscall 
  4110df:	e8 fc b8 ff ff       	call   40c9e0 <__capid_captbl_check_expand>
  41112a:	e8 a1 8f ff ff       	call   40a0d0 <cos_print_str>
	if (call_cap_op(srcci->captbl_cap, CAPTBL_OP_CPY, srccap, dstci->captbl_cap, dstcap, 0)) BUG();
  411157:	e8 74 8f ff ff       	call   40a0d0 <cos_print_str>
	if (call_cap_op(srcci->captbl_cap, CAPTBL_OP_CPY, srccap, dstci->captbl_cap, dstcap, 0)) BUG();
  4111c3:	0f 05                	syscall 
  4111fa:	e8 d1 8e ff ff       	call   40a0d0 <cos_print_str>
	if (call_cap_op(srcci->captbl_cap, CAPTBL_OP_CPY, srccap, dstci->captbl_cap, dstcap, 0)) BUG();
  411216:	e8 b5 8e ff ff       	call   40a0d0 <cos_print_str>
  411264:	0f 05                	syscall 
	return call_cap_op(c, 0, 0, 0, 0, 0);
	return call_cap_op(tc, CAPTBL_OP_TCAP_WAKEUP, thd, (prio << 32) >> 32, prio >> 32, res);
  4112d3:	0f 05                	syscall 
	return call_cap_op(c, tc, stok, prio, rcv, timeout);
  411361:	0f 05                	syscall 
	return call_cap_op(c, (stok >> 16), tc << 16 | rcv, (prio << 32) >> 32,
	return call_cap_op(snd, 0, srcv, stok, timeout, 0);
  4113cb:	0f 05                	syscall 
  411424:	0f 05                	syscall 
	return call_cap_op(snd, 0, 0, 0, 0, yield);
  411495:	0f 05                	syscall 
	ret = call_cap_retvals_asm(rcv, 0, flags, timeout, 0, 0, &thd_state, &cyc, thd_timeout);
  41153f:	0f 05                	syscall 
  41159a:	e8 31 8b ff ff       	call   40a0d0 <cos_print_str>
  411610:	e8 0b b9 ff ff       	call   40cf20 <__page_bump_valloc>
  411660:	0f 05                	syscall 
		if (call_cap_op(srcci->pgtbl_cap, CAPTBL_OP_CPY, src, dstci->pgtbl_cap, dst, perm_flags)) return 0;
  4116b7:	e8 14 8a ff ff       	call   40a0d0 <cos_print_str>
  4116d3:	e8 f8 89 ff ff       	call   40a0d0 <cos_print_str>
  4116ef:	e8 dc 89 ff ff       	call   40a0d0 <cos_print_str>
	if (call_cap_op(srcci->pgtbl_cap, CAPTBL_OP_CPY, src, dstci->pgtbl_cap, dst, perm_flags)) BUG();
  41179c:	0f 05                	syscall 
  4117d2:	e8 f9 88 ff ff       	call   40a0d0 <cos_print_str>
	if (call_cap_op(srcci->pgtbl_cap, CAPTBL_OP_CPY, src, dstci->pgtbl_cap, dst, perm_flags)) BUG();
  4117ee:	e8 dd 88 ff ff       	call   40a0d0 <cos_print_str>
  411895:	0f 05                	syscall 
		if (call_cap_op(srcci->pgtbl_cap, CAPTBL_OP_CPY, src + i * PAGE_SIZE, dstci->pgtbl_cap, dst + i * PAGE_SIZE, perm_flags)) BUG();
  4118bc:	e8 0f 88 ff ff       	call   40a0d0 <cos_print_str>
  4118eb:	e8 e0 87 ff ff       	call   40a0d0 <cos_print_str>
  411907:	e8 c4 87 ff ff       	call   40a0d0 <cos_print_str>
  411932:	e8 99 87 ff ff       	call   40a0d0 <cos_print_str>
  411986:	e8 95 b5 ff ff       	call   40cf20 <__page_bump_valloc>
	if (call_cap_op(srcci->pgtbl_cap, CAPTBL_OP_MEMMOVE, src, dstci->pgtbl_cap, dst, 0)) BUG();
  4119c0:	0f 05                	syscall 
  4119fa:	e8 d1 86 ff ff       	call   40a0d0 <cos_print_str>
	if (call_cap_op(srcci->pgtbl_cap, CAPTBL_OP_MEMMOVE, src, dstci->pgtbl_cap, dst, 0)) BUG();
  411a16:	e8 b5 86 ff ff       	call   40a0d0 <cos_print_str>
	if (call_cap_op(srcci->pgtbl_cap, CAPTBL_OP_MEMMOVE, src, dstci->pgtbl_cap, dst, 0)) BUG();
  411a7e:	0f 05                	syscall 
  411ab2:	e8 19 86 ff ff       	call   40a0d0 <cos_print_str>
	if (call_cap_op(srcci->pgtbl_cap, CAPTBL_OP_MEMMOVE, src, dstci->pgtbl_cap, dst, 0)) BUG();
  411ace:	e8 fd 85 ff ff       	call   40a0d0 <cos_print_str>
	return call_cap_op(ci->captbl_cap, CAPTBL_OP_THDTLSSET, tc, (word_t)tlsaddr, 0, 0);
  411b1d:	0f 05                	syscall 
	return call_cap_op(ci->captbl_cap, CAPTBL_OP_INTROSPECT, cap, (int)op, 0, 0);
	return call_cap_op(ci->captbl_cap, CAPTBL_OP_INTROSPECT, cap, (int)op, 0, 0);
  411b7d:	0f 05                	syscall 
  411bbf:	e8 9c ac ff ff       	call   40c860 <__mem_bump_alloc.constprop.0>
	if (call_cap_op(ci->captbl_cap, CAPTBL_OP_TCAP_ACTIVATE, (cap << 16) | __compinfo_metacap(ci)->mi.pgtbl_cap,
  411c62:	0f 05                	syscall 
  411c9b:	e8 40 ad ff ff       	call   40c9e0 <__capid_captbl_check_expand>
  411cda:	e8 f1 83 ff ff       	call   40a0d0 <cos_print_str>
  411cf6:	e8 d5 83 ff ff       	call   40a0d0 <cos_print_str>
	return call_cap_op(src, CAPTBL_OP_TCAP_TRANSFER, dst, res, prio_higher, prio_lower);
	return call_cap_op(src, CAPTBL_OP_TCAP_TRANSFER, dst, res, prio_higher, prio_lower);
  411d54:	0f 05                	syscall 
	return call_cap_op(src, CAPTBL_OP_TCAP_DELEGATE, dst, res, prio_higher, prio_lower);
  411dd1:	0f 05                	syscall 
  411e37:	0f 05                	syscall 
	return call_cap_op(dst, CAPTBL_OP_TCAP_MERGE, rm, 0, 0, 0);
	return call_cap_op(hwc, CAPTBL_OP_HW_ATTACH, hwid, arcv, 0, 0);
  411e99:	0f 05                	syscall 
	return call_cap_op(hwc, CAPTBL_OP_HW_DETACH, hwid, 0, 0, 0);
  411ef6:	0f 05                	syscall 
	while (cycs <= 0) cycs = call_cap_op(hwc, CAPTBL_OP_HW_CYC_USEC, 0, 0, 0, 0);
  411f73:	0f 05                	syscall 
	while (cycs <= 0) cycs = call_cap_op(hwc, CAPTBL_OP_HW_CYC_USEC, 0, 0, 0, 0);
  411fef:	0f 05                	syscall 
	return call_cap_op(hwc, CAPTBL_OP_HW_TLB_LOCKDOWN, entryid, vaddr, paddr, 0);
  412057:	0f 05                	syscall 
	return call_cap_op(hwc, CAPTBL_OP_HW_L1FLUSH, 0, 0, 0, 0);
  4120b7:	0f 05                	syscall 
	return call_cap_op(hwc, CAPTBL_OP_HW_TLBFLUSH, 0, 0, 0, 0);
  412117:	0f 05                	syscall 
	return call_cap_op(hwc, CAPTBL_OP_HW_TLBSTALL, 0, 0, 0, 0);
  412177:	0f 05                	syscall 
	return call_cap_op(hwc, CAPTBL_OP_HW_TLBSTALL_RECOUNT, 0, 0, 0, 0);
  4121d7:	0f 05                	syscall 
	return call_cap_op(hwc, CAPTBL_OP_HW_CYC_THRESH, 0, 0, 0, 0);
  412237:	0f 05                	syscall 
	call_cap_op(hwc, CAPTBL_OP_HW_SHUTDOWN, 0, 0, 0, 0);
  4122bd:	e8 5e ac ff ff       	call   40cf20 <__page_bump_valloc>
  41231b:	0f 05                	syscall 
		if (call_cap_op(hwc, CAPTBL_OP_HW_MAP, ci->pgtbl_cap, va + i, pa + i, 0)) BUG();
  412344:	e8 87 7d ff ff       	call   40a0d0 <cos_print_str>
  41237c:	e8 4f 7d ff ff       	call   40a0d0 <cos_print_str>
  41241c:	0f 05                	syscall 
	if (call_cap_op(top_lvl, CAPTBL_OP_CONS, pte_cap, pgtbl_addr, 0, 0)) {
	if (call_cap_op(top_lvl, CAPTBL_OP_CONS, pte_cap, pgtbl_addr, 0, 0)) {
  41245a:	e8 71 7c ff ff       	call   40a0d0 <cos_print_str>
  4124f8:	e8 a3 f1 fe ff       	call   4016a0 <slm_thd_sched_policy>
  412530:	e8 6b f1 fe ff       	call   4016a0 <slm_thd_sched_policy>
  412575:	e8 56 7b ff ff       	call   40a0d0 <cos_print_str>
  4125a0:	e8 fb f0 fe ff       	call   4016a0 <slm_thd_sched_policy>
  412600:	e8 9b f0 fe ff       	call   4016a0 <slm_thd_sched_policy>
  412628:	e8 73 f0 fe ff       	call   4016a0 <slm_thd_sched_policy>
  412680:	e8 1b f0 fe ff       	call   4016a0 <slm_thd_sched_policy>
  4126de:	e8 bd ef fe ff       	call   4016a0 <slm_thd_sched_policy>
  412720:	e8 7b ef fe ff       	call   4016a0 <slm_thd_sched_policy>
  41276b:	e8 60 79 ff ff       	call   40a0d0 <cos_print_str>
  412a58:	e8 d3 da fe ff       	call   400530 <slm_idle_comp_initialization>
  412a60:	e8 db ff ff ff       	call   412a40 <slm_idle_iteration>
  412a7f:	e8 0c ec fe ff       	call   401690 <slm_thd_timer_policy>
  412a9e:	e8 ed eb fe ff       	call   401690 <slm_thd_timer_policy>
  412aaa:	e8 e1 eb fe ff       	call   401690 <slm_thd_timer_policy>
  412b40:	e8 0b 22 00 00       	call   414d50 <heap_size>
  412b4e:	e8 0d 1f 00 00       	call   414a60 <heap_peek>
  412b5e:	e8 2d eb fe ff       	call   401690 <slm_thd_timer_policy>
  412b82:	e8 59 1d 00 00       	call   4148e0 <heap_highest>
  412b9e:	e8 8d 12 00 00       	call   413e30 <slm_thd_wakeup>
  412ba8:	e8 a3 21 00 00       	call   414d50 <heap_size>
  412bc6:	e8 05 75 ff ff       	call   40a0d0 <cos_print_str>
  412be2:	e8 e9 74 ff ff       	call   40a0d0 <cos_print_str>
  412bfe:	e8 cd 74 ff ff       	call   40a0d0 <cos_print_str>
  412c1a:	e8 b1 74 ff ff       	call   40a0d0 <cos_print_str>
  412c36:	e8 95 74 ff ff       	call   40a0d0 <cos_print_str>
  412c67:	e8 24 ea fe ff       	call   401690 <slm_thd_timer_policy>
  412c7e:	e8 cd 20 00 00       	call   414d50 <heap_size>
  412c94:	e8 17 1a 00 00       	call   4146b0 <heap_add>
  412cb0:	e8 1b 74 ff ff       	call   40a0d0 <cos_print_str>
  412ccc:	e8 ff 73 ff ff       	call   40a0d0 <cos_print_str>
  412ced:	e8 9e e9 fe ff       	call   401690 <slm_thd_timer_policy>
  412cff:	e8 4c 20 00 00       	call   414d50 <heap_size>
  412d13:	e8 68 1f 00 00       	call   414c80 <heap_remove>
  412d30:	e8 9b 73 ff ff       	call   40a0d0 <cos_print_str>
  412d4c:	e8 7f 73 ff ff       	call   40a0d0 <cos_print_str>
  412d68:	e8 23 e9 fe ff       	call   401690 <slm_thd_timer_policy>
  412dd3:	e8 38 18 00 00       	call   414610 <heap_init>
  412e2d:	e8 3e 29 00 00       	call   415770 <strlen>
	/* Only the scheduler thread should call this function. */
  412eaf:	e8 9c e5 ff ff       	call   411450 <cos_sched_rcv>
  412ec2:	e8 f9 e8 fe ff       	call   4017c0 <slm_thd_lookup>
  412f24:	e8 d7 e3 ff ff       	call   411300 <cos_sched_sync>
  412fc0:	e8 eb e7 fe ff       	call   4017b0 <slm_sched_execution>
  413010:	e8 5b e7 fe ff       	call   401770 <slm_sched_block>
  413053:	e8 a8 e2 ff ff       	call   411300 <cos_sched_sync>
  41308f:	e8 cc 96 ff ff       	call   40c760 <cos_defswitch>
  4130b0:	e8 4b e2 ff ff       	call   411300 <cos_sched_sync>
  4130db:	e8 80 87 ff ff       	call   40b860 <cos_defcompinfo_curr_get>
  4130e0:	e8 1b e2 ff ff       	call   411300 <cos_sched_sync>
  4130f5:	e8 a6 e6 fe ff       	call   4017a0 <slm_sched_schedule>
  413137:	e8 c4 e1 ff ff       	call   411300 <cos_sched_sync>
  413173:	e8 e8 95 ff ff       	call   40c760 <cos_defswitch>
  41318b:	e8 40 6f ff ff       	call   40a0d0 <cos_print_str>
  4131d2:	e8 a9 e5 fe ff       	call   401780 <slm_sched_wakeup>
  413208:	e8 53 95 ff ff       	call   40c760 <cos_defswitch>
  413225:	e8 a6 6e ff ff       	call   40a0d0 <cos_print_str>
  41328c:	e8 cf 94 ff ff       	call   40c760 <cos_defswitch>
  41329f:	e8 bc 85 ff ff       	call   40b860 <cos_defcompinfo_curr_get>
  4132c5:	e8 96 94 ff ff       	call   40c760 <cos_defswitch>
  4132f6:	e8 05 e0 ff ff       	call   411300 <cos_sched_sync>
  41332c:	e8 ef fa ff ff       	call   412e20 <prints.isra.0>
  413343:	e8 d8 fa ff ff       	call   412e20 <prints.isra.0>
  41335a:	e8 c1 fa ff ff       	call   412e20 <prints.isra.0>
  413395:	e8 36 e3 fe ff       	call   4016d0 <slm_timer_expire>
  4133b6:	e8 15 6d ff ff       	call   40a0d0 <cos_print_str>
  4133d2:	e8 f9 6c ff ff       	call   40a0d0 <cos_print_str>
  413413:	e8 b8 6c ff ff       	call   40a0d0 <cos_print_str>
  413458:	e8 c3 de ff ff       	call   411320 <cos_switch>
  41347a:	e8 51 6c ff ff       	call   40a0d0 <cos_print_str>
  41349d:	e8 ee de ff ff       	call   411390 <cos_sched_asnd>
  4134cb:	e8 50 de ff ff       	call   411320 <cos_switch>
  4134fe:	e8 5d 92 ff ff       	call   40c760 <cos_defswitch>
  413511:	e8 0a f9 ff ff       	call   412e20 <prints.isra.0>
  41352d:	e8 9e 6b ff ff       	call   40a0d0 <cos_print_str>
  413549:	e8 82 6b ff ff       	call   40a0d0 <cos_print_str>
  413729:	e8 32 81 ff ff       	call   40b860 <cos_defcompinfo_curr_get>
  413731:	e8 6a 81 ff ff       	call   40b8a0 <cos_sched_aep_get>
  4137bb:	e8 20 df fe ff       	call   4016e0 <slm_timer_thd_init>
  4137f0:	e8 5b df fe ff       	call   401750 <slm_sched_thd_deinit>
  4137f8:	e8 f3 de fe ff       	call   4016f0 <slm_timer_thd_deinit>
  413843:	e8 18 8f ff ff       	call   40c760 <cos_defswitch>
  413891:	e8 ca 8e ff ff       	call   40c760 <cos_defswitch>
  4138ad:	e8 1e 68 ff ff       	call   40a0d0 <cos_print_str>
  4138fe:	e8 6d de fe ff       	call   401770 <slm_sched_block>
  41391a:	e8 b1 67 ff ff       	call   40a0d0 <cos_print_str>
  413936:	e8 95 67 ff ff       	call   40a0d0 <cos_print_str>
  413965:	e8 66 67 ff ff       	call   40a0d0 <cos_print_str>
  413981:	e8 4a 67 ff ff       	call   40a0d0 <cos_print_str>
  4139c1:	e8 3a d9 ff ff       	call   411300 <cos_sched_sync>
  4139ef:	e8 cc fe ff ff       	call   4138c0 <slm_thd_block>
  4139fc:	e8 5f 7e ff ff       	call   40b860 <cos_defcompinfo_curr_get>
  413a0a:	e8 f1 d8 ff ff       	call   411300 <cos_sched_sync>
  413a12:	e8 89 dd fe ff       	call   4017a0 <slm_sched_schedule>
  413a48:	e8 b3 d8 ff ff       	call   411300 <cos_sched_sync>
  413a82:	e8 d9 8c ff ff       	call   40c760 <cos_defswitch>
  413a90:	e8 cb 7d ff ff       	call   40b860 <cos_defcompinfo_curr_get>
  413ab8:	e8 a3 8c ff ff       	call   40c760 <cos_defswitch>
  413af8:	e8 03 d8 ff ff       	call   411300 <cos_sched_sync>
  413b32:	e8 29 8c ff ff       	call   40c760 <cos_defswitch>
  413b46:	e8 85 65 ff ff       	call   40a0d0 <cos_print_str>
  413b89:	e8 d2 8b ff ff       	call   40c760 <cos_defswitch>
  413ba1:	e8 2a 65 ff ff       	call   40a0d0 <cos_print_str>
  413bbd:	e8 0e 65 ff ff       	call   40a0d0 <cos_print_str>
  413bea:	e8 11 d7 ff ff       	call   411300 <cos_sched_sync>
  413c2a:	e8 a1 64 ff ff       	call   40a0d0 <cos_print_str>
  413c79:	e8 a2 d6 ff ff       	call   411320 <cos_switch>
  413c99:	e8 32 64 ff ff       	call   40a0d0 <cos_print_str>
  413cd6:	e8 45 d6 ff ff       	call   411320 <cos_switch>
  413cfa:	e8 91 d6 ff ff       	call   411390 <cos_sched_asnd>
  413d0e:	e8 bd 63 ff ff       	call   40a0d0 <cos_print_str>
  413d4c:	e8 0f 8a ff ff       	call   40c760 <cos_defswitch>
  413d5f:	e8 bc f0 ff ff       	call   412e20 <prints.isra.0>
  413d82:	e8 49 63 ff ff       	call   40a0d0 <cos_print_str>
  413dcf:	e8 ac d9 fe ff       	call   401780 <slm_sched_wakeup>
  413de2:	e8 e9 62 ff ff       	call   40a0d0 <cos_print_str>
  413e13:	e8 b8 62 ff ff       	call   40a0d0 <cos_print_str>
  413e87:	e8 f4 d8 fe ff       	call   401780 <slm_sched_wakeup>
  413eb8:	e8 13 62 ff ff       	call   40a0d0 <cos_print_str>
  413f75:	e8 76 d4 ff ff       	call   4113f0 <cos_asnd>
  413f9b:	e8 30 61 ff ff       	call   40a0d0 <cos_print_str>
  413fba:	e8 11 61 ff ff       	call   40a0d0 <cos_print_str>
  413fd6:	e8 f5 60 ff ff       	call   40a0d0 <cos_print_str>
  41401d:	e8 de d2 ff ff       	call   411300 <cos_sched_sync>
  41404d:	e8 de fd ff ff       	call   413e30 <slm_thd_wakeup>
  41405a:	e8 01 78 ff ff       	call   40b860 <cos_defcompinfo_curr_get>
  414068:	e8 93 d2 ff ff       	call   411300 <cos_sched_sync>
  414070:	e8 2b d7 fe ff       	call   4017a0 <slm_sched_schedule>
  4140a8:	e8 53 d2 ff ff       	call   411300 <cos_sched_sync>
  4140e2:	e8 79 86 ff ff       	call   40c760 <cos_defswitch>
  4140f0:	e8 6b 77 ff ff       	call   40b860 <cos_defcompinfo_curr_get>
  414118:	e8 43 86 ff ff       	call   40c760 <cos_defswitch>
  414158:	e8 a3 d1 ff ff       	call   411300 <cos_sched_sync>
  414192:	e8 c9 85 ff ff       	call   40c760 <cos_defswitch>
  4141a6:	e8 25 5f ff ff       	call   40a0d0 <cos_print_str>
  4141c2:	e8 09 5f ff ff       	call   40a0d0 <cos_print_str>
  4141fd:	e8 5e 85 ff ff       	call   40c760 <cos_defswitch>
  414215:	e8 b6 5e ff ff       	call   40a0d0 <cos_print_str>
  414231:	e8 9a 5e ff ff       	call   40a0d0 <cos_print_str>
  41425e:	e8 9d d0 ff ff       	call   411300 <cos_sched_sync>
  41429a:	e8 31 5e ff ff       	call   40a0d0 <cos_print_str>
  4142e9:	e8 32 d0 ff ff       	call   411320 <cos_switch>
  414309:	e8 c2 5d ff ff       	call   40a0d0 <cos_print_str>
  414346:	e8 d5 cf ff ff       	call   411320 <cos_switch>
  41436a:	e8 21 d0 ff ff       	call   411390 <cos_sched_asnd>
  4143a0:	e8 bb 83 ff ff       	call   40c760 <cos_defswitch>
  4143b3:	e8 68 ea ff ff       	call   412e20 <prints.isra.0>
  4143d2:	e8 f9 5c ff ff       	call   40a0d0 <cos_print_str>
  4143ee:	e8 dd 5c ff ff       	call   40a0d0 <cos_print_str>
  41443a:	e8 11 ea ff ff       	call   412e50 <slm_sched_loop_intern>
  41444d:	e8 fe e9 ff ff       	call   412e50 <slm_sched_loop_intern>
  414487:	e8 d4 73 ff ff       	call   40b860 <cos_defcompinfo_curr_get>
  41448f:	e8 0c 74 ff ff       	call   40b8a0 <cos_sched_aep_get>
  4145c5:	e8 56 d9 ff ff       	call   411f20 <cos_hw_cycles_per_usec>
  4145db:	e8 50 d1 fe ff       	call   401730 <slm_sched_init>
  4145fd:	e8 ce 5a ff ff       	call   40a0d0 <cos_print_str>
  41464e:	e8 7d 5a ff ff       	call   40a0d0 <cos_print_str>
  41468f:	e8 3c 5a ff ff       	call   40a0d0 <cos_print_str>
  4146e6:	ff 53 10             	call   QWORD PTR [rbx+0x10]
  414734:	41 ff d7             	call   r15
  41473e:	41 ff d7             	call   r15
  41477a:	ff 53 08             	call   QWORD PTR [rbx+0x8]
  4147ca:	ff 53 08             	call   QWORD PTR [rbx+0x8]
  4147fa:	ff d0                	call   rax
  414806:	ff d0                	call   rax
  414832:	ff 53 08             	call   QWORD PTR [rbx+0x8]
  41484e:	e8 7d 58 ff ff       	call   40a0d0 <cos_print_str>
  414888:	e8 43 58 ff ff       	call   40a0d0 <cos_print_str>
  4148a4:	e8 27 58 ff ff       	call   40a0d0 <cos_print_str>
  4148c0:	e8 0b 58 ff ff       	call   40a0d0 <cos_print_str>
  41492b:	41 ff 57 10          	call   QWORD PTR [r15+0x10]
  41497d:	41 ff 57 08          	call   QWORD PTR [r15+0x8]
  4149ab:	ff d0                	call   rax
  4149b7:	ff d0                	call   rax
  4149e1:	41 ff 57 08          	call   QWORD PTR [r15+0x8]
  4149fe:	e8 cd 56 ff ff       	call   40a0d0 <cos_print_str>
  414a16:	41 ff 57 10          	call   QWORD PTR [r15+0x10]
  414a41:	e8 8a 56 ff ff       	call   40a0d0 <cos_print_str>
  414ae4:	41 ff d7             	call   r15
  414aee:	41 ff d7             	call   r15
  414b2a:	ff 53 08             	call   QWORD PTR [rbx+0x8]
  414b7a:	ff 53 08             	call   QWORD PTR [rbx+0x8]
  414baa:	ff d0                	call   rax
  414bb6:	ff d0                	call   rax
  414be2:	ff 53 08             	call   QWORD PTR [rbx+0x8]
  414bfe:	e8 cd 54 ff ff       	call   40a0d0 <cos_print_str>
  414c36:	e8 95 54 ff ff       	call   40a0d0 <cos_print_str>
  414c52:	e8 79 54 ff ff       	call   40a0d0 <cos_print_str>
  414c6e:	e8 5d 54 ff ff       	call   40a0d0 <cos_print_str>
  414cc1:	41 ff 54 24 10       	call   QWORD PTR [r12+0x10]
  414ce8:	41 ff 54 24 10       	call   QWORD PTR [r12+0x10]
  414cf3:	e8 88 fd ff ff       	call   414a80 <heap_adjust>
  414d0e:	e8 bd 53 ff ff       	call   40a0d0 <cos_print_str>
  414d2a:	e8 a1 53 ff ff       	call   40a0d0 <cos_print_str>
	mov %rdi,%rsi           /* shift for syscall */
	syscall                 /* arch_prctl(SET_FS, arg)*/
  414e5d:	0f 05                	syscall 
#include "syscall.h"
  414fc7:	e8 34 0a 00 00       	call   415a00 <__init_tls>
  414fd4:	e8 d7 fe ff ff       	call   414eb0 <__init_ssp>
	__syscall(SYS_poll, pfd, 3, 0);
	return __cos_syscall(n, a1, a2, 0, 0, 0, 0, 0);
static __inline long __syscall3(long n, long a1, long a2, long a3)
	return __cos_syscall(n, a1, a2, a3, 0, 0, 0, 0);
  415038:	e8 a3 52 ff ff       	call   40a2e0 <__cos_syscall>
	__syscall(SYS_ppoll, pfd, 3, &(struct timespec){0}, 0, _NSIG/8);
	return __cos_syscall(n, a1, a2, 0, 0, 0, 0, 0);
  4150cd:	e8 0e 52 ff ff       	call   40a2e0 <__cos_syscall>
  4150fd:	e8 de 51 ff ff       	call   40a2e0 <__cos_syscall>
  415135:	e8 a6 51 ff ff       	call   40a2e0 <__cos_syscall>
  4151ca:	e8 b1 fc ff ff       	call   414e80 <_init>
  4151e8:	ff 13                	call   QWORD PTR [rbx]
  41521f:	e8 9c ff ff ff       	call   4151c0 <__libc_start_init>
  41522c:	ff d3                	call   rbx
  415230:	e8 8b 00 00 00       	call   4152c0 <exit>
  41525d:	e8 5e fc ff ff       	call   414ec0 <__init_libc>
  4152a6:	ff 13                	call   QWORD PTR [rbx]
  4152c7:	e8 c4 fb ff ff       	call   414e90 <__funcs_on_exit>
  4152cc:	e8 af ff ff ff       	call   415280 <__libc_exit_fini>
  4152d3:	e8 18 59 00 00       	call   41abf0 <__stdio_exit>
  4152da:	e8 a1 0a 00 00       	call   415d80 <_Exit>
  415353:	e8 02 fa ff ff       	call   414d5a <memcpy>
  415383:	e8 d2 f9 ff ff       	call   414d5a <memcpy>
  41541f:	e8 bc 4c 00 00       	call   41a0e0 <vfprintf>
  415495:	e8 d6 08 00 00       	call   415d70 <__errno_location>
  415627:	e8 14 00 00 00       	call   415640 <__strchrnul>
  415720:	e8 4b 00 00 00       	call   415770 <strlen>
  415885:	e8 36 4a 00 00       	call   41a2c0 <memchr>
#include "syscall.h"
  4158cc:	e8 7f f5 ff ff       	call   414e50 <__set_thread_area>
	return __cos_syscall(n, a1, 0, 0, 0, 0, 0, 0);
  4158f8:	e8 e3 49 ff ff       	call   40a2e0 <__cos_syscall>
	td->tid = __syscall(SYS_set_tid_address, &__thread_list_lock);
	td->tid = __syscall(SYS_set_tid_address, &__thread_list_lock);
  4159be:	e8 97 f3 ff ff       	call   414d5a <memcpy>
		 * explicitly calling a_crash(). */
  415ba6:	e8 af f1 ff ff       	call   414d5a <memcpy>
  415bd1:	e8 7a f2 ff ff       	call   414e50 <__set_thread_area>
  415c05:	e8 d6 46 ff ff       	call   40a2e0 <__cos_syscall>
	td->tid = __syscall(SYS_set_tid_address, &__thread_list_lock);
	return __cos_syscall(n, a1, a2, a3, a4, a5, 0, 0);
static __inline long __syscall6(long n, long a1, long a2, long a3, long a4, long a5, long a6)
	return __cos_syscall(n, a1, a2, a3, a4, a5, a6, 0);
  415d2d:	e8 ae 45 ff ff       	call   40a2e0 <__cos_syscall>
#include "syscall.h"
	__syscall(SYS_exit_group, ec);
	return __cos_syscall(n, a1, 0, 0, 0, 0, 0, 0);
  415d9e:	e8 3d 45 ff ff       	call   40a2e0 <__cos_syscall>
  415dbe:	e8 1d 45 ff ff       	call   40a2e0 <__cos_syscall>
  416594:	e8 37 3f 00 00       	call   41a4d0 <__signbitl>
  4165ee:	e8 7d 3e 00 00       	call   41a470 <__fpclassifyl>
  416613:	e8 d8 3e 00 00       	call   41a4f0 <frexpl>
  416c8b:	e8 fc e0 ff ff       	call   414d8c <memset>
  416d07:	e8 44 3b 00 00       	call   41a850 <__fwritex>
  416d61:	e8 26 e0 ff ff       	call   414d8c <memset>
  416def:	e8 98 df ff ff       	call   414d8c <memset>
  416e4f:	e8 fc 39 00 00       	call   41a850 <__fwritex>
  416e6c:	e8 df 39 00 00       	call   41a850 <__fwritex>
  416ead:	e8 da de ff ff       	call   414d8c <memset>
  417010:	e8 77 dd ff ff       	call   414d8c <memset>
  417082:	e8 c9 37 00 00       	call   41a850 <__fwritex>
  4170d4:	e8 b3 dc ff ff       	call   414d8c <memset>
  417132:	e8 19 37 00 00       	call   41a850 <__fwritex>
  417203:	e8 48 36 00 00       	call   41a850 <__fwritex>
  41723d:	e8 0e 36 00 00       	call   41a850 <__fwritex>
  41744d:	e8 3a d9 ff ff       	call   414d8c <memset>
  4174b5:	e8 96 33 00 00       	call   41a850 <__fwritex>
  417511:	e8 76 d8 ff ff       	call   414d8c <memset>
  417574:	e8 d7 32 00 00       	call   41a850 <__fwritex>
  4176b6:	e8 d1 d6 ff ff       	call   414d8c <memset>
  41774e:	e8 39 d6 ff ff       	call   414d8c <memset>
  4178f8:	e8 53 2f 00 00       	call   41a850 <__fwritex>
  417941:	e8 0a 2f 00 00       	call   41a850 <__fwritex>
  41798b:	e8 c0 2e 00 00       	call   41a850 <__fwritex>
  4179bd:	e8 8e 2e 00 00       	call   41a850 <__fwritex>
  4179f6:	e8 55 2e 00 00       	call   41a850 <__fwritex>
  417a2e:	e8 1d 2e 00 00       	call   41a850 <__fwritex>
  417a71:	e8 da 2d 00 00       	call   41a850 <__fwritex>
  417ab6:	e8 95 2d 00 00       	call   41a850 <__fwritex>
  417aeb:	e8 60 2d 00 00       	call   41a850 <__fwritex>
  417b1b:	e8 30 2d 00 00       	call   41a850 <__fwritex>
  417b4f:	e8 fc 2c 00 00       	call   41a850 <__fwritex>
  417bb5:	e8 96 2c 00 00       	call   41a850 <__fwritex>
  417bd0:	e8 7b 2c 00 00       	call   41a850 <__fwritex>
  417be3:	e8 68 2c 00 00       	call   41a850 <__fwritex>
  417c02:	e8 49 2c 00 00       	call   41a850 <__fwritex>
  417c21:	e8 2a 2c 00 00       	call   41a850 <__fwritex>
  417c45:	e8 06 2c 00 00       	call   41a850 <__fwritex>
  418066:	e8 e5 27 00 00       	call   41a850 <__fwritex>
  4180af:	e8 9c 27 00 00       	call   41a850 <__fwritex>
  418112:	e8 39 27 00 00       	call   41a850 <__fwritex>
  4181bf:	e8 c8 cb ff ff       	call   414d8c <memset>
  41826c:	e8 df 25 00 00       	call   41a850 <__fwritex>
  41859f:	e8 e8 c7 ff ff       	call   414d8c <memset>
  4185f9:	e8 52 22 00 00       	call   41a850 <__fwritex>
  418624:	e8 27 22 00 00       	call   41a850 <__fwritex>
  4186a7:	e8 a4 21 00 00       	call   41a850 <__fwritex>
  41872b:	e8 20 21 00 00       	call   41a850 <__fwritex>
  418765:	e8 22 c6 ff ff       	call   414d8c <memset>
  4187bc:	e8 8f 20 00 00       	call   41a850 <__fwritex>
  418f7e:	e8 cd 18 00 00       	call   41a850 <__fwritex>
  418fde:	e8 8d cd ff ff       	call   415d70 <__errno_location>
  419119:	e8 52 cc ff ff       	call   415d70 <__errno_location>
  41924d:	e8 7e cb ff ff       	call   415dd0 <pop_arg>
  4192e5:	e8 e6 ca ff ff       	call   415dd0 <pop_arg>
  4193b8:	e8 cf b9 ff ff       	call   414d8c <memset>
  41943b:	e8 10 14 00 00       	call   41a850 <__fwritex>
  4194a8:	e8 df b8 ff ff       	call   414d8c <memset>
  419526:	e8 25 13 00 00       	call   41a850 <__fwritex>
  41956f:	e8 18 b8 ff ff       	call   414d8c <memset>
  419623:	e8 64 b7 ff ff       	call   414d8c <memset>
  41968b:	e8 c0 11 00 00       	call   41a850 <__fwritex>
  4196bb:	e8 90 ce ff ff       	call   416550 <fmt_fp>
  4198f2:	e8 79 bf ff ff       	call   415870 <strnlen>
  419967:	e8 c4 0c 00 00       	call   41a630 <wctomb>
  419a08:	e8 7f b3 ff ff       	call   414d8c <memset>
  419ac2:	e8 69 0b 00 00       	call   41a630 <wctomb>
  419ae2:	e8 69 0d 00 00       	call   41a850 <__fwritex>
  419aed:	e8 7e c2 ff ff       	call   415d70 <__errno_location>
  419af4:	e8 27 09 00 00       	call   41a420 <strerror>
  419c0b:	e8 40 0c 00 00       	call   41a850 <__fwritex>
  419c3e:	e8 0d 0c 00 00       	call   41a850 <__fwritex>
  419c78:	e8 d3 0b 00 00       	call   41a850 <__fwritex>
  419cb8:	e8 93 0b 00 00       	call   41a850 <__fwritex>
  419d05:	e8 46 0b 00 00       	call   41a850 <__fwritex>
  419d34:	e8 17 0b 00 00       	call   41a850 <__fwritex>
  419d5d:	e8 ee 0a 00 00       	call   41a850 <__fwritex>
  419de0:	e8 a7 af ff ff       	call   414d8c <memset>
  419e38:	e8 13 0a 00 00       	call   41a850 <__fwritex>
  419e5e:	e8 ed 09 00 00       	call   41a850 <__fwritex>
  419e73:	e8 d8 09 00 00       	call   41a850 <__fwritex>
  419ead:	e8 be b9 ff ff       	call   415870 <strnlen>
  419f68:	e8 e3 08 00 00       	call   41a850 <__fwritex>
  41a143:	e8 08 ec ff ff       	call   418d50 <printf_core>
  41a16a:	e8 f1 04 00 00       	call   41a660 <__lockfile>
  41a1ba:	e8 91 eb ff ff       	call   418d50 <printf_core>
  41a1ce:	ff 55 48             	call   QWORD PTR [rbp+0x48]
  41a26b:	e8 70 05 00 00       	call   41a7e0 <__towrite>
  41a28b:	e8 d0 04 00 00       	call   41a760 <__unlockfile>
  41a2a6:	e8 35 05 00 00       	call   41a7e0 <__towrite>
  41a5f7:	e8 f4 fe ff ff       	call   41a4f0 <frexpl>
  41a63f:	e8 6c 04 00 00       	call   41aab0 <wcrtomb>
	return __cos_syscall(n, a1, a2, a3, a4, 0, 0, 0);
	__syscall(SYS_futex, addr, FUTEX_WAKE, cnt);
	__syscall(SYS_futex, addr, FUTEX_WAIT|priv, val, 0) != -ENOSYS ||
  41a70f:	e8 cc fb fe ff       	call   40a2e0 <__cos_syscall>
  41a733:	e8 a8 fb fe ff       	call   40a2e0 <__cos_syscall>
	return __cos_syscall(n, a1, a2, a3, 0, 0, 0, 0);
  41a79c:	e8 3f fb fe ff       	call   40a2e0 <__cos_syscall>
	__syscall(SYS_futex, addr, FUTEX_WAKE|priv, cnt) != -ENOSYS ||
  41a7cc:	e8 0f fb fe ff       	call   40a2e0 <__cos_syscall>
  41a897:	e8 be a4 ff ff       	call   414d5a <memcpy>
  41a8e9:	41 ff 54 24 48       	call   QWORD PTR [r12+0x48]
  41a90b:	e8 d0 fe ff ff       	call   41a7e0 <__towrite>
  41a973:	e8 e8 fc ff ff       	call   41a660 <__lockfile>
  41a9b1:	e8 a4 a3 ff ff       	call   414d5a <memcpy>
  41aa09:	ff 55 48             	call   QWORD PTR [rbp+0x48]
  41aa3b:	e8 20 fd ff ff       	call   41a760 <__unlockfile>
  41aa5e:	ff 55 48             	call   QWORD PTR [rbp+0x48]
  41aa88:	e8 53 fd ff ff       	call   41a7e0 <__towrite>
  41ab15:	e8 56 b2 ff ff       	call   415d70 <__errno_location>
  41abfa:	e8 a1 01 00 00       	call   41ada0 <__ofl_lock>
  41ac1d:	e8 3e fa ff ff       	call   41a660 <__lockfile>
  41ac33:	ff 53 48             	call   QWORD PTR [rbx+0x48]
  41ac52:	ff 53 50             	call   QWORD PTR [rbx+0x50]
  41ac89:	ff 53 48             	call   QWORD PTR [rbx+0x48]
  41aca4:	ff 53 50             	call   QWORD PTR [rbx+0x50]
  41acd2:	ff 53 48             	call   QWORD PTR [rbx+0x48]
  41aced:	ff 53 50             	call   QWORD PTR [rbx+0x50]
  41ad1b:	ff 55 48             	call   QWORD PTR [rbp+0x48]
  41ad63:	e8 f8 f8 ff ff       	call   41a660 <__lockfile>
  41ad73:	e8 e8 f8 ff ff       	call   41a660 <__lockfile>
  41ad83:	e8 d8 f8 ff ff       	call   41a660 <__lockfile>
  41adaf:	e8 1c 00 00 00       	call   41add0 <__lock>
	return __cos_syscall(n, a1, a2, a3, a4, 0, 0, 0);
	__syscall(SYS_futex, addr, FUTEX_WAIT|priv, val, 0) != -ENOSYS ||
  41af86:	e8 55 f3 fe ff       	call   40a2e0 <__cos_syscall>
  41b017:	e8 c4 f2 fe ff       	call   40a2e0 <__cos_syscall>
	return __cos_syscall(n, a1, a2, a3, 0, 0, 0, 0);
  41b070:	e8 6b f2 fe ff       	call   40a2e0 <__cos_syscall>
	__syscall(SYS_futex, addr, FUTEX_WAKE|priv, cnt) != -ENOSYS ||
  41b09c:	e8 3f f2 fe ff       	call   40a2e0 <__cos_syscall>
