
sched.pfprr_quantum_static.global.sched:     file format elf64-x86-64


Disassembly of section .text:

0000000000400000 <printc>:
	return cos_print_str(s, strlen(s));
}

static int  __attribute__((format(printf, 1, 2)))
printc(char *fmt, ...)
{
  400000:	f3 0f 1e fa          	endbr64 
  400004:	55                   	push   rbp
  400005:	49 89 fa             	mov    r10,rdi
  400008:	48 89 e5             	mov    rbp,rsp
  40000b:	48 81 ec 90 01 00 00 	sub    rsp,0x190
  400012:	48 89 b5 58 ff ff ff 	mov    QWORD PTR [rbp-0xa8],rsi
  400019:	48 89 95 60 ff ff ff 	mov    QWORD PTR [rbp-0xa0],rdx
  400020:	48 89 8d 68 ff ff ff 	mov    QWORD PTR [rbp-0x98],rcx
  400027:	4c 89 85 70 ff ff ff 	mov    QWORD PTR [rbp-0x90],r8
  40002e:	4c 89 8d 78 ff ff ff 	mov    QWORD PTR [rbp-0x88],r9
  400035:	84 c0                	test   al,al
  400037:	74 20                	je     400059 <printc+0x59>
  400039:	0f 29 45 80          	movaps XMMWORD PTR [rbp-0x80],xmm0
  40003d:	0f 29 4d 90          	movaps XMMWORD PTR [rbp-0x70],xmm1
  400041:	0f 29 55 a0          	movaps XMMWORD PTR [rbp-0x60],xmm2
  400045:	0f 29 5d b0          	movaps XMMWORD PTR [rbp-0x50],xmm3
  400049:	0f 29 65 c0          	movaps XMMWORD PTR [rbp-0x40],xmm4
  40004d:	0f 29 6d d0          	movaps XMMWORD PTR [rbp-0x30],xmm5
  400051:	0f 29 75 e0          	movaps XMMWORD PTR [rbp-0x20],xmm6
  400055:	0f 29 7d f0          	movaps XMMWORD PTR [rbp-0x10],xmm7
	char    s[180];
	va_list arg_ptr;
	size_t  ret;

	va_start(arg_ptr, fmt);
  400059:	48 8d 45 10          	lea    rax,[rbp+0x10]
	ret = vsnprintf(s, 180, fmt, arg_ptr);
  40005d:	4c 89 d2             	mov    rdx,r10
  400060:	48 8d 8d 78 fe ff ff 	lea    rcx,[rbp-0x188]
	va_start(arg_ptr, fmt);
  400067:	c7 85 78 fe ff ff 08 	mov    DWORD PTR [rbp-0x188],0x8
  40006e:	00 00 00 
  400071:	48 89 85 80 fe ff ff 	mov    QWORD PTR [rbp-0x180],rax
  400078:	48 8d 85 50 ff ff ff 	lea    rax,[rbp-0xb0]
	ret = vsnprintf(s, 180, fmt, arg_ptr);
  40007f:	be b4 00 00 00       	mov    esi,0xb4
  400084:	48 8d bd 90 fe ff ff 	lea    rdi,[rbp-0x170]
	va_start(arg_ptr, fmt);
  40008b:	48 89 85 88 fe ff ff 	mov    QWORD PTR [rbp-0x178],rax
	ret = vsnprintf(s, 180, fmt, arg_ptr);
  400092:	48 b8 20 80 41 00 00 	movabs rax,0x418020
  400099:	00 00 00 
	va_start(arg_ptr, fmt);
  40009c:	c7 85 7c fe ff ff 30 	mov    DWORD PTR [rbp-0x184],0x30
  4000a3:	00 00 00 
	ret = vsnprintf(s, 180, fmt, arg_ptr);
  4000a6:	ff d0                	call   rax
	va_end(arg_ptr);
	ret = cos_print_str(s, ret);
  4000a8:	48 8d bd 90 fe ff ff 	lea    rdi,[rbp-0x170]
	ret = vsnprintf(s, 180, fmt, arg_ptr);
  4000af:	89 c6                	mov    esi,eax
	ret = cos_print_str(s, ret);
  4000b1:	48 b8 10 b3 40 00 00 	movabs rax,0x40b310
  4000b8:	00 00 00 
  4000bb:	ff d0                	call   rax

	return ret;
}
  4000bd:	c9                   	leave  
  4000be:	c3                   	ret    
  4000bf:	90                   	nop

00000000004000c0 <exit_init_thd>:

struct slm_thd *slm_thd_current_extern(void);

static __attribute__((noreturn)) void
exit_init_thd(void)
{
  4000c0:	f3 0f 1e fa          	endbr64 
	struct slm_thd *current = slm_thd_current_extern();
  4000c4:	48 b8 90 1e 40 00 00 	movabs rax,0x401e90
  4000cb:	00 00 00 
{
  4000ce:	55                   	push   rbp
  4000cf:	48 89 e5             	mov    rbp,rsp
  4000d2:	41 56                	push   r14
  4000d4:	41 55                	push   r13
  4000d6:	49 bd c0 5e 5a 00 00 	movabs r13,0x5a5ec0
  4000dd:	00 00 00 
  4000e0:	41 54                	push   r12
		cached = __slm_cs_data(cs, &owner, &contended);

		if (unlikely(owner)) {
			int ret;

			ret = slm_cs_enter_contention(cs, cached, current, owner, contended, tok);
  4000e2:	49 bc 50 5f 41 00 00 	movabs r12,0x415f50
  4000e9:	00 00 00 
  4000ec:	53                   	push   rbx
  4000ed:	48 bb d0 35 41 00 00 	movabs rbx,0x4135d0
  4000f4:	00 00 00 
	struct slm_thd *current = slm_thd_current_extern();
  4000f7:	ff d0                	call   rax

	if (cos_coreid() == 0) printc("\tScheduler %ld: Exiting thread %ld from component %ld\n", cos_compid(), cos_thdid(), (compid_t)cos_inv_token());
  4000f9:	48 bf a0 ec 41 00 00 	movabs rdi,0x41eca0
  400100:	00 00 00 
  400103:	49 b8 00 00 40 00 00 	movabs r8,0x400000
  40010a:	00 00 00 
	struct slm_thd *current = slm_thd_current_extern();
  40010d:	49 89 c6             	mov    r14,rax
static inline long
get_stk_data(int offset)
{
	unsigned long curr_stk_pointer;

	__asm__("mov %%rsp, %0;" : "=r"(curr_stk_pointer));
  400110:	48 89 e0             	mov    rax,rsp
	 * access.  We want to find the struct cos_stk (see the stkmgr
	 * interface) so that we can then offset into it and get the
	 * cpu_id.  This struct is at the _top_ of the current stack,
	 * and cpu_id is at the top of the struct (it is a u32_t).
	 */
	return *(long *)((curr_stk_pointer & ~(COS_STACK_SZ - 1)) + COS_STACK_SZ - offset * sizeof(unsigned long));
  400113:	48 25 00 e0 ff ff    	and    rax,0xffffffffffffe000
	if (cos_coreid() == 0) printc("\tScheduler %ld: Exiting thread %ld from component %ld\n", cos_compid(), cos_thdid(), (compid_t)cos_inv_token());
  400119:	48 8b 88 e8 1f 00 00 	mov    rcx,QWORD PTR [rax+0x1fe8]
typedef u16_t cos_thdid_t;

static thdid_t
cos_thdid(void)
{
	return cos_get_thd_id();
  400120:	0f b7 90 f0 1f 00 00 	movzx  edx,WORD PTR [rax+0x1ff0]
  400127:	48 b8 40 b0 42 00 00 	movabs rax,0x42b040
  40012e:	00 00 00 
  400131:	48 8b 30             	mov    rsi,QWORD PTR [rax]
  400134:	31 c0                	xor    eax,eax
  400136:	41 ff d0             	call   r8
	assert(current);
  400139:	4d 85 f6             	test   r14,r14
  40013c:	0f 84 23 01 00 00    	je     400265 <exit_init_thd+0x1a5>
		tok    = cos_sched_sync();
  400142:	ff d3                	call   rbx
  400144:	41 89 c1             	mov    r9d,eax
 * - @ret - a *cached* version of the critical section metadata to be passed into `__slm_cs_cas`.
 */
static inline slm_cs_cached_t
__slm_cs_data(struct slm_cs *cs, struct slm_thd **thd, int *contention)
{
	unsigned long oc = ps_load(&cs->owner_contention);
  400147:	49 8b 45 00          	mov    rax,QWORD PTR [r13+0x0]
		if (unlikely(owner)) {
  40014b:	48 89 c1             	mov    rcx,rax
  40014e:	48 83 e1 fe          	and    rcx,0xfffffffffffffffe
  400152:	0f 85 c9 00 00 00    	jne    400221 <exit_init_thd+0x161>
 */
static inline int
ps_cas(unsigned long *target, unsigned long old, unsigned long updated)
{
        char z;
        __asm__ __volatile__("lock " PS_CAS_STR
  400158:	f0 4d 0f b1 75 00    	lock cmpxchg QWORD PTR [r13+0x0],r14
  40015e:	0f 94 c0             	sete   al

			continue;
		}

		/* success! common case */
		if (likely(!__slm_cs_cas(cs, cached, current, 0))) return 0;
  400161:	84 c0                	test   al,al
  400163:	74 dd                	je     400142 <exit_init_thd+0x82>

	slm_cs_enter(current, SLM_CS_NONE);
	slm_thd_deinit(current);		/* I'm out! */
  400165:	48 b8 10 5f 41 00 00 	movabs rax,0x415f10
  40016c:	00 00 00 
  40016f:	4c 89 f7             	mov    rdi,r14

		tok    = cos_sched_sync();
		cached = __slm_cs_data(cs, &current, &contention);
		/* Another thread attempted to enter the critical section */
		if (unlikely(contention)) {
			if (!slm_cs_exit_contention(cs, current, cached, tok)) return;
  400172:	49 bc b0 5f 41 00 00 	movabs r12,0x415fb0
  400179:	00 00 00 
  40017c:	ff d0                	call   rax
	while (ret != 0) {
  40017e:	eb 0d                	jmp    40018d <exit_init_thd+0xcd>
  400180:	f0 49 0f b1 55 00    	lock cmpxchg QWORD PTR [r13+0x0],rdx
  400186:	0f 94 c0             	sete   al
  400189:	84 c0                	test   al,al
  40018b:	75 24                	jne    4001b1 <exit_init_thd+0xf1>
		tok    = cos_sched_sync();
  40018d:	ff d3                	call   rbx
  40018f:	89 c1                	mov    ecx,eax
  400191:	49 8b 45 00          	mov    rax,QWORD PTR [r13+0x0]
		if (unlikely(contention)) {
  400195:	48 89 c2             	mov    rdx,rax
  400198:	83 e2 01             	and    edx,0x1
  40019b:	74 e3                	je     400180 <exit_init_thd+0xc0>
	/* least significant bit signifies contention */
	*thd        = (struct slm_thd *)(oc & (~0UL << 1));
  40019d:	48 89 c6             	mov    rsi,rax
			if (!slm_cs_exit_contention(cs, current, cached, tok)) return;
  4001a0:	48 89 c2             	mov    rdx,rax
  4001a3:	4c 89 ef             	mov    rdi,r13
  4001a6:	48 83 e6 fe          	and    rsi,0xfffffffffffffffe
  4001aa:	41 ff d4             	call   r12
  4001ad:	85 c0                	test   eax,eax
  4001af:	75 dc                	jne    40018d <exit_init_thd+0xcd>
	slm_cs_exit(NULL, SLM_CS_NONE);

	/* Switch to the scheduler thread */
	if (cos_defswitch(BOOT_CAPTBL_SELF_INITTHD_CPU_BASE, TCAP_PRIO_MAX, TCAP_RES_INF, cos_sched_sync())) BUG();
  4001b1:	ff d3                	call   rbx
  4001b3:	be 01 00 00 00       	mov    esi,0x1
  4001b8:	48 c7 c2 ff ff ff ff 	mov    rdx,0xffffffffffffffff
  4001bf:	bf 28 00 00 00       	mov    edi,0x28
  4001c4:	89 c1                	mov    ecx,eax
  4001c6:	48 b8 70 e1 40 00 00 	movabs rax,0x40e170
  4001cd:	00 00 00 
  4001d0:	ff d0                	call   rax
	return cos_print_str(s, strlen(s));
  4001d2:	be 11 00 00 00       	mov    esi,0x11
  4001d7:	85 c0                	test   eax,eax
  4001d9:	75 23                	jne    4001fe <exit_init_thd+0x13e>
  4001db:	48 bf a4 ed 41 00 00 	movabs rdi,0x41eda4
  4001e2:	00 00 00 
  4001e5:	48 b8 10 b3 40 00 00 	movabs rax,0x40b310
  4001ec:	00 00 00 
  4001ef:	ff d0                	call   rax

	BUG();
  4001f1:	c7 04 25 00 00 00 00 	mov    DWORD PTR ds:0x0,0x0
  4001f8:	00 00 00 00 
  4001fc:	0f 0b                	ud2    
  4001fe:	48 bf 92 ed 41 00 00 	movabs rdi,0x41ed92
  400205:	00 00 00 
  400208:	48 b8 10 b3 40 00 00 	movabs rax,0x40b310
  40020f:	00 00 00 
  400212:	ff d0                	call   rax
	if (cos_defswitch(BOOT_CAPTBL_SELF_INITTHD_CPU_BASE, TCAP_PRIO_MAX, TCAP_RES_INF, cos_sched_sync())) BUG();
  400214:	c7 04 25 00 00 00 00 	mov    DWORD PTR ds:0x0,0x0
  40021b:	00 00 00 00 
  40021f:	0f 0b                	ud2    
			ret = slm_cs_enter_contention(cs, cached, current, owner, contended, tok);
  400221:	41 89 c0             	mov    r8d,eax
  400224:	4c 89 f2             	mov    rdx,r14
  400227:	48 89 c6             	mov    rsi,rax
  40022a:	4c 89 ef             	mov    rdi,r13
  40022d:	41 83 e0 01          	and    r8d,0x1
  400231:	41 ff d4             	call   r12
			assert(ret != -EBUSY);
  400234:	83 f8 f0             	cmp    eax,0xfffffff0
  400237:	0f 85 05 ff ff ff    	jne    400142 <exit_init_thd+0x82>
  40023d:	48 bf 38 ed 41 00 00 	movabs rdi,0x41ed38
  400244:	00 00 00 
  400247:	be 59 00 00 00       	mov    esi,0x59
  40024c:	48 b8 10 b3 40 00 00 	movabs rax,0x40b310
  400253:	00 00 00 
  400256:	ff d0                	call   rax
  400258:	c7 04 25 00 00 00 00 	mov    DWORD PTR ds:0x0,0x0
  40025f:	00 00 00 00 
  400263:	0f 0b                	ud2    
  400265:	48 bf d8 ec 41 00 00 	movabs rdi,0x41ecd8
  40026c:	00 00 00 
  40026f:	be 59 00 00 00       	mov    esi,0x59
  400274:	48 b8 10 b3 40 00 00 	movabs rax,0x40b310
  40027b:	00 00 00 
  40027e:	ff d0                	call   rax
	assert(current);
  400280:	c7 04 25 00 00 00 00 	mov    DWORD PTR ds:0x0,0x0
  400287:	00 00 00 00 
  40028b:	0f 0b                	ud2    
  40028d:	0f 1f 00             	nop    DWORD PTR [rax]

0000000000400290 <calculate_initialization_schedule>:
{
  400290:	f3 0f 1e fa          	endbr64 
	ret = args_get_entry("execute", &exec_entries);
  400294:	48 bf b6 ed 41 00 00 	movabs rdi,0x41edb6
  40029b:	00 00 00 
{
  40029e:	55                   	push   rbp
	ret = args_get_entry("execute", &exec_entries);
  40029f:	48 b8 90 c5 40 00 00 	movabs rax,0x40c590
  4002a6:	00 00 00 
{
  4002a9:	48 89 e5             	mov    rbp,rsp
  4002ac:	41 57                	push   r15
  4002ae:	41 56                	push   r14
	ret = args_get_entry("execute", &exec_entries);
  4002b0:	48 8d b5 70 ff ff ff 	lea    rsi,[rbp-0x90]
{
  4002b7:	41 55                	push   r13
  4002b9:	41 54                	push   r12
  4002bb:	53                   	push   rbx
  4002bc:	48 83 ec 78          	sub    rsp,0x78
	ret = args_get_entry("execute", &exec_entries);
  4002c0:	ff d0                	call   rax
	assert(!ret);
  4002c2:	85 c0                	test   eax,eax
  4002c4:	0f 85 4e 02 00 00    	jne    400518 <calculate_initialization_schedule+0x288>
	printc("\tSched %ld: %d components that need execution\n", cos_compid(), args_len(&exec_entries));
  4002ca:	48 8d bd 70 ff ff ff 	lea    rdi,[rbp-0x90]
  4002d1:	48 b8 e0 be 40 00 00 	movabs rax,0x40bee0
  4002d8:	00 00 00 
		if (strcmp(exec_type, "init")) BUG();	/* TODO: no support for hierarchical scheduling yet */
  4002db:	49 bf 65 ee 41 00 00 	movabs r15,0x41ee65
  4002e2:	00 00 00 
	printc("\tSched %ld: %ld is the %ldth component to initialize\n", cos_compid(), cid, init_schedule_off);
  4002e5:	48 bb 40 20 46 00 00 	movabs rbx,0x462040
  4002ec:	00 00 00 
	printc("\tSched %ld: %d components that need execution\n", cos_compid(), args_len(&exec_entries));
  4002ef:	ff d0                	call   rax
  4002f1:	48 bf e8 ed 41 00 00 	movabs rdi,0x41ede8
  4002f8:	00 00 00 
  4002fb:	48 b9 00 00 40 00 00 	movabs rcx,0x400000
  400302:	00 00 00 
	printc("\tSched %ld: %ld is the %ldth component to initialize\n", cos_compid(), cid, init_schedule_off);
  400305:	49 be 80 ee 41 00 00 	movabs r14,0x41ee80
  40030c:	00 00 00 
	printc("\tSched %ld: %d components that need execution\n", cos_compid(), args_len(&exec_entries));
  40030f:	89 c2                	mov    edx,eax
  400311:	48 b8 40 b0 42 00 00 	movabs rax,0x42b040
  400318:	00 00 00 
  40031b:	48 8b 30             	mov    rsi,QWORD PTR [rax]
  40031e:	31 c0                	xor    eax,eax
  400320:	ff d1                	call   rcx
	for (cont = args_iter(&exec_entries, &i, &curr) ; cont ; cont = args_iter_next(&i, &curr)) {
  400322:	48 8d 55 90          	lea    rdx,[rbp-0x70]
  400326:	48 8d 75 b0          	lea    rsi,[rbp-0x50]
  40032a:	48 b8 b0 bf 40 00 00 	movabs rax,0x40bfb0
  400331:	00 00 00 
  400334:	48 8d bd 70 ff ff ff 	lea    rdi,[rbp-0x90]
  40033b:	ff d0                	call   rax
  40033d:	85 c0                	test   eax,eax
  40033f:	0f 84 1e 01 00 00    	je     400463 <calculate_initialization_schedule+0x1d3>
		compid_t id        = atoi(args_key(&curr, &keylen));
  400345:	48 8d b5 6c ff ff ff 	lea    rsi,[rbp-0x94]
  40034c:	48 8d 7d 90          	lea    rdi,[rbp-0x70]
  400350:	48 b8 30 be 40 00 00 	movabs rax,0x40be30
  400357:	00 00 00 
  40035a:	ff d0                	call   rax
  40035c:	48 89 c7             	mov    rdi,rax
  40035f:	48 b8 70 81 41 00 00 	movabs rax,0x418170
  400366:	00 00 00 
  400369:	ff d0                	call   rax
		char    *exec_type = args_value(&curr);
  40036b:	48 8d 7d 90          	lea    rdi,[rbp-0x70]
		compid_t id        = atoi(args_key(&curr, &keylen));
  40036f:	4c 63 e8             	movsxd r13,eax
		char    *exec_type = args_value(&curr);
  400372:	48 b8 a0 be 40 00 00 	movabs rax,0x40bea0
  400379:	00 00 00 
  40037c:	ff d0                	call   rax
  40037e:	48 89 c7             	mov    rdi,rax
		assert(exec_type);
  400381:	48 85 c0             	test   rax,rax
  400384:	0f 84 16 01 00 00    	je     4004a0 <calculate_initialization_schedule+0x210>
	} while (0)

static inline long
cos_spd_id(void)
{
	return __cosrt_comp_info.cos_this_spd_id;
  40038a:	48 b8 40 b0 42 00 00 	movabs rax,0x42b040
  400391:	00 00 00 
  400394:	4c 8b 20             	mov    r12,QWORD PTR [rax]
		assert(id != cos_compid());
  400397:	4d 39 e5             	cmp    r13,r12
  40039a:	0f 84 28 01 00 00    	je     4004c8 <calculate_initialization_schedule+0x238>
		if (strcmp(exec_type, "init")) BUG();	/* TODO: no support for hierarchical scheduling yet */
  4003a0:	48 b8 50 84 41 00 00 	movabs rax,0x418450
  4003a7:	00 00 00 
  4003aa:	4c 89 fe             	mov    rsi,r15
  4003ad:	ff d0                	call   rax
  4003af:	85 c0                	test   eax,eax
  4003b1:	0f 85 c1 00 00 00    	jne    400478 <calculate_initialization_schedule+0x1e8>
	printc("\tSched %ld: %ld is the %ldth component to initialize\n", cos_compid(), cid, init_schedule_off);
  4003b7:	4c 89 ea             	mov    rdx,r13
  4003ba:	48 8b 0b             	mov    rcx,QWORD PTR [rbx]
  4003bd:	4c 89 e6             	mov    rsi,r12
  4003c0:	4c 89 f7             	mov    rdi,r14
  4003c3:	49 b8 00 00 40 00 00 	movabs r8,0x400000
  4003ca:	00 00 00 
  4003cd:	31 c0                	xor    eax,eax
  4003cf:	41 ff d0             	call   r8
	init_schedule[init_schedule_off] = cid;
  4003d2:	48 8b 03             	mov    rax,QWORD PTR [rbx]
	assert(s->status == SCHEDINIT_FREE);
  4003d5:	4b 8d 54 ad 00       	lea    rdx,[r13+r13*4+0x0]
	init_schedule[init_schedule_off] = cid;
  4003da:	48 b9 40 1e 46 00 00 	movabs rcx,0x461e40
  4003e1:	00 00 00 
  4003e4:	4c 89 2c c1          	mov    QWORD PTR [rcx+rax*8],r13
	init_schedule_off++;
  4003e8:	48 83 c0 01          	add    rax,0x1
  4003ec:	48 89 03             	mov    QWORD PTR [rbx],rax
	assert(s->status == SCHEDINIT_FREE);
  4003ef:	48 b8 40 14 46 00 00 	movabs rax,0x461440
  4003f6:	00 00 00 
  4003f9:	4c 8d 2c d0          	lea    r13,[rax+rdx*8]
  4003fd:	41 8b 45 10          	mov    eax,DWORD PTR [r13+0x10]
  400401:	85 c0                	test   eax,eax
  400403:	0f 85 e7 00 00 00    	jne    4004f0 <calculate_initialization_schedule+0x260>
	*s = (struct schedinit_status) {
  400409:	66 0f ef c0          	pxor   xmm0,xmm0
  40040d:	49 c7 45 20 00 00 00 	mov    QWORD PTR [r13+0x20],0x0
  400414:	00 
	simple_barrier_init(&s->barrier, init_parallelism());
  400415:	48 b8 e0 ae 40 00 00 	movabs rax,0x40aee0
  40041c:	00 00 00 
	*s = (struct schedinit_status) {
  40041f:	41 0f 11 45 10       	movups XMMWORD PTR [r13+0x10],xmm0
  400424:	41 0f 11 45 00       	movups XMMWORD PTR [r13+0x0],xmm0
  400429:	41 c7 45 10 01 00 00 	mov    DWORD PTR [r13+0x10],0x1
  400430:	00 
  400431:	49 c7 45 18 ff ff ff 	mov    QWORD PTR [r13+0x18],0xffffffffffffffff
  400438:	ff 
	simple_barrier_init(&s->barrier, init_parallelism());
  400439:	ff d0                	call   rax
}

static inline void
simple_barrier_init(struct simple_barrier *b, unsigned int ncores)
{
	*b = (struct simple_barrier) {
  40043b:	49 c7 45 00 00 00 00 	mov    QWORD PTR [r13+0x0],0x0
  400442:	00 
	for (cont = args_iter(&exec_entries, &i, &curr) ; cont ; cont = args_iter_next(&i, &curr)) {
  400443:	48 8d 75 90          	lea    rsi,[rbp-0x70]
  400447:	48 8d 7d b0          	lea    rdi,[rbp-0x50]
  40044b:	41 89 45 08          	mov    DWORD PTR [r13+0x8],eax
  40044f:	48 b8 30 bf 40 00 00 	movabs rax,0x40bf30
  400456:	00 00 00 
  400459:	ff d0                	call   rax
  40045b:	85 c0                	test   eax,eax
  40045d:	0f 85 e2 fe ff ff    	jne    400345 <calculate_initialization_schedule+0xb5>
}
  400463:	48 83 c4 78          	add    rsp,0x78
  400467:	5b                   	pop    rbx
  400468:	41 5c                	pop    r12
  40046a:	41 5d                	pop    r13
  40046c:	41 5e                	pop    r14
  40046e:	41 5f                	pop    r15
  400470:	5d                   	pop    rbp
  400471:	c3                   	ret    
  400472:	66 0f 1f 44 00 00    	nop    WORD PTR [rax+rax*1+0x0]
  400478:	48 bf 6a ee 41 00 00 	movabs rdi,0x41ee6a
  40047f:	00 00 00 
  400482:	be 11 00 00 00       	mov    esi,0x11
  400487:	48 b8 10 b3 40 00 00 	movabs rax,0x40b310
  40048e:	00 00 00 
  400491:	ff d0                	call   rax
		if (strcmp(exec_type, "init")) BUG();	/* TODO: no support for hierarchical scheduling yet */
  400493:	c7 04 25 00 00 00 00 	mov    DWORD PTR ds:0x0,0x0
  40049a:	00 00 00 00 
  40049e:	0f 0b                	ud2    
  4004a0:	48 bf 18 ee 41 00 00 	movabs rdi,0x41ee18
  4004a7:	00 00 00 
  4004aa:	be 24 00 00 00       	mov    esi,0x24
  4004af:	48 b8 10 b3 40 00 00 	movabs rax,0x40b310
  4004b6:	00 00 00 
  4004b9:	ff d0                	call   rax
		assert(exec_type);
  4004bb:	c7 04 25 00 00 00 00 	mov    DWORD PTR ds:0x0,0x0
  4004c2:	00 00 00 00 
  4004c6:	0f 0b                	ud2    
  4004c8:	48 bf 40 ee 41 00 00 	movabs rdi,0x41ee40
  4004cf:	00 00 00 
  4004d2:	be 24 00 00 00       	mov    esi,0x24
  4004d7:	48 b8 10 b3 40 00 00 	movabs rax,0x40b310
  4004de:	00 00 00 
  4004e1:	ff d0                	call   rax
		assert(id != cos_compid());
  4004e3:	c7 04 25 00 00 00 00 	mov    DWORD PTR ds:0x0,0x0
  4004ea:	00 00 00 00 
  4004ee:	0f 0b                	ud2    
  4004f0:	48 bf b8 ee 41 00 00 	movabs rdi,0x41eeb8
  4004f7:	00 00 00 
  4004fa:	be 23 00 00 00       	mov    esi,0x23
  4004ff:	48 b8 10 b3 40 00 00 	movabs rax,0x40b310
  400506:	00 00 00 
  400509:	ff d0                	call   rax
	assert(s->status == SCHEDINIT_FREE);
  40050b:	c7 04 25 00 00 00 00 	mov    DWORD PTR ds:0x0,0x0
  400512:	00 00 00 00 
  400516:	0f 0b                	ud2    
  400518:	48 bf c0 ed 41 00 00 	movabs rdi,0x41edc0
  40051f:	00 00 00 
  400522:	be 23 00 00 00       	mov    esi,0x23
  400527:	48 b8 10 b3 40 00 00 	movabs rax,0x40b310
  40052e:	00 00 00 
  400531:	ff d0                	call   rax
	assert(!ret);
  400533:	c7 04 25 00 00 00 00 	mov    DWORD PTR ds:0x0,0x0
  40053a:	00 00 00 00 
  40053e:	0f 0b                	ud2    

0000000000400540 <init_done>:
	while (1) ;
}

void
init_done(int parallel_init, init_main_t cont)
{
  400540:	f3 0f 1e fa          	endbr64 
  400544:	55                   	push   rbp
	__asm__("mov %%rsp, %0;" : "=r"(curr_stk_pointer));
  400545:	48 89 e0             	mov    rax,rsp
	return *(long *)((curr_stk_pointer & ~(COS_STACK_SZ - 1)) + COS_STACK_SZ - offset * sizeof(unsigned long));
  400548:	48 25 00 e0 ff ff    	and    rax,0xffffffffffffe000
  40054e:	48 89 e5             	mov    rbp,rsp
  400551:	41 54                	push   r12
  400553:	53                   	push   rbx
	return get_stk_data(INVTOKEN_OFFSET);
  400554:	48 8b b8 e8 1f 00 00 	mov    rdi,QWORD PTR [rax+0x1fe8]
  40055b:	89 f3                	mov    ebx,esi
	compid_t client = (compid_t)cos_inv_token();
	struct schedinit_status *s;

	s = &initialization_state[client];
	assert(s->status != SCHEDINIT_FREE);
  40055d:	48 be 40 14 46 00 00 	movabs rsi,0x461440
  400564:	00 00 00 
  400567:	48 8d 0c bf          	lea    rcx,[rdi+rdi*4]
  40056b:	48 c1 e1 03          	shl    rcx,0x3
  40056f:	48 8d 14 0e          	lea    rdx,[rsi+rcx*1]
  400573:	8b 42 10             	mov    eax,DWORD PTR [rdx+0x10]
  400576:	85 c0                	test   eax,eax
  400578:	0f 84 9e 00 00 00    	je     40061c <init_done+0xdc>
  40057e:	45 31 c0             	xor    r8d,r8d
  400581:	48 c7 c0 ff ff ff ff 	mov    rax,0xffffffffffffffff
  400588:	f0 4c 0f b1 44 0e 18 	lock cmpxchg QWORD PTR [rsi+rcx*1+0x18],r8
  40058f:	0f 94 c0             	sete   al

	/*
	 * `init_done` should not be called once initialization is
	 * completed. This is an error.
	 */
	if (s->status == SCHEDINIT_MAIN) {
  400592:	8b 42 10             	mov    eax,DWORD PTR [rdx+0x10]
  400595:	83 f8 03             	cmp    eax,0x3
  400598:	0f 84 ce 00 00 00    	je     40066c <init_done+0x12c>

	/*
	 * This should *ONLY* happen for the initialization thread
	 * *after* it executes `cos_init`.
	 */
	if (s->status == SCHEDINIT_INITING) {
  40059e:	83 f8 01             	cmp    eax,0x1
  4005a1:	74 6d                	je     400610 <init_done+0xd0>
	assert(*barrier <= ncore);
  4005a3:	8b 4a 08             	mov    ecx,DWORD PTR [rdx+0x8]
  4005a6:	48 39 0a             	cmp    QWORD PTR [rdx],rcx
  4005a9:	0f 87 95 00 00 00    	ja     400644 <init_done+0x104>
ps_faa(unsigned long *target, long inc)
{
#pragma GCC diagnostic push
#pragma GCC diagnostic ignored "-Warray-bounds"
/* GCC has bug of processing a warning(-Warray-bounds) and not get fixed, thus close the warning in this function */
        __asm__ __volatile__("lock " PS_FAA_STR
  4005af:	b8 01 00 00 00       	mov    eax,0x1
  4005b4:	f0 48 0f c1 02       	lock xadd QWORD PTR [rdx],rax
                             : "+m" (*target), "+q" (inc)
                             : : "memory", "cc");
        return inc;
  4005b9:	0f 1f 80 00 00 00 00 	nop    DWORD PTR [rax+0x0]
	while (ps_load(barrier) < ncore) ;
  4005c0:	48 8b 02             	mov    rax,QWORD PTR [rdx]
  4005c3:	48 39 c1             	cmp    rcx,rax
  4005c6:	77 f8                	ja     4005c0 <init_done+0x80>
 	 * If this barrier is hit *after* the parallel initialization
	 * has finished, no blocking will occur as its count has
	 * already been hit.
	 */
	simple_barrier(&s->barrier);
	s->status = SCHEDINIT_MAIN;
  4005c8:	48 8d 04 bf          	lea    rax,[rdi+rdi*4]
  4005cc:	4c 8d 24 c6          	lea    r12,[rsi+rax*8]

	s->initialization_thds[cos_coreid()] = slm_thd_current_extern();
  4005d0:	48 b8 90 1e 40 00 00 	movabs rax,0x401e90
  4005d7:	00 00 00 
	s->status = SCHEDINIT_MAIN;
  4005da:	41 c7 44 24 10 03 00 	mov    DWORD PTR [r12+0x10],0x3
  4005e1:	00 00 
	s->initialization_thds[cos_coreid()] = slm_thd_current_extern();
  4005e3:	ff d0                	call   rax
  4005e5:	49 89 44 24 20       	mov    QWORD PTR [r12+0x20],rax
	extern int thd_block(void);
	thd_block(); 		/* block until initialization is completed */
  4005ea:	48 b8 40 2b 40 00 00 	movabs rax,0x402b40
  4005f1:	00 00 00 
  4005f4:	ff d0                	call   rax

 	/*
	 * After initialization, we're done with the parallel threads
	 * in some cases.
	 */
	if ((cos_coreid() != s->init_core && cont == INIT_MAIN_SINGLE) || cont == INIT_MAIN_NONE) {
  4005f6:	49 83 7c 24 18 00    	cmp    QWORD PTR [r12+0x18],0x0
  4005fc:	74 05                	je     400603 <init_done+0xc3>
  4005fe:	83 fb 01             	cmp    ebx,0x1
  400601:	74 69                	je     40066c <init_done+0x12c>
  400603:	85 db                	test   ebx,ebx
  400605:	74 65                	je     40066c <init_done+0x12c>
	 * main execution. We'd expect the next API call here to be
	 * `init_exit`.
	 */

	return;
}
  400607:	5b                   	pop    rbx
  400608:	41 5c                	pop    r12
  40060a:	5d                   	pop    rbp
  40060b:	c3                   	ret    
  40060c:	0f 1f 40 00          	nop    DWORD PTR [rax+0x0]
		ps_store(&s->status, SCHEDINIT_PARINIT);
  400610:	c7 42 10 02 00 00 00 	mov    DWORD PTR [rdx+0x10],0x2
}
  400617:	5b                   	pop    rbx
  400618:	41 5c                	pop    r12
  40061a:	5d                   	pop    rbp
  40061b:	c3                   	ret    
  40061c:	48 bf e0 ee 41 00 00 	movabs rdi,0x41eee0
  400623:	00 00 00 
  400626:	be 24 00 00 00       	mov    esi,0x24
  40062b:	48 b8 10 b3 40 00 00 	movabs rax,0x40b310
  400632:	00 00 00 
  400635:	ff d0                	call   rax
	assert(s->status != SCHEDINIT_FREE);
  400637:	c7 04 25 00 00 00 00 	mov    DWORD PTR ds:0x0,0x0
  40063e:	00 00 00 00 
  400642:	0f 0b                	ud2    
  400644:	48 bf 08 ef 41 00 00 	movabs rdi,0x41ef08
  40064b:	00 00 00 
  40064e:	be 5d 00 00 00       	mov    esi,0x5d
  400653:	48 b8 10 b3 40 00 00 	movabs rax,0x40b310
  40065a:	00 00 00 
  40065d:	ff d0                	call   rax
	assert(*barrier <= ncore);
  40065f:	c7 04 25 00 00 00 00 	mov    DWORD PTR ds:0x0,0x0
  400666:	00 00 00 00 
  40066a:	0f 0b                	ud2    
		exit_init_thd();
  40066c:	48 b8 c0 00 40 00 00 	movabs rax,0x4000c0
  400673:	00 00 00 
  400676:	ff d0                	call   rax
  400678:	0f 1f 84 00 00 00 00 	nop    DWORD PTR [rax+rax*1+0x0]
  40067f:	00 

0000000000400680 <init_exit>:

void
init_exit(int retval)
{
  400680:	f3 0f 1e fa          	endbr64 
	exit_init_thd();
  400684:	48 b8 c0 00 40 00 00 	movabs rax,0x4000c0
  40068b:	00 00 00 
{
  40068e:	55                   	push   rbp
  40068f:	48 89 e5             	mov    rbp,rsp
	exit_init_thd();
  400692:	ff d0                	call   rax
  400694:	66 66 2e 0f 1f 84 00 	data16 cs nop WORD PTR [rax+rax*1+0x0]
  40069b:	00 00 00 00 
  40069f:	90                   	nop

00000000004006a0 <slm_idle_comp_initialization>:
	return;
}

void
slm_idle_comp_initialization(void)
{
  4006a0:	f3 0f 1e fa          	endbr64 
	if (cos_coreid() == 0) printc("Scheduler %ld: Running initialization thread.\n", cos_compid());
  4006a4:	48 b8 40 b0 42 00 00 	movabs rax,0x42b040
  4006ab:	00 00 00 
{
  4006ae:	55                   	push   rbp
	if (cos_coreid() == 0) printc("Scheduler %ld: Running initialization thread.\n", cos_compid());
  4006af:	48 bf 68 ef 41 00 00 	movabs rdi,0x41ef68
  4006b6:	00 00 00 
{
  4006b9:	48 89 e5             	mov    rbp,rsp
  4006bc:	41 57                	push   r15
  4006be:	41 56                	push   r14
  4006c0:	41 55                	push   r13
  4006c2:	41 54                	push   r12
	while (init_schedule_current != ps_load(&init_schedule_off)) {
  4006c4:	49 bc 40 20 46 00 00 	movabs r12,0x462040
  4006cb:	00 00 00 
{
  4006ce:	53                   	push   rbx
	if (cos_coreid() == 0) printc("Scheduler %ld: Running initialization thread.\n", cos_compid());
  4006cf:	48 bb 00 00 40 00 00 	movabs rbx,0x400000
  4006d6:	00 00 00 
{
  4006d9:	48 83 ec 28          	sub    rsp,0x28
	if (cos_coreid() == 0) printc("Scheduler %ld: Running initialization thread.\n", cos_compid());
  4006dd:	48 8b 30             	mov    rsi,QWORD PTR [rax]
  4006e0:	31 c0                	xor    eax,eax
  4006e2:	ff d3                	call   rbx
	while (init_schedule_current != ps_load(&init_schedule_off)) {
  4006e4:	49 8b 04 24          	mov    rax,QWORD PTR [r12]
  4006e8:	48 85 c0             	test   rax,rax
  4006eb:	0f 84 b5 00 00 00    	je     4007a6 <slm_idle_comp_initialization+0x106>
		param[0] = sched_param_pack(SCHEDP_INIT, 0);
  4006f1:	48 b8 f8 f1 41 00 00 	movabs rax,0x41f1f8
  4006f8:	00 00 00 
  4006fb:	31 db                	xor    ebx,ebx
  4006fd:	49 bd 40 1e 46 00 00 	movabs r13,0x461e40
  400704:	00 00 00 
		if (cos_coreid() == 0)	printc("\tScheduler %ld: initializing component %ld with thread %ld.\n", cos_compid(), client, t->tid);
  400707:	49 bf f0 ef 41 00 00 	movabs r15,0x41eff0
  40070e:	00 00 00 
		param[0] = sched_param_pack(SCHEDP_INIT, 0);
  400711:	48 8b 00             	mov    rax,QWORD PTR [rax]
  400714:	48 89 45 b8          	mov    QWORD PTR [rbp-0x48],rax
  400718:	0f 1f 84 00 00 00 00 	nop    DWORD PTR [rax+rax*1+0x0]
  40071f:	00 
  400720:	48 8b 45 b8          	mov    rax,QWORD PTR [rbp-0x48]
		compid_t client = init_schedule[init_schedule_current];
  400724:	4d 8b 74 dd 00       	mov    r14,QWORD PTR [r13+rbx*8+0x0]
		t = thd_alloc_in(client, 0, param, 1);
  400729:	31 f6                	xor    esi,esi
  40072b:	b9 01 00 00 00       	mov    ecx,0x1
  400730:	48 8d 55 c8          	lea    rdx,[rbp-0x38]
		param[0] = sched_param_pack(SCHEDP_INIT, 0);
  400734:	48 89 45 c8          	mov    QWORD PTR [rbp-0x38],rax
		t = thd_alloc_in(client, 0, param, 1);
  400738:	4c 89 f7             	mov    rdi,r14
  40073b:	48 b8 e0 5d 40 00 00 	movabs rax,0x405de0
  400742:	00 00 00 
  400745:	ff d0                	call   rax
		assert(t);
  400747:	48 85 c0             	test   rax,rax
  40074a:	0f 84 56 01 00 00    	je     4008a6 <slm_idle_comp_initialization+0x206>
		if (cos_coreid() == 0)	printc("\tScheduler %ld: initializing component %ld with thread %ld.\n", cos_compid(), client, t->tid);
  400750:	48 8b 48 18          	mov    rcx,QWORD PTR [rax+0x18]
  400754:	4c 89 f2             	mov    rdx,r14
  400757:	4c 89 ff             	mov    rdi,r15
		init_schedule_current++;
  40075a:	48 83 c3 01          	add    rbx,0x1
		if (cos_coreid() == 0)	printc("\tScheduler %ld: initializing component %ld with thread %ld.\n", cos_compid(), client, t->tid);
  40075e:	48 b8 40 b0 42 00 00 	movabs rax,0x42b040
  400765:	00 00 00 
  400768:	48 8b 30             	mov    rsi,QWORD PTR [rax]
  40076b:	31 c0                	xor    eax,eax
  40076d:	49 bb 00 00 40 00 00 	movabs r11,0x400000
  400774:	00 00 00 
  400777:	41 ff d3             	call   r11
		while (ps_load(&n->initialization_thds[cos_coreid()]) == NULL) ;
  40077a:	4b 8d 04 b6          	lea    rax,[r14+r14*4]
  40077e:	48 be 40 14 46 00 00 	movabs rsi,0x461440
  400785:	00 00 00 
  400788:	48 8d 14 c6          	lea    rdx,[rsi+rax*8]
  40078c:	0f 1f 40 00          	nop    DWORD PTR [rax+0x0]
  400790:	48 8b 42 20          	mov    rax,QWORD PTR [rdx+0x20]
  400794:	48 85 c0             	test   rax,rax
  400797:	74 f7                	je     400790 <slm_idle_comp_initialization+0xf0>
	while (init_schedule_current != ps_load(&init_schedule_off)) {
  400799:	49 8b 04 24          	mov    rax,QWORD PTR [r12]
  40079d:	48 39 c3             	cmp    rbx,rax
  4007a0:	0f 85 7a ff ff ff    	jne    400720 <slm_idle_comp_initialization+0x80>
	if (cos_coreid() == 0) printc("Scheduler %ld, initialization completed.\n", cos_compid());
  4007a6:	48 b8 40 b0 42 00 00 	movabs rax,0x42b040
  4007ad:	00 00 00 
  4007b0:	48 8b 30             	mov    rsi,QWORD PTR [rax]
  4007b3:	31 c0                	xor    eax,eax
  4007b5:	48 bf 98 ef 41 00 00 	movabs rdi,0x41ef98
  4007bc:	00 00 00 
  4007bf:	48 bb 00 00 40 00 00 	movabs rbx,0x400000
  4007c6:	00 00 00 
  4007c9:	49 bf c0 5e 5a 00 00 	movabs r15,0x5a5ec0
  4007d0:	00 00 00 
  4007d3:	ff d3                	call   rbx
	slm_cs_enter(slm_thd_special(), SLM_CS_NONE);
  4007d5:	48 b8 e0 5d 41 00 00 	movabs rax,0x415de0
  4007dc:	00 00 00 
			ret = slm_cs_enter_contention(cs, cached, current, owner, contended, tok);
  4007df:	48 bb 50 5f 41 00 00 	movabs rbx,0x415f50
  4007e6:	00 00 00 
  4007e9:	ff d0                	call   rax
  4007eb:	49 89 c5             	mov    r13,rax
	assert(current);
  4007ee:	48 85 c0             	test   rax,rax
  4007f1:	0f 84 1e 02 00 00    	je     400a15 <slm_idle_comp_initialization+0x375>
		tok    = cos_sched_sync();
  4007f7:	48 b8 d0 35 41 00 00 	movabs rax,0x4135d0
  4007fe:	00 00 00 
  400801:	ff d0                	call   rax
  400803:	41 89 c1             	mov    r9d,eax
	unsigned long oc = ps_load(&cs->owner_contention);
  400806:	49 8b 07             	mov    rax,QWORD PTR [r15]
		if (unlikely(owner)) {
  400809:	48 89 c1             	mov    rcx,rax
  40080c:	48 83 e1 fe          	and    rcx,0xfffffffffffffffe
  400810:	0f 85 bc 01 00 00    	jne    4009d2 <slm_idle_comp_initialization+0x332>
        __asm__ __volatile__("lock " PS_CAS_STR
  400816:	f0 4d 0f b1 2f       	lock cmpxchg QWORD PTR [r15],r13
  40081b:	0f 94 c0             	sete   al
		if (likely(!__slm_cs_cas(cs, cached, current, 0))) return 0;
  40081e:	84 c0                	test   al,al
  400820:	74 d5                	je     4007f7 <slm_idle_comp_initialization+0x157>
	for (i = 0; i < ps_load(&init_schedule_off); i++) {
  400822:	49 8b 04 24          	mov    rax,QWORD PTR [r12]
  400826:	45 31 f6             	xor    r14d,r14d
  400829:	49 bd 40 1e 46 00 00 	movabs r13,0x461e40
  400830:	00 00 00 
  400833:	48 bb 40 14 46 00 00 	movabs rbx,0x461440
  40083a:	00 00 00 
  40083d:	48 85 c0             	test   rax,rax
  400840:	75 29                	jne    40086b <slm_idle_comp_initialization+0x1cb>
  400842:	e9 87 00 00 00       	jmp    4008ce <slm_idle_comp_initialization+0x22e>
  400847:	66 0f 1f 84 00 00 00 	nop    WORD PTR [rax+rax*1+0x0]
  40084e:	00 00 
		slm_thd_wakeup(t, 0);
  400850:	48 b8 c0 66 41 00 00 	movabs rax,0x4166c0
  400857:	00 00 00 
  40085a:	31 f6                	xor    esi,esi
	for (i = 0; i < ps_load(&init_schedule_off); i++) {
  40085c:	49 83 c6 01          	add    r14,0x1
		slm_thd_wakeup(t, 0);
  400860:	ff d0                	call   rax
	for (i = 0; i < ps_load(&init_schedule_off); i++) {
  400862:	49 8b 04 24          	mov    rax,QWORD PTR [r12]
  400866:	49 39 c6             	cmp    r14,rax
  400869:	73 63                	jae    4008ce <slm_idle_comp_initialization+0x22e>
		t = initialization_state[client].initialization_thds[cos_coreid()];
  40086b:	4b 8b 44 f5 00       	mov    rax,QWORD PTR [r13+r14*8+0x0]
  400870:	48 8d 04 80          	lea    rax,[rax+rax*4]
  400874:	48 8b 7c c3 20       	mov    rdi,QWORD PTR [rbx+rax*8+0x20]
		assert(t != NULL);
  400879:	48 85 ff             	test   rdi,rdi
  40087c:	75 d2                	jne    400850 <slm_idle_comp_initialization+0x1b0>
  40087e:	48 bf 30 f0 41 00 00 	movabs rdi,0x41f030
  400885:	00 00 00 
  400888:	be 24 00 00 00       	mov    esi,0x24
  40088d:	48 b8 10 b3 40 00 00 	movabs rax,0x40b310
  400894:	00 00 00 
  400897:	ff d0                	call   rax
  400899:	c7 04 25 00 00 00 00 	mov    DWORD PTR ds:0x0,0x0
  4008a0:	00 00 00 00 
  4008a4:	0f 0b                	ud2    
  4008a6:	48 bf c8 ef 41 00 00 	movabs rdi,0x41efc8
  4008ad:	00 00 00 
  4008b0:	be 24 00 00 00       	mov    esi,0x24
  4008b5:	48 b8 10 b3 40 00 00 	movabs rax,0x40b310
  4008bc:	00 00 00 
  4008bf:	ff d0                	call   rax
		assert(t);
  4008c1:	c7 04 25 00 00 00 00 	mov    DWORD PTR ds:0x0,0x0
  4008c8:	00 00 00 00 
  4008cc:	0f 0b                	ud2    
	slm_cs_exit_reschedule(slm_thd_special(), SLM_CS_NONE);
  4008ce:	48 b8 e0 5d 41 00 00 	movabs rax,0x415de0
  4008d5:	00 00 00 
		}
	}

	/* Make a policy decision! */
	t = slm_sched_schedule();
	if (unlikely(!t)) t = &g->idle_thd;
  4008d8:	49 be 40 5f 5a 00 00 	movabs r14,0x5a5f40
  4008df:	00 00 00 
  4008e2:	ff d0                	call   rax
  4008e4:	49 89 c5             	mov    r13,rax
	struct cos_compinfo    *ci  = &cos_defcompinfo_curr_get()->ci;
  4008e7:	48 b8 10 ce 40 00 00 	movabs rax,0x40ce10
  4008ee:	00 00 00 
  4008f1:	ff d0                	call   rax
	tok  = cos_sched_sync();
  4008f3:	48 b8 d0 35 41 00 00 	movabs rax,0x4135d0
  4008fa:	00 00 00 
  4008fd:	ff d0                	call   rax
  4008ff:	41 89 c4             	mov    r12d,eax
	t = slm_sched_schedule();
  400902:	48 b8 e0 1c 40 00 00 	movabs rax,0x401ce0
  400909:	00 00 00 
  40090c:	ff d0                	call   rax
	if (unlikely(!t)) t = &g->idle_thd;
  40090e:	48 85 c0             	test   rax,rax
	t = slm_sched_schedule();
  400911:	48 89 c3             	mov    rbx,rax
	if (unlikely(!t)) t = &g->idle_thd;
  400914:	49 0f 44 de          	cmove  rbx,r14
{ return s == SLM_THD_RUNNABLE || s == SLM_THD_WOKEN; }
  400918:	8b 43 04             	mov    eax,DWORD PTR [rbx+0x4]
  40091b:	83 e8 02             	sub    eax,0x2

	assert(slm_state_is_runnable(t->state));
  40091e:	83 f8 01             	cmp    eax,0x1
  400921:	76 19                	jbe    40093c <slm_idle_comp_initialization+0x29c>
  400923:	e9 15 01 00 00       	jmp    400a3d <slm_idle_comp_initialization+0x39d>
  400928:	0f 1f 84 00 00 00 00 	nop    DWORD PTR [rax+rax*1+0x0]
  40092f:	00 
  400930:	f0 49 0f b1 17       	lock cmpxchg QWORD PTR [r15],rdx
  400935:	0f 94 c0             	sete   al
	while (ret != 0) {
  400938:	84 c0                	test   al,al
  40093a:	75 36                	jne    400972 <slm_idle_comp_initialization+0x2d2>
		tok    = cos_sched_sync();
  40093c:	48 b8 d0 35 41 00 00 	movabs rax,0x4135d0
  400943:	00 00 00 
  400946:	ff d0                	call   rax
  400948:	89 c1                	mov    ecx,eax
	unsigned long oc = ps_load(&cs->owner_contention);
  40094a:	49 8b 07             	mov    rax,QWORD PTR [r15]
		if (unlikely(contention)) {
  40094d:	48 89 c2             	mov    rdx,rax
  400950:	83 e2 01             	and    edx,0x1
  400953:	74 db                	je     400930 <slm_idle_comp_initialization+0x290>
	*thd        = (struct slm_thd *)(oc & (~0UL << 1));
  400955:	48 89 c6             	mov    rsi,rax
			if (!slm_cs_exit_contention(cs, current, cached, tok)) return;
  400958:	48 89 c2             	mov    rdx,rax
  40095b:	4c 89 ff             	mov    rdi,r15
  40095e:	48 b8 b0 5f 41 00 00 	movabs rax,0x415fb0
  400965:	00 00 00 
  400968:	48 83 e6 fe          	and    rsi,0xfffffffffffffffe
  40096c:	ff d0                	call   rax
  40096e:	85 c0                	test   eax,eax
  400970:	75 ca                	jne    40093c <slm_idle_comp_initialization+0x29c>
	struct cos_defcompinfo *dci = cos_defcompinfo_curr_get();
  400972:	48 b8 10 ce 40 00 00 	movabs rax,0x40ce10
  400979:	00 00 00 
  40097c:	ff d0                	call   rax
	prio = inherit_prio ? curr->priority : t->priority;
  40097e:	4c 8b 53 30          	mov    r10,QWORD PTR [rbx+0x30]
	timeout = g->timeout_next;
  400982:	48 b8 c8 5f 5a 00 00 	movabs rax,0x5a5fc8
  400989:	00 00 00 
  40098c:	48 8b 30             	mov    rsi,QWORD PTR [rax]
	if (unlikely(t->properties & (SLM_THD_PROPERTY_SEND | SLM_THD_PROPERTY_OWN_TCAP | SLM_THD_PROPERTY_SPECIAL))) {
  40098f:	8b 03                	mov    eax,DWORD PTR [rbx]
  400991:	a8 0b                	test   al,0xb
  400993:	0f 85 10 01 00 00    	jne    400aa9 <slm_idle_comp_initialization+0x409>
	ret = cos_defswitch(t->thd, prio, timeout, tok);
  400999:	48 89 f2             	mov    rdx,rsi
  40099c:	44 89 e1             	mov    ecx,r12d
  40099f:	4c 89 d6             	mov    rsi,r10
  4009a2:	48 8b 7b 10          	mov    rdi,QWORD PTR [rbx+0x10]
  4009a6:	48 b8 70 e1 40 00 00 	movabs rax,0x40e170
  4009ad:	00 00 00 
  4009b0:	ff d0                	call   rax
	if (unlikely(ret == -EPERM && !slm_thd_normal(t))) {
  4009b2:	83 f8 ff             	cmp    eax,0xffffffff
  4009b5:	0f 84 aa 00 00 00    	je     400a65 <slm_idle_comp_initialization+0x3c5>
	slm_cs_exit(NULL, flags);

	ret = slm_thd_activate(curr, t, tok, 0);
	
	if (unlikely(ret != 0)) {
  4009bb:	85 c0                	test   eax,eax
  4009bd:	0f 85 47 01 00 00    	jne    400b0a <slm_idle_comp_initialization+0x46a>
	slm_comp_init_loop();
}
  4009c3:	48 83 c4 28          	add    rsp,0x28
  4009c7:	5b                   	pop    rbx
  4009c8:	41 5c                	pop    r12
  4009ca:	41 5d                	pop    r13
  4009cc:	41 5e                	pop    r14
  4009ce:	41 5f                	pop    r15
  4009d0:	5d                   	pop    rbp
  4009d1:	c3                   	ret    
			ret = slm_cs_enter_contention(cs, cached, current, owner, contended, tok);
  4009d2:	41 89 c0             	mov    r8d,eax
  4009d5:	4c 89 ea             	mov    rdx,r13
  4009d8:	48 89 c6             	mov    rsi,rax
  4009db:	4c 89 ff             	mov    rdi,r15
  4009de:	41 83 e0 01          	and    r8d,0x1
  4009e2:	ff d3                	call   rbx
			assert(ret != -EBUSY);
  4009e4:	83 f8 f0             	cmp    eax,0xfffffff0
  4009e7:	0f 85 0a fe ff ff    	jne    4007f7 <slm_idle_comp_initialization+0x157>
  4009ed:	48 bf 38 ed 41 00 00 	movabs rdi,0x41ed38
  4009f4:	00 00 00 
  4009f7:	be 59 00 00 00       	mov    esi,0x59
  4009fc:	48 b8 10 b3 40 00 00 	movabs rax,0x40b310
  400a03:	00 00 00 
  400a06:	ff d0                	call   rax
  400a08:	c7 04 25 00 00 00 00 	mov    DWORD PTR ds:0x0,0x0
  400a0f:	00 00 00 00 
  400a13:	0f 0b                	ud2    
  400a15:	48 bf d8 ec 41 00 00 	movabs rdi,0x41ecd8
  400a1c:	00 00 00 
  400a1f:	be 59 00 00 00       	mov    esi,0x59
  400a24:	48 b8 10 b3 40 00 00 	movabs rax,0x40b310
  400a2b:	00 00 00 
  400a2e:	ff d0                	call   rax
	assert(current);
  400a30:	c7 04 25 00 00 00 00 	mov    DWORD PTR ds:0x0,0x0
  400a37:	00 00 00 00 
  400a3b:	0f 0b                	ud2    
  400a3d:	48 bf 58 f0 41 00 00 	movabs rdi,0x41f058
  400a44:	00 00 00 
  400a47:	be 61 00 00 00       	mov    esi,0x61
  400a4c:	48 b8 10 b3 40 00 00 	movabs rax,0x40b310
  400a53:	00 00 00 
  400a56:	ff d0                	call   rax
	assert(slm_state_is_runnable(t->state));
  400a58:	c7 04 25 00 00 00 00 	mov    DWORD PTR ds:0x0,0x0
  400a5f:	00 00 00 00 
  400a63:	0f 0b                	ud2    
	return t != &g->idle_thd && t != &g->sched_thd;
  400a65:	4c 39 f3             	cmp    rbx,r14
  400a68:	0f 84 05 01 00 00    	je     400b73 <slm_idle_comp_initialization+0x4d3>
  400a6e:	48 b8 c8 5e 5a 00 00 	movabs rax,0x5a5ec8
  400a75:	00 00 00 
  400a78:	48 39 c3             	cmp    rbx,rax
  400a7b:	0f 84 f2 00 00 00    	je     400b73 <slm_idle_comp_initialization+0x4d3>
  400a81:	48 bf c0 f0 41 00 00 	movabs rdi,0x41f0c0
  400a88:	00 00 00 
  400a8b:	be 61 00 00 00       	mov    esi,0x61
  400a90:	48 b8 10 b3 40 00 00 	movabs rax,0x40b310
  400a97:	00 00 00 
  400a9a:	ff d0                	call   rax
		/* Assuming only the single tcap with infinite budget...should not get EPERM */
		assert(ret != -EPERM);
  400a9c:	c7 04 25 00 00 00 00 	mov    DWORD PTR ds:0x0,0x0
  400aa3:	00 00 00 00 
  400aa7:	0f 0b                	ud2    
		if (t == &g->sched_thd) {
  400aa9:	48 ba c8 5e 5a 00 00 	movabs rdx,0x5a5ec8
  400ab0:	00 00 00 
	timeout = g->timeout_next;
  400ab3:	48 89 f1             	mov    rcx,rsi
		if (t == &g->sched_thd) {
  400ab6:	48 39 d3             	cmp    rbx,rdx
  400ab9:	0f 84 a9 00 00 00    	je     400b68 <slm_idle_comp_initialization+0x4c8>
		if (t->properties & SLM_THD_PROPERTY_SEND) {
  400abf:	a8 02                	test   al,0x2
  400ac1:	0f 85 d9 00 00 00    	jne    400ba0 <slm_idle_comp_initialization+0x500>
		} else if (t->properties & SLM_THD_PROPERTY_OWN_TCAP) {
  400ac7:	48 89 ce             	mov    rsi,rcx
  400aca:	a8 01                	test   al,0x1
  400acc:	0f 84 c7 fe ff ff    	je     400999 <slm_idle_comp_initialization+0x2f9>
			return cos_switch(t->thd, t->tc, prio, timeout, g->sched_thd.rcv, tok);
  400ad2:	48 8b 73 08          	mov    rsi,QWORD PTR [rbx+0x8]
  400ad6:	48 8b 7b 10          	mov    rdi,QWORD PTR [rbx+0x10]
  400ada:	45 89 e1             	mov    r9d,r12d
  400add:	4c 89 d2             	mov    rdx,r10
  400ae0:	48 b8 e8 5e 5a 00 00 	movabs rax,0x5a5ee8
  400ae7:	00 00 00 
  400aea:	4c 8b 00             	mov    r8,QWORD PTR [rax]
  400aed:	48 b8 f0 35 41 00 00 	movabs rax,0x4135f0
  400af4:	00 00 00 
  400af7:	ff d0                	call   rax
	if (unlikely(ret != 0)) {
  400af9:	85 c0                	test   eax,eax
  400afb:	0f 84 c2 fe ff ff    	je     4009c3 <slm_idle_comp_initialization+0x323>
		assert(ret != -EPERM);
  400b01:	83 f8 ff             	cmp    eax,0xffffffff
  400b04:	0f 84 77 ff ff ff    	je     400a81 <slm_idle_comp_initialization+0x3e1>
		assert(ret != -EINVAL);
  400b0a:	83 f8 ea             	cmp    eax,0xffffffea
  400b0d:	0f 84 f7 00 00 00    	je     400c0a <slm_idle_comp_initialization+0x56a>

		/*
		 * If the slm_thd_activate returns -EBUSY, this means we are trying to switch to the scheduler thread,
		 * and scheduler thread still has pending events. Directly return to process pending events.
		 */
		if (ret == -EBUSY) return ret;
  400b13:	83 f8 f0             	cmp    eax,0xfffffff0
  400b16:	0f 84 a7 fe ff ff    	je     4009c3 <slm_idle_comp_initialization+0x323>
		/* If the slm_thd_activate returns -EAGAIN, this means this scheduling token is outdated, try again */
		assert(ret == -EAGAIN);
  400b1c:	83 f8 f5             	cmp    eax,0xfffffff5
  400b1f:	0f 85 bd 00 00 00    	jne    400be2 <slm_idle_comp_initialization+0x542>
  400b25:	4d 85 ed             	test   r13,r13
  400b28:	0f 84 e7 fe ff ff    	je     400a15 <slm_idle_comp_initialization+0x375>
			ret = slm_cs_enter_contention(cs, cached, current, owner, contended, tok);
  400b2e:	48 bb 50 5f 41 00 00 	movabs rbx,0x415f50
  400b35:	00 00 00 
		tok    = cos_sched_sync();
  400b38:	48 b8 d0 35 41 00 00 	movabs rax,0x4135d0
  400b3f:	00 00 00 
  400b42:	ff d0                	call   rax
	unsigned long oc = ps_load(&cs->owner_contention);
  400b44:	49 8b 37             	mov    rsi,QWORD PTR [r15]
  400b47:	41 89 c1             	mov    r9d,eax
		if (unlikely(owner)) {
  400b4a:	48 89 f1             	mov    rcx,rsi
  400b4d:	48 83 e1 fe          	and    rcx,0xfffffffffffffffe
  400b51:	75 72                	jne    400bc5 <slm_idle_comp_initialization+0x525>
  400b53:	48 89 f0             	mov    rax,rsi
  400b56:	f0 4d 0f b1 2f       	lock cmpxchg QWORD PTR [r15],r13
  400b5b:	0f 94 c0             	sete   al
		if (likely(!__slm_cs_cas(cs, cached, current, 0))) return 0;
  400b5e:	84 c0                	test   al,al
  400b60:	0f 85 8d fd ff ff    	jne    4008f3 <slm_idle_comp_initialization+0x253>
  400b66:	eb d0                	jmp    400b38 <slm_idle_comp_initialization+0x498>
			prio    = curr->priority;
  400b68:	4d 8b 55 30          	mov    r10,QWORD PTR [r13+0x30]
			timeout = TCAP_TIME_NIL;
  400b6c:	31 c9                	xor    ecx,ecx
  400b6e:	e9 4c ff ff ff       	jmp    400abf <slm_idle_comp_initialization+0x41f>
		ret = cos_switch(g->sched_thd.thd, 0, curr->priority, TCAP_TIME_NIL, g->sched_thd.rcv, tok);
  400b73:	49 8b 55 30          	mov    rdx,QWORD PTR [r13+0x30]
  400b77:	45 89 e1             	mov    r9d,r12d
  400b7a:	31 c9                	xor    ecx,ecx
  400b7c:	31 f6                	xor    esi,esi
  400b7e:	48 b8 e8 5e 5a 00 00 	movabs rax,0x5a5ee8
  400b85:	00 00 00 
  400b88:	4c 8b 00             	mov    r8,QWORD PTR [rax]
  400b8b:	48 8b 78 f0          	mov    rdi,QWORD PTR [rax-0x10]
  400b8f:	48 b8 f0 35 41 00 00 	movabs rax,0x4135f0
  400b96:	00 00 00 
  400b99:	ff d0                	call   rax
  400b9b:	e9 59 ff ff ff       	jmp    400af9 <slm_idle_comp_initialization+0x459>
			return cos_sched_asnd(t->asnd, g->timeout_next, g->sched_thd.rcv, tok);
  400ba0:	48 b8 e8 5e 5a 00 00 	movabs rax,0x5a5ee8
  400ba7:	00 00 00 
  400baa:	48 8b 7b 28          	mov    rdi,QWORD PTR [rbx+0x28]
  400bae:	48 8b 10             	mov    rdx,QWORD PTR [rax]
  400bb1:	44 89 e1             	mov    ecx,r12d
  400bb4:	48 b8 60 36 41 00 00 	movabs rax,0x413660
  400bbb:	00 00 00 
  400bbe:	ff d0                	call   rax
  400bc0:	e9 34 ff ff ff       	jmp    400af9 <slm_idle_comp_initialization+0x459>
			ret = slm_cs_enter_contention(cs, cached, current, owner, contended, tok);
  400bc5:	41 89 f0             	mov    r8d,esi
  400bc8:	4c 89 ea             	mov    rdx,r13
  400bcb:	4c 89 ff             	mov    rdi,r15
  400bce:	41 83 e0 01          	and    r8d,0x1
  400bd2:	ff d3                	call   rbx
			assert(ret != -EBUSY);
  400bd4:	83 f8 f0             	cmp    eax,0xfffffff0
  400bd7:	0f 85 5b ff ff ff    	jne    400b38 <slm_idle_comp_initialization+0x498>
  400bdd:	e9 0b fe ff ff       	jmp    4009ed <slm_idle_comp_initialization+0x34d>
  400be2:	48 bf 90 f1 41 00 00 	movabs rdi,0x41f190
  400be9:	00 00 00 
  400bec:	be 61 00 00 00       	mov    esi,0x61
  400bf1:	48 b8 10 b3 40 00 00 	movabs rax,0x40b310
  400bf8:	00 00 00 
  400bfb:	ff d0                	call   rax
		assert(ret == -EAGAIN);
  400bfd:	c7 04 25 00 00 00 00 	mov    DWORD PTR ds:0x0,0x0
  400c04:	00 00 00 00 
  400c08:	0f 0b                	ud2    
  400c0a:	48 bf 28 f1 41 00 00 	movabs rdi,0x41f128
  400c11:	00 00 00 
  400c14:	be 61 00 00 00       	mov    esi,0x61
  400c19:	48 b8 10 b3 40 00 00 	movabs rax,0x40b310
  400c20:	00 00 00 
  400c23:	ff d0                	call   rax
		assert(ret != -EINVAL);
  400c25:	c7 04 25 00 00 00 00 	mov    DWORD PTR ds:0x0,0x0
  400c2c:	00 00 00 00 
  400c30:	0f 0b                	ud2    
  400c32:	66 2e 0f 1f 84 00 00 	cs nop WORD PTR [rax+rax*1+0x0]
  400c39:	00 00 00 
  400c3c:	0f 1f 40 00          	nop    DWORD PTR [rax+0x0]

0000000000400c40 <printc.constprop.0>:
printc(char *fmt, ...)
  400c40:	f3 0f 1e fa          	endbr64 
  400c44:	55                   	push   rbp
  400c45:	48 89 e5             	mov    rbp,rsp
  400c48:	48 81 ec 90 01 00 00 	sub    rsp,0x190
  400c4f:	48 89 b5 58 ff ff ff 	mov    QWORD PTR [rbp-0xa8],rsi
  400c56:	48 89 95 60 ff ff ff 	mov    QWORD PTR [rbp-0xa0],rdx
  400c5d:	48 89 8d 68 ff ff ff 	mov    QWORD PTR [rbp-0x98],rcx
  400c64:	4c 89 85 70 ff ff ff 	mov    QWORD PTR [rbp-0x90],r8
  400c6b:	4c 89 8d 78 ff ff ff 	mov    QWORD PTR [rbp-0x88],r9
  400c72:	84 c0                	test   al,al
  400c74:	74 20                	je     400c96 <printc.constprop.0+0x56>
  400c76:	0f 29 45 80          	movaps XMMWORD PTR [rbp-0x80],xmm0
  400c7a:	0f 29 4d 90          	movaps XMMWORD PTR [rbp-0x70],xmm1
  400c7e:	0f 29 55 a0          	movaps XMMWORD PTR [rbp-0x60],xmm2
  400c82:	0f 29 5d b0          	movaps XMMWORD PTR [rbp-0x50],xmm3
  400c86:	0f 29 65 c0          	movaps XMMWORD PTR [rbp-0x40],xmm4
  400c8a:	0f 29 6d d0          	movaps XMMWORD PTR [rbp-0x30],xmm5
  400c8e:	0f 29 75 e0          	movaps XMMWORD PTR [rbp-0x20],xmm6
  400c92:	0f 29 7d f0          	movaps XMMWORD PTR [rbp-0x10],xmm7
	va_start(arg_ptr, fmt);
  400c96:	48 8d 45 10          	lea    rax,[rbp+0x10]
	ret = vsnprintf(s, 180, fmt, arg_ptr);
  400c9a:	be b4 00 00 00       	mov    esi,0xb4
  400c9f:	48 8d 8d 78 fe ff ff 	lea    rcx,[rbp-0x188]
	va_start(arg_ptr, fmt);
  400ca6:	c7 85 78 fe ff ff 08 	mov    DWORD PTR [rbp-0x188],0x8
  400cad:	00 00 00 
  400cb0:	48 89 85 80 fe ff ff 	mov    QWORD PTR [rbp-0x180],rax
  400cb7:	48 8d 85 50 ff ff ff 	lea    rax,[rbp-0xb0]
	ret = vsnprintf(s, 180, fmt, arg_ptr);
  400cbe:	48 8d bd 90 fe ff ff 	lea    rdi,[rbp-0x170]
  400cc5:	48 ba 00 f2 41 00 00 	movabs rdx,0x41f200
  400ccc:	00 00 00 
	va_start(arg_ptr, fmt);
  400ccf:	48 89 85 88 fe ff ff 	mov    QWORD PTR [rbp-0x178],rax
	ret = vsnprintf(s, 180, fmt, arg_ptr);
  400cd6:	48 b8 20 80 41 00 00 	movabs rax,0x418020
  400cdd:	00 00 00 
	va_start(arg_ptr, fmt);
  400ce0:	c7 85 7c fe ff ff 30 	mov    DWORD PTR [rbp-0x184],0x30
  400ce7:	00 00 00 
	ret = vsnprintf(s, 180, fmt, arg_ptr);
  400cea:	ff d0                	call   rax
	ret = cos_print_str(s, ret);
  400cec:	48 8d bd 90 fe ff ff 	lea    rdi,[rbp-0x170]
  400cf3:	be 1b 00 00 00       	mov    esi,0x1b
  400cf8:	48 b8 10 b3 40 00 00 	movabs rax,0x40b310
  400cff:	00 00 00 
  400d02:	ff d0                	call   rax
}
  400d04:	c9                   	leave  
  400d05:	c3                   	ret    
  400d06:	66 2e 0f 1f 84 00 00 	cs nop WORD PTR [rax+rax*1+0x0]
  400d0d:	00 00 00 

0000000000400d10 <slm_ipi_process>:
	goto done;
}

void
slm_ipi_process(void *d)
{
  400d10:	f3 0f 1e fa          	endbr64 
	int rcvd, ret;
	struct slm_ipi_percore *ipi_data = slm_ipi_percore_get(cos_cpuid());
  400d14:	48 b8 c0 5d 41 00 00 	movabs rax,0x415dc0
  400d1b:	00 00 00 
{
  400d1e:	55                   	push   rbp
	struct slm_ipi_percore *ipi_data = slm_ipi_percore_get(cos_cpuid());
  400d1f:	31 ff                	xor    edi,edi
{
  400d21:	48 89 e5             	mov    rbp,rsp
  400d24:	41 57                	push   r15
  400d26:	41 56                	push   r14
  400d28:	41 55                	push   r13
  400d2a:	41 54                	push   r12
  400d2c:	53                   	push   rbx
  400d2d:	48 83 ec 28          	sub    rsp,0x28
	struct slm_ipi_percore *ipi_data = slm_ipi_percore_get(cos_cpuid());
  400d31:	ff d0                	call   rax
	struct slm_ipi_thd     *r        = &ipi_data->ipi_thd;
	struct slm_ipi_event    event    = { 0 };
  400d33:	48 c7 45 c8 00 00 00 	mov    QWORD PTR [rbp-0x38],0x0
  400d3a:	00 
	struct slm_ipi_percore *ipi_data = slm_ipi_percore_get(cos_cpuid());
  400d3b:	48 89 45 b8          	mov    QWORD PTR [rbp-0x48],rax
	__asm__("mov %%rsp, %0;" : "=r"(curr_stk_pointer));
  400d3f:	48 89 e0             	mov    rax,rsp
	return *(long *)((curr_stk_pointer & ~(COS_STACK_SZ - 1)) + COS_STACK_SZ - offset * sizeof(unsigned long));
  400d42:	48 25 00 e0 ff ff    	and    rax,0xffffffffffffe000
  400d48:	0f b7 80 f0 1f 00 00 	movzx  eax,WORD PTR [rax+0x1ff0]
SS_STATIC_SLAB(thd, struct slm_thd_container, MAX_NUM_THREADS);
  400d4f:	48 85 c0             	test   rax,rax
  400d52:	0f 84 3d 02 00 00    	je     400f95 <slm_ipi_process+0x285>
  400d58:	83 e8 01             	sub    eax,0x1
  400d5b:	83 f8 18             	cmp    eax,0x18
  400d5e:	0f 87 31 02 00 00    	ja     400f95 <slm_ipi_process+0x285>
  400d64:	48 b9 00 27 46 00 00 	movabs rcx,0x462700
  400d6b:	00 00 00 
  400d6e:	48 c7 45 b0 00 00 00 	mov    QWORD PTR [rbp-0x50],0x0
  400d75:	00 
  400d76:	48 8b 14 c1          	mov    rdx,QWORD PTR [rcx+rax*8]
}

static inline int
ss_state_is_allocated(ss_state_t state)
{
	return ((state & ~1) != 0) && ((state & 1) == SS_STATE_ALLOC);
  400d7a:	48 f7 c2 fe ff ff ff 	test   rdx,0xfffffffffffffffe
  400d81:	0f 85 c5 01 00 00    	jne    400f4c <slm_ipi_process+0x23c>
  400d87:	49 be d0 37 41 00 00 	movabs r14,0x4137d0
  400d8e:	00 00 00 
  400d91:	49 bc 80 5d 41 00 00 	movabs r12,0x415d80
  400d98:	00 00 00 
  400d9b:	0f 1f 44 00 00       	nop    DWORD PTR [rax+rax*1+0x0]
	struct slm_thd         *current  = slm_thd_current();
	struct slm_thd         *thd;

	while (1) {
		cos_rcv(r->rcv, RCV_ALL_PENDING, &rcvd);
  400da0:	48 8b 45 b8          	mov    rax,QWORD PTR [rbp-0x48]
  400da4:	48 8d 55 c4          	lea    rdx,[rbp-0x3c]
  400da8:	be 02 00 00 00       	mov    esi,0x2
  400dad:	48 8b 38             	mov    rdi,QWORD PTR [rax]
  400db0:	41 ff d6             	call   r14

		while (!slm_ipi_event_empty(cos_cpuid())) {
  400db3:	48 bb d0 35 41 00 00 	movabs rbx,0x4135d0
  400dba:	00 00 00 
  400dbd:	31 ff                	xor    edi,edi
  400dbf:	41 ff d4             	call   r12
  400dc2:	85 c0                	test   eax,eax
  400dc4:	75 da                	jne    400da0 <slm_ipi_process+0x90>
			slm_ipi_event_dequeue(&event, cos_cpuid());
  400dc6:	48 b8 20 5d 41 00 00 	movabs rax,0x415d20
  400dcd:	00 00 00 
  400dd0:	31 f6                	xor    esi,esi
  400dd2:	48 8d 7d c8          	lea    rdi,[rbp-0x38]
  400dd6:	ff d0                	call   rax
	return &ss_thd_get(id)->thd;
  400dd8:	48 8b 45 c8          	mov    rax,QWORD PTR [rbp-0x38]
SS_STATIC_SLAB(thd, struct slm_thd_container, MAX_NUM_THREADS);
  400ddc:	85 c0                	test   eax,eax
  400dde:	0f 84 e4 00 00 00    	je     400ec8 <slm_ipi_process+0x1b8>
  400de4:	83 e8 01             	sub    eax,0x1
  400de7:	83 f8 18             	cmp    eax,0x18
  400dea:	0f 87 d8 00 00 00    	ja     400ec8 <slm_ipi_process+0x1b8>
  400df0:	48 be 00 27 46 00 00 	movabs rsi,0x462700
  400df7:	00 00 00 
  400dfa:	45 31 ed             	xor    r13d,r13d
  400dfd:	48 8b 14 c6          	mov    rdx,QWORD PTR [rsi+rax*8]
  400e01:	48 f7 c2 fe ff ff ff 	test   rdx,0xfffffffffffffffe
  400e08:	74 19                	je     400e23 <slm_ipi_process+0x113>
  400e0a:	83 e2 01             	and    edx,0x1
  400e0d:	75 14                	jne    400e23 <slm_ipi_process+0x113>
  400e0f:	48 8d 14 80          	lea    rdx,[rax+rax*4]
  400e13:	48 8d 04 50          	lea    rax,[rax+rdx*2]
  400e17:	48 c1 e0 04          	shl    rax,0x4
  400e1b:	4c 8d ac 06 c8 00 00 	lea    r13,[rsi+rax*1+0xc8]
  400e22:	00 
	assert(current);
  400e23:	48 83 7d b0 00       	cmp    QWORD PTR [rbp-0x50],0x0
  400e28:	0f 84 a8 00 00 00    	je     400ed6 <slm_ipi_process+0x1c6>
  400e2e:	49 bf c0 5e 5a 00 00 	movabs r15,0x5a5ec0
  400e35:	00 00 00 
		tok    = cos_sched_sync();
  400e38:	ff d3                	call   rbx
  400e3a:	41 89 c1             	mov    r9d,eax
	unsigned long oc = ps_load(&cs->owner_contention);
  400e3d:	49 8b 07             	mov    rax,QWORD PTR [r15]
		if (unlikely(owner)) {
  400e40:	48 89 c1             	mov    rcx,rax
  400e43:	48 83 e1 fe          	and    rcx,0xfffffffffffffffe
  400e47:	0f 85 b1 00 00 00    	jne    400efe <slm_ipi_process+0x1ee>
  400e4d:	48 8b 75 b0          	mov    rsi,QWORD PTR [rbp-0x50]
  400e51:	f0 49 0f b1 37       	lock cmpxchg QWORD PTR [r15],rsi
  400e56:	0f 94 c0             	sete   al
		if (likely(!__slm_cs_cas(cs, cached, current, 0))) return 0;
  400e59:	84 c0                	test   al,al
  400e5b:	74 db                	je     400e38 <slm_ipi_process+0x128>

			thd = slm_thd_static_cm_lookup(event.tid);
			slm_cs_enter(current, SLM_CS_NONE);
			ret = slm_thd_wakeup(thd, 0);
  400e5d:	48 b8 c0 66 41 00 00 	movabs rax,0x4166c0
  400e64:	00 00 00 
  400e67:	31 f6                	xor    esi,esi
  400e69:	4c 89 ef             	mov    rdi,r13
  400e6c:	ff d0                	call   rax
			/*
			 * Return "0" means the thread is woken up in this call.
			 * Return "1" means the thread is already `RUNNABLE`.
			 */
			assert(ret == 0 || ret == 1);
  400e6e:	83 f8 01             	cmp    eax,0x1
  400e71:	0f 87 f6 00 00 00    	ja     400f6d <slm_ipi_process+0x25d>
			if (!slm_cs_exit_contention(cs, current, cached, tok)) return;
  400e77:	49 bd b0 5f 41 00 00 	movabs r13,0x415fb0
  400e7e:	00 00 00 
  400e81:	eb 15                	jmp    400e98 <slm_ipi_process+0x188>
  400e83:	0f 1f 44 00 00       	nop    DWORD PTR [rax+rax*1+0x0]
  400e88:	f0 49 0f b1 17       	lock cmpxchg QWORD PTR [r15],rdx
  400e8d:	0f 94 c0             	sete   al
	while (ret != 0) {
  400e90:	84 c0                	test   al,al
  400e92:	0f 85 25 ff ff ff    	jne    400dbd <slm_ipi_process+0xad>
		tok    = cos_sched_sync();
  400e98:	ff d3                	call   rbx
  400e9a:	89 c1                	mov    ecx,eax
  400e9c:	49 8b 07             	mov    rax,QWORD PTR [r15]
		if (unlikely(contention)) {
  400e9f:	48 89 c2             	mov    rdx,rax
  400ea2:	83 e2 01             	and    edx,0x1
  400ea5:	74 e1                	je     400e88 <slm_ipi_process+0x178>
	*thd        = (struct slm_thd *)(oc & (~0UL << 1));
  400ea7:	48 89 c6             	mov    rsi,rax
			if (!slm_cs_exit_contention(cs, current, cached, tok)) return;
  400eaa:	48 89 c2             	mov    rdx,rax
  400ead:	4c 89 ff             	mov    rdi,r15
  400eb0:	48 83 e6 fe          	and    rsi,0xfffffffffffffffe
  400eb4:	41 ff d5             	call   r13
  400eb7:	85 c0                	test   eax,eax
  400eb9:	0f 84 f4 fe ff ff    	je     400db3 <slm_ipi_process+0xa3>
  400ebf:	eb d7                	jmp    400e98 <slm_ipi_process+0x188>
  400ec1:	0f 1f 80 00 00 00 00 	nop    DWORD PTR [rax+0x0]
SS_STATIC_SLAB(thd, struct slm_thd_container, MAX_NUM_THREADS);
  400ec8:	45 31 ed             	xor    r13d,r13d
	assert(current);
  400ecb:	48 83 7d b0 00       	cmp    QWORD PTR [rbp-0x50],0x0
  400ed0:	0f 85 58 ff ff ff    	jne    400e2e <slm_ipi_process+0x11e>
	return cos_print_str(s, strlen(s));
  400ed6:	48 bf 20 f2 41 00 00 	movabs rdi,0x41f220
  400edd:	00 00 00 
  400ee0:	be 59 00 00 00       	mov    esi,0x59
  400ee5:	48 b8 10 b3 40 00 00 	movabs rax,0x40b310
  400eec:	00 00 00 
  400eef:	ff d0                	call   rax
  400ef1:	c7 04 25 00 00 00 00 	mov    DWORD PTR ds:0x0,0x0
  400ef8:	00 00 00 00 
  400efc:	0f 0b                	ud2    
			ret = slm_cs_enter_contention(cs, cached, current, owner, contended, tok);
  400efe:	41 89 c0             	mov    r8d,eax
  400f01:	48 89 c6             	mov    rsi,rax
  400f04:	48 8b 55 b0          	mov    rdx,QWORD PTR [rbp-0x50]
  400f08:	4c 89 ff             	mov    rdi,r15
  400f0b:	48 b8 50 5f 41 00 00 	movabs rax,0x415f50
  400f12:	00 00 00 
  400f15:	41 83 e0 01          	and    r8d,0x1
  400f19:	ff d0                	call   rax
			assert(ret != -EBUSY);
  400f1b:	83 f8 f0             	cmp    eax,0xfffffff0
  400f1e:	0f 85 14 ff ff ff    	jne    400e38 <slm_ipi_process+0x128>
  400f24:	48 bf 80 f2 41 00 00 	movabs rdi,0x41f280
  400f2b:	00 00 00 
  400f2e:	be 59 00 00 00       	mov    esi,0x59
  400f33:	48 b8 10 b3 40 00 00 	movabs rax,0x40b310
  400f3a:	00 00 00 
  400f3d:	ff d0                	call   rax
  400f3f:	c7 04 25 00 00 00 00 	mov    DWORD PTR ds:0x0,0x0
  400f46:	00 00 00 00 
  400f4a:	0f 0b                	ud2    
  400f4c:	80 e2 01             	and    dl,0x1
  400f4f:	0f 85 32 fe ff ff    	jne    400d87 <slm_ipi_process+0x77>
  400f55:	48 69 c0 b0 00 00 00 	imul   rax,rax,0xb0
  400f5c:	48 8d 84 01 c8 00 00 	lea    rax,[rcx+rax*1+0xc8]
  400f63:	00 
  400f64:	48 89 45 b0          	mov    QWORD PTR [rbp-0x50],rax
  400f68:	e9 1a fe ff ff       	jmp    400d87 <slm_ipi_process+0x77>
  400f6d:	48 bf e0 f2 41 00 00 	movabs rdi,0x41f2e0
  400f74:	00 00 00 
  400f77:	be 24 00 00 00       	mov    esi,0x24
  400f7c:	48 b8 10 b3 40 00 00 	movabs rax,0x40b310
  400f83:	00 00 00 
  400f86:	ff d0                	call   rax
			assert(ret == 0 || ret == 1);
  400f88:	c7 04 25 00 00 00 00 	mov    DWORD PTR ds:0x0,0x0
  400f8f:	00 00 00 00 
  400f93:	0f 0b                	ud2    
SS_STATIC_SLAB(thd, struct slm_thd_container, MAX_NUM_THREADS);
  400f95:	48 c7 45 b0 00 00 00 	mov    QWORD PTR [rbp-0x50],0x0
  400f9c:	00 
  400f9d:	e9 e5 fd ff ff       	jmp    400d87 <slm_ipi_process+0x77>
  400fa2:	66 66 2e 0f 1f 84 00 	data16 cs nop WORD PTR [rax+rax*1+0x0]
  400fa9:	00 00 00 00 
  400fad:	0f 1f 00             	nop    DWORD PTR [rax]

0000000000400fb0 <slm_blkpt_alloc>:
	return &__blkpts[id-1];
}

sched_blkpt_id_t
slm_blkpt_alloc(struct slm_thd *current)
{
  400fb0:	f3 0f 1e fa          	endbr64 
  400fb4:	55                   	push   rbp
  400fb5:	48 89 e5             	mov    rbp,rsp
  400fb8:	41 56                	push   r14
  400fba:	49 be c0 5e 5a 00 00 	movabs r14,0x5a5ec0
  400fc1:	00 00 00 
  400fc4:	41 55                	push   r13
  400fc6:	49 89 fd             	mov    r13,rdi
  400fc9:	41 54                	push   r12
			ret = slm_cs_enter_contention(cs, cached, current, owner, contended, tok);
  400fcb:	49 bc 50 5f 41 00 00 	movabs r12,0x415f50
  400fd2:	00 00 00 
  400fd5:	53                   	push   rbx
  400fd6:	48 bb d0 35 41 00 00 	movabs rbx,0x4135d0
  400fdd:	00 00 00 
	assert(current);
  400fe0:	48 85 ff             	test   rdi,rdi
  400fe3:	0f 84 0b 01 00 00    	je     4010f4 <slm_blkpt_alloc+0x144>
		tok    = cos_sched_sync();
  400fe9:	ff d3                	call   rbx
  400feb:	41 89 c1             	mov    r9d,eax
	unsigned long oc = ps_load(&cs->owner_contention);
  400fee:	49 8b 06             	mov    rax,QWORD PTR [r14]
		if (unlikely(owner)) {
  400ff1:	48 89 c1             	mov    rcx,rax
  400ff4:	48 83 e1 fe          	and    rcx,0xfffffffffffffffe
  400ff8:	0f 85 b2 00 00 00    	jne    4010b0 <slm_blkpt_alloc+0x100>
  400ffe:	f0 4d 0f b1 2e       	lock cmpxchg QWORD PTR [r14],r13
  401003:	0f 94 c0             	sete   al
		if (likely(!__slm_cs_cas(cs, cached, current, 0))) return 0;
  401006:	84 c0                	test   al,al
  401008:	74 df                	je     400fe9 <slm_blkpt_alloc+0x39>
	struct blkpt_mem *m;
	sched_blkpt_id_t ret = SCHED_BLKPT_NULL;

	slm_cs_enter(current, SLM_CS_NONE);

	id = (sched_blkpt_id_t)__blkpt_offset;
  40100a:	48 ba 00 80 42 00 00 	movabs rdx,0x428000
  401011:	00 00 00 
  401014:	44 8b 22             	mov    r12d,DWORD PTR [rdx]
	if (id - 1 == NBLKPTS) return NULL;
  401017:	41 81 fc 01 a0 00 00 	cmp    r12d,0xa001
  40101e:	0f 84 f8 00 00 00    	je     40111c <slm_blkpt_alloc+0x16c>
	return &__blkpts[id-1];
  401024:	48 b9 00 39 46 00 00 	movabs rcx,0x463900
  40102b:	00 00 00 
  40102e:	41 8d 44 24 ff       	lea    eax,[r12-0x1]
  401033:	48 c1 e0 05          	shl    rax,0x5
  401037:	48 01 c8             	add    rax,rcx
	m  = blkpt_get(id);
	if (!m) ERR_THROW(SCHED_BLKPT_NULL, unlock);

	m->id    = id;
  40103a:	44 89 20             	mov    DWORD PTR [rax],r12d
	ret      = id;
	m->epoch = 0;
  40103d:	48 c7 40 08 00 00 00 	mov    QWORD PTR [rax+0x8],0x0
  401044:	00 
};

static inline void
stacklist_init(struct stacklist_head *h)
{
	h->head = NULL;
  401045:	48 c7 40 10 00 00 00 	mov    QWORD PTR [rax+0x10],0x0
  40104c:	00 
ps_lock_release(struct ps_lock *l)
{ l->o = 0; }

static inline void
ps_lock_init(struct ps_lock *l)
{ l->o = 0; }
  40104d:	48 c7 40 18 00 00 00 	mov    QWORD PTR [rax+0x18],0x0
  401054:	00 
	stacklist_init(&m->blocked);
	ps_lock_init(&m->lock);
	__blkpt_offset++;
  401055:	41 8d 44 24 01       	lea    eax,[r12+0x1]
  40105a:	89 02                	mov    DWORD PTR [rdx],eax
			if (!slm_cs_exit_contention(cs, current, cached, tok)) return;
  40105c:	49 bd b0 5f 41 00 00 	movabs r13,0x415fb0
  401063:	00 00 00 
  401066:	eb 14                	jmp    40107c <slm_blkpt_alloc+0xcc>
  401068:	0f 1f 84 00 00 00 00 	nop    DWORD PTR [rax+rax*1+0x0]
  40106f:	00 
        __asm__ __volatile__("lock " PS_CAS_STR
  401070:	f0 49 0f b1 16       	lock cmpxchg QWORD PTR [r14],rdx
  401075:	0f 94 c0             	sete   al
	while (ret != 0) {
  401078:	84 c0                	test   al,al
  40107a:	75 23                	jne    40109f <slm_blkpt_alloc+0xef>
		tok    = cos_sched_sync();
  40107c:	ff d3                	call   rbx
  40107e:	89 c1                	mov    ecx,eax
  401080:	49 8b 06             	mov    rax,QWORD PTR [r14]
		if (unlikely(contention)) {
  401083:	48 89 c2             	mov    rdx,rax
  401086:	83 e2 01             	and    edx,0x1
  401089:	74 e5                	je     401070 <slm_blkpt_alloc+0xc0>
	*thd        = (struct slm_thd *)(oc & (~0UL << 1));
  40108b:	48 89 c6             	mov    rsi,rax
			if (!slm_cs_exit_contention(cs, current, cached, tok)) return;
  40108e:	48 89 c2             	mov    rdx,rax
  401091:	4c 89 f7             	mov    rdi,r14
  401094:	48 83 e6 fe          	and    rsi,0xfffffffffffffffe
  401098:	41 ff d5             	call   r13
  40109b:	85 c0                	test   eax,eax
  40109d:	75 dd                	jne    40107c <slm_blkpt_alloc+0xcc>
unlock:
	slm_cs_exit(NULL, SLM_CS_NONE);

	return ret;
}
  40109f:	5b                   	pop    rbx
  4010a0:	44 89 e0             	mov    eax,r12d
  4010a3:	41 5c                	pop    r12
  4010a5:	41 5d                	pop    r13
  4010a7:	41 5e                	pop    r14
  4010a9:	5d                   	pop    rbp
  4010aa:	c3                   	ret    
  4010ab:	0f 1f 44 00 00       	nop    DWORD PTR [rax+rax*1+0x0]
			ret = slm_cs_enter_contention(cs, cached, current, owner, contended, tok);
  4010b0:	41 89 c0             	mov    r8d,eax
  4010b3:	4c 89 ea             	mov    rdx,r13
  4010b6:	48 89 c6             	mov    rsi,rax
  4010b9:	4c 89 f7             	mov    rdi,r14
  4010bc:	41 83 e0 01          	and    r8d,0x1
  4010c0:	41 ff d4             	call   r12
			assert(ret != -EBUSY);
  4010c3:	83 f8 f0             	cmp    eax,0xfffffff0
  4010c6:	0f 85 1d ff ff ff    	jne    400fe9 <slm_blkpt_alloc+0x39>
  4010cc:	48 bf 80 f2 41 00 00 	movabs rdi,0x41f280
  4010d3:	00 00 00 
  4010d6:	be 59 00 00 00       	mov    esi,0x59
  4010db:	48 b8 10 b3 40 00 00 	movabs rax,0x40b310
  4010e2:	00 00 00 
  4010e5:	ff d0                	call   rax
  4010e7:	c7 04 25 00 00 00 00 	mov    DWORD PTR ds:0x0,0x0
  4010ee:	00 00 00 00 
  4010f2:	0f 0b                	ud2    
  4010f4:	48 bf 20 f2 41 00 00 	movabs rdi,0x41f220
  4010fb:	00 00 00 
  4010fe:	be 59 00 00 00       	mov    esi,0x59
  401103:	48 b8 10 b3 40 00 00 	movabs rax,0x40b310
  40110a:	00 00 00 
  40110d:	ff d0                	call   rax
	assert(current);
  40110f:	c7 04 25 00 00 00 00 	mov    DWORD PTR ds:0x0,0x0
  401116:	00 00 00 00 
  40111a:	0f 0b                	ud2    
	if (!m) ERR_THROW(SCHED_BLKPT_NULL, unlock);
  40111c:	45 31 e4             	xor    r12d,r12d
  40111f:	e9 38 ff ff ff       	jmp    40105c <slm_blkpt_alloc+0xac>
  401124:	66 66 2e 0f 1f 84 00 	data16 cs nop WORD PTR [rax+rax*1+0x0]
  40112b:	00 00 00 00 
  40112f:	90                   	nop

0000000000401130 <slm_blkpt_free>:

int
slm_blkpt_free(sched_blkpt_id_t id)
{
  401130:	f3 0f 1e fa          	endbr64 
	/* alloc only for now */
	return 0;
}
  401134:	31 c0                	xor    eax,eax
  401136:	c3                   	ret    
  401137:	66 0f 1f 84 00 00 00 	nop    WORD PTR [rax+rax*1+0x0]
  40113e:	00 00 

0000000000401140 <slm_blkpt_trigger>:

int
slm_blkpt_trigger(sched_blkpt_id_t blkpt, struct slm_thd *current, sched_blkpt_epoch_t epoch, int single)
{
  401140:	f3 0f 1e fa          	endbr64 
  401144:	55                   	push   rbp
  401145:	48 89 e5             	mov    rbp,rsp
  401148:	41 57                	push   r15
  40114a:	49 89 d7             	mov    r15,rdx
  40114d:	41 56                	push   r14
			ret = slm_cs_enter_contention(cs, cached, current, owner, contended, tok);
  40114f:	49 be 50 5f 41 00 00 	movabs r14,0x415f50
  401156:	00 00 00 
  401159:	41 55                	push   r13
  40115b:	41 89 fd             	mov    r13d,edi
  40115e:	41 54                	push   r12
  401160:	49 bc d0 35 41 00 00 	movabs r12,0x4135d0
  401167:	00 00 00 
  40116a:	53                   	push   rbx
  40116b:	48 bb c0 5e 5a 00 00 	movabs rbx,0x5a5ec0
  401172:	00 00 00 
  401175:	48 83 ec 18          	sub    rsp,0x18
  401179:	48 89 75 c0          	mov    QWORD PTR [rbp-0x40],rsi
  40117d:	89 4d cc             	mov    DWORD PTR [rbp-0x34],ecx
	assert(current);
  401180:	48 85 f6             	test   rsi,rsi
  401183:	0f 84 75 02 00 00    	je     4013fe <slm_blkpt_trigger+0x2be>
		tok    = cos_sched_sync();
  401189:	41 ff d4             	call   r12
  40118c:	41 89 c1             	mov    r9d,eax
	unsigned long oc = ps_load(&cs->owner_contention);
  40118f:	48 8b 03             	mov    rax,QWORD PTR [rbx]
		if (unlikely(owner)) {
  401192:	48 89 c1             	mov    rcx,rax
  401195:	48 83 e1 fe          	and    rcx,0xfffffffffffffffe
  401199:	0f 85 1a 02 00 00    	jne    4013b9 <slm_blkpt_trigger+0x279>
  40119f:	48 8b 7d c0          	mov    rdi,QWORD PTR [rbp-0x40]
  4011a3:	f0 48 0f b1 3b       	lock cmpxchg QWORD PTR [rbx],rdi
  4011a8:	0f 94 c0             	sete   al
		if (likely(!__slm_cs_cas(cs, cached, current, 0))) return 0;
  4011ab:	84 c0                	test   al,al
  4011ad:	74 da                	je     401189 <slm_blkpt_trigger+0x49>
	if (id - 1 == NBLKPTS) return NULL;
  4011af:	41 81 fd 01 a0 00 00 	cmp    r13d,0xa001
  4011b6:	0f 84 6a 02 00 00    	je     401426 <slm_blkpt_trigger+0x2e6>
	return &__blkpts[id-1];
  4011bc:	45 8d 4d ff          	lea    r9d,[r13-0x1]
  4011c0:	41 ba 01 00 00 00    	mov    r10d,0x1
  4011c6:	31 ff                	xor    edi,edi
  4011c8:	48 b9 00 39 46 00 00 	movabs rcx,0x463900
  4011cf:	00 00 00 
  4011d2:	4c 89 ce             	mov    rsi,r9
  4011d5:	48 c1 e6 05          	shl    rsi,0x5
  4011d9:	4c 8d 34 31          	lea    r14,[rcx+rsi*1]
{ while (!ps_cas(&l->o, 0, 1)) ; }
  4011dd:	49 8d 56 18          	lea    rdx,[r14+0x18]
  4011e1:	0f 1f 80 00 00 00 00 	nop    DWORD PTR [rax+0x0]
        __asm__ __volatile__("lock " PS_CAS_STR
  4011e8:	48 89 f8             	mov    rax,rdi
  4011eb:	f0 4c 0f b1 12       	lock cmpxchg QWORD PTR [rdx],r10
  4011f0:	0f 94 c0             	sete   al
{ while (!ps_cas(&l->o, 0, 1)) ; }
  4011f3:	84 c0                	test   al,al
  4011f5:	74 f1                	je     4011e8 <slm_blkpt_trigger+0xa8>

		if (!blkpt_epoch_is_higher(pre, epoch)) {
			ps_lock_release(&m->lock);
			ERR_THROW(0, unlock); 
		}
		if (ps_cas(&m->epoch, pre, epoch)) break;
  4011f7:	48 8d 54 31 08       	lea    rdx,[rcx+rsi*1+0x8]
  4011fc:	eb 0e                	jmp    40120c <slm_blkpt_trigger+0xcc>
  4011fe:	66 90                	xchg   ax,ax
        __asm__ __volatile__("lock " PS_CAS_STR
  401200:	f0 4c 0f b1 3a       	lock cmpxchg QWORD PTR [rdx],r15
  401205:	0f 94 c0             	sete   al
  401208:	84 c0                	test   al,al
  40120a:	75 6c                	jne    401278 <slm_blkpt_trigger+0x138>
		sched_blkpt_epoch_t pre = ps_load(&m->epoch);
  40120c:	49 8b 46 08          	mov    rax,QWORD PTR [r14+0x8]
		if (!blkpt_epoch_is_higher(pre, epoch)) {
  401210:	4c 39 f8             	cmp    rax,r15
  401213:	76 eb                	jbe    401200 <slm_blkpt_trigger+0xc0>
{ l->o = 0; }
  401215:	49 c7 46 18 00 00 00 	mov    QWORD PTR [r14+0x18],0x0
  40121c:	00 
			ERR_THROW(0, unlock); 
  40121d:	45 31 ed             	xor    r13d,r13d
			if (!slm_cs_exit_contention(cs, current, cached, tok)) return;
  401220:	49 be b0 5f 41 00 00 	movabs r14,0x415fb0
  401227:	00 00 00 
  40122a:	eb 10                	jmp    40123c <slm_blkpt_trigger+0xfc>
  40122c:	0f 1f 40 00          	nop    DWORD PTR [rax+0x0]
        __asm__ __volatile__("lock " PS_CAS_STR
  401230:	f0 48 0f b1 13       	lock cmpxchg QWORD PTR [rbx],rdx
  401235:	0f 94 c0             	sete   al
	while (ret != 0) {
  401238:	84 c0                	test   al,al
  40123a:	75 24                	jne    401260 <slm_blkpt_trigger+0x120>
		tok    = cos_sched_sync();
  40123c:	41 ff d4             	call   r12
  40123f:	89 c1                	mov    ecx,eax
  401241:	48 8b 03             	mov    rax,QWORD PTR [rbx]
		if (unlikely(contention)) {
  401244:	48 89 c2             	mov    rdx,rax
  401247:	83 e2 01             	and    edx,0x1
  40124a:	74 e4                	je     401230 <slm_blkpt_trigger+0xf0>
	*thd        = (struct slm_thd *)(oc & (~0UL << 1));
  40124c:	48 89 c6             	mov    rsi,rax
			if (!slm_cs_exit_contention(cs, current, cached, tok)) return;
  40124f:	48 89 c2             	mov    rdx,rax
  401252:	48 89 df             	mov    rdi,rbx
  401255:	48 83 e6 fe          	and    rsi,0xfffffffffffffffe
  401259:	41 ff d6             	call   r14
  40125c:	85 c0                	test   eax,eax
  40125e:	75 dc                	jne    40123c <slm_blkpt_trigger+0xfc>
	return 0;
unlock:
	slm_cs_exit(NULL, SLM_CS_NONE);

	return ret;
}
  401260:	48 83 c4 18          	add    rsp,0x18
  401264:	44 89 e8             	mov    eax,r13d
  401267:	5b                   	pop    rbx
  401268:	41 5c                	pop    r12
  40126a:	41 5d                	pop    r13
  40126c:	41 5e                	pop    r14
  40126e:	41 5f                	pop    r15
  401270:	5d                   	pop    rbp
  401271:	c3                   	ret    
  401272:	66 0f 1f 44 00 00    	nop    WORD PTR [rax+rax*1+0x0]
	 * threads, but we'll implement this conservatively. Given
	 * this, please note that this should *not* iterate more than
	 * once.
	 */
	while (1) {
		sl = ps_load(&h->head);
  401278:	49 c1 e1 05          	shl    r9,0x5
		/*
		 * Check sl again in case other thread updating the head,
		 * which might causes dereferencing a NULL pointer.
		 */
		if (!sl) return NULL;
		if (ps_cas((unsigned long *)&h->head, (unsigned long)sl, (unsigned long)sl->next)) break;
  40127c:	4c 8d 7c 31 10       	lea    r15,[rcx+rsi*1+0x10]
		sl = ps_load(&h->head);
  401281:	4e 8d 2c 09          	lea    r13,[rcx+r9*1]
  401285:	0f 1f 00             	nop    DWORD PTR [rax]
	if (!h->head) return NULL;
  401288:	49 83 7e 10 00       	cmp    QWORD PTR [r14+0x10],0x0
  40128d:	75 1f                	jne    4012ae <slm_blkpt_trigger+0x16e>
  40128f:	eb 26                	jmp    4012b7 <slm_blkpt_trigger+0x177>
  401291:	0f 1f 80 00 00 00 00 	nop    DWORD PTR [rax+0x0]
  401298:	48 8b 0a             	mov    rcx,QWORD PTR [rdx]
  40129b:	48 89 d0             	mov    rax,rdx
  40129e:	f0 49 0f b1 0f       	lock cmpxchg QWORD PTR [r15],rcx
  4012a3:	0f 94 c0             	sete   al
		if (ps_cas((unsigned long *)&h->head, (unsigned long)sl, (unsigned long)sl->next)) break;
  4012a6:	84 c0                	test   al,al
  4012a8:	0f 85 e2 00 00 00    	jne    401390 <slm_blkpt_trigger+0x250>
		sl = ps_load(&h->head);
  4012ae:	49 8b 55 10          	mov    rdx,QWORD PTR [r13+0x10]
		if (!sl) return NULL;
  4012b2:	48 85 d2             	test   rdx,rdx
  4012b5:	75 e1                	jne    401298 <slm_blkpt_trigger+0x158>
{ l->o = 0; }
  4012b7:	49 c7 46 18 00 00 00 	mov    QWORD PTR [r14+0x18],0x0
  4012be:	00 
	struct cos_compinfo    *ci  = &cos_defcompinfo_curr_get()->ci;
  4012bf:	49 bf 50 48 41 00 00 	movabs r15,0x414850
  4012c6:	00 00 00 
  4012c9:	49 be 10 ce 40 00 00 	movabs r14,0x40ce10
  4012d0:	00 00 00 
  4012d3:	41 ff d6             	call   r14
	tok  = cos_sched_sync();
  4012d6:	41 ff d4             	call   r12
  4012d9:	89 45 cc             	mov    DWORD PTR [rbp-0x34],eax
SLM_MODULES_COMPOSE_FNS(quantum, fprr, static_cm);
  4012dc:	41 ff d7             	call   r15
	if (unlikely(!t)) t = &g->idle_thd;
  4012df:	48 85 c0             	test   rax,rax
  4012e2:	49 89 c5             	mov    r13,rax
  4012e5:	48 b8 40 5f 5a 00 00 	movabs rax,0x5a5f40
  4012ec:	00 00 00 
  4012ef:	4c 0f 44 e8          	cmove  r13,rax
{ return s == SLM_THD_RUNNABLE || s == SLM_THD_WOKEN; }
  4012f3:	41 8b 45 04          	mov    eax,DWORD PTR [r13+0x4]
  4012f7:	83 e8 02             	sub    eax,0x2
	assert(slm_state_is_runnable(t->state));
  4012fa:	83 f8 01             	cmp    eax,0x1
  4012fd:	76 15                	jbe    401314 <slm_blkpt_trigger+0x1d4>
  4012ff:	e9 2d 01 00 00       	jmp    401431 <slm_blkpt_trigger+0x2f1>
  401304:	0f 1f 40 00          	nop    DWORD PTR [rax+0x0]
        __asm__ __volatile__("lock " PS_CAS_STR
  401308:	f0 48 0f b1 13       	lock cmpxchg QWORD PTR [rbx],rdx
  40130d:	0f 94 c0             	sete   al
	while (ret != 0) {
  401310:	84 c0                	test   al,al
  401312:	75 2d                	jne    401341 <slm_blkpt_trigger+0x201>
		tok    = cos_sched_sync();
  401314:	41 ff d4             	call   r12
  401317:	89 c1                	mov    ecx,eax
	unsigned long oc = ps_load(&cs->owner_contention);
  401319:	48 8b 03             	mov    rax,QWORD PTR [rbx]
		if (unlikely(contention)) {
  40131c:	48 89 c2             	mov    rdx,rax
  40131f:	83 e2 01             	and    edx,0x1
  401322:	74 e4                	je     401308 <slm_blkpt_trigger+0x1c8>
	*thd        = (struct slm_thd *)(oc & (~0UL << 1));
  401324:	48 89 c6             	mov    rsi,rax
			if (!slm_cs_exit_contention(cs, current, cached, tok)) return;
  401327:	48 89 c2             	mov    rdx,rax
  40132a:	48 89 df             	mov    rdi,rbx
  40132d:	48 b8 b0 5f 41 00 00 	movabs rax,0x415fb0
  401334:	00 00 00 
  401337:	48 83 e6 fe          	and    rsi,0xfffffffffffffffe
  40133b:	ff d0                	call   rax
  40133d:	85 c0                	test   eax,eax
  40133f:	75 d3                	jne    401314 <slm_blkpt_trigger+0x1d4>
	struct cos_defcompinfo *dci = cos_defcompinfo_curr_get();
  401341:	41 ff d6             	call   r14
	prio = inherit_prio ? curr->priority : t->priority;
  401344:	49 8b 75 30          	mov    rsi,QWORD PTR [r13+0x30]
	timeout = g->timeout_next;
  401348:	48 b8 c8 5f 5a 00 00 	movabs rax,0x5a5fc8
  40134f:	00 00 00 
  401352:	4c 8b 00             	mov    r8,QWORD PTR [rax]
	if (unlikely(t->properties & (SLM_THD_PROPERTY_SEND | SLM_THD_PROPERTY_OWN_TCAP | SLM_THD_PROPERTY_SPECIAL))) {
  401355:	41 8b 45 00          	mov    eax,DWORD PTR [r13+0x0]
  401359:	a8 0b                	test   al,0xb
  40135b:	0f 85 f8 00 00 00    	jne    401459 <slm_blkpt_trigger+0x319>
	ret = cos_defswitch(t->thd, prio, timeout, tok);
  401361:	49 8b 7d 10          	mov    rdi,QWORD PTR [r13+0x10]
  401365:	8b 4d cc             	mov    ecx,DWORD PTR [rbp-0x34]
  401368:	4c 89 c2             	mov    rdx,r8
  40136b:	48 b8 70 e1 40 00 00 	movabs rax,0x40e170
  401372:	00 00 00 
  401375:	ff d0                	call   rax
	if (unlikely(ret == -EPERM && !slm_thd_normal(t))) {
  401377:	83 f8 ff             	cmp    eax,0xffffffff
  40137a:	0f 84 90 01 00 00    	je     401510 <slm_blkpt_trigger+0x3d0>
	if (unlikely(ret != 0)) {
  401380:	85 c0                	test   eax,eax
  401382:	0f 85 32 01 00 00    	jne    4014ba <slm_blkpt_trigger+0x37a>
	return 0;
  401388:	45 31 ed             	xor    r13d,r13d
  40138b:	e9 d0 fe ff ff       	jmp    401260 <slm_blkpt_trigger+0x120>
	}
	sl->next = NULL;
  401390:	48 c7 02 00 00 00 00 	mov    QWORD PTR [rdx],0x0
		slm_thd_wakeup(t, 0); /* ignore retval: process next thread */
  401397:	48 8b 7a 08          	mov    rdi,QWORD PTR [rdx+0x8]
  40139b:	31 f6                	xor    esi,esi
  40139d:	48 b8 c0 66 41 00 00 	movabs rax,0x4166c0
  4013a4:	00 00 00 
  4013a7:	ff d0                	call   rax
		if (single) break;
  4013a9:	8b 45 cc             	mov    eax,DWORD PTR [rbp-0x34]
  4013ac:	85 c0                	test   eax,eax
  4013ae:	0f 84 d4 fe ff ff    	je     401288 <slm_blkpt_trigger+0x148>
  4013b4:	e9 fe fe ff ff       	jmp    4012b7 <slm_blkpt_trigger+0x177>
			ret = slm_cs_enter_contention(cs, cached, current, owner, contended, tok);
  4013b9:	41 89 c0             	mov    r8d,eax
  4013bc:	48 8b 55 c0          	mov    rdx,QWORD PTR [rbp-0x40]
  4013c0:	48 89 c6             	mov    rsi,rax
  4013c3:	48 89 df             	mov    rdi,rbx
  4013c6:	41 83 e0 01          	and    r8d,0x1
  4013ca:	41 ff d6             	call   r14
			assert(ret != -EBUSY);
  4013cd:	83 f8 f0             	cmp    eax,0xfffffff0
  4013d0:	0f 85 b3 fd ff ff    	jne    401189 <slm_blkpt_trigger+0x49>
  4013d6:	48 bf 80 f2 41 00 00 	movabs rdi,0x41f280
  4013dd:	00 00 00 
  4013e0:	be 59 00 00 00       	mov    esi,0x59
  4013e5:	48 b8 10 b3 40 00 00 	movabs rax,0x40b310
  4013ec:	00 00 00 
  4013ef:	ff d0                	call   rax
  4013f1:	c7 04 25 00 00 00 00 	mov    DWORD PTR ds:0x0,0x0
  4013f8:	00 00 00 00 
  4013fc:	0f 0b                	ud2    
  4013fe:	48 bf 20 f2 41 00 00 	movabs rdi,0x41f220
  401405:	00 00 00 
  401408:	be 59 00 00 00       	mov    esi,0x59
  40140d:	48 b8 10 b3 40 00 00 	movabs rax,0x40b310
  401414:	00 00 00 
  401417:	ff d0                	call   rax
	assert(current);
  401419:	c7 04 25 00 00 00 00 	mov    DWORD PTR ds:0x0,0x0
  401420:	00 00 00 00 
  401424:	0f 0b                	ud2    
	if (!m) ERR_THROW(-1, unlock);
  401426:	41 bd ff ff ff ff    	mov    r13d,0xffffffff
  40142c:	e9 ef fd ff ff       	jmp    401220 <slm_blkpt_trigger+0xe0>
  401431:	48 bf 08 f3 41 00 00 	movabs rdi,0x41f308
  401438:	00 00 00 
  40143b:	be 61 00 00 00       	mov    esi,0x61
  401440:	48 b8 10 b3 40 00 00 	movabs rax,0x40b310
  401447:	00 00 00 
  40144a:	ff d0                	call   rax
	assert(slm_state_is_runnable(t->state));
  40144c:	c7 04 25 00 00 00 00 	mov    DWORD PTR ds:0x0,0x0
  401453:	00 00 00 00 
  401457:	0f 0b                	ud2    
		if (t == &g->sched_thd) {
  401459:	48 ba c8 5e 5a 00 00 	movabs rdx,0x5a5ec8
  401460:	00 00 00 
	timeout = g->timeout_next;
  401463:	4c 89 c1             	mov    rcx,r8
		if (t == &g->sched_thd) {
  401466:	49 39 d5             	cmp    r13,rdx
  401469:	0f 84 e1 00 00 00    	je     401550 <slm_blkpt_trigger+0x410>
		if (t->properties & SLM_THD_PROPERTY_SEND) {
  40146f:	a8 02                	test   al,0x2
  401471:	0f 85 e8 00 00 00    	jne    40155f <slm_blkpt_trigger+0x41f>
		} else if (t->properties & SLM_THD_PROPERTY_OWN_TCAP) {
  401477:	49 89 c8             	mov    r8,rcx
  40147a:	a8 01                	test   al,0x1
  40147c:	0f 84 df fe ff ff    	je     401361 <slm_blkpt_trigger+0x221>
			return cos_switch(t->thd, t->tc, prio, timeout, g->sched_thd.rcv, tok);
  401482:	4d 8b 55 08          	mov    r10,QWORD PTR [r13+0x8]
  401486:	48 89 f2             	mov    rdx,rsi
  401489:	49 8b 7d 10          	mov    rdi,QWORD PTR [r13+0x10]
  40148d:	48 b8 e8 5e 5a 00 00 	movabs rax,0x5a5ee8
  401494:	00 00 00 
  401497:	44 8b 4d cc          	mov    r9d,DWORD PTR [rbp-0x34]
  40149b:	4c 8b 00             	mov    r8,QWORD PTR [rax]
  40149e:	48 b8 f0 35 41 00 00 	movabs rax,0x4135f0
  4014a5:	00 00 00 
  4014a8:	4c 89 d6             	mov    rsi,r10
  4014ab:	ff d0                	call   rax
	if (unlikely(ret != 0)) {
  4014ad:	85 c0                	test   eax,eax
  4014af:	0f 84 d3 fe ff ff    	je     401388 <slm_blkpt_trigger+0x248>
		assert(ret != -EPERM);
  4014b5:	83 f8 ff             	cmp    eax,0xffffffff
  4014b8:	74 6e                	je     401528 <slm_blkpt_trigger+0x3e8>
		assert(ret != -EINVAL);
  4014ba:	83 f8 ea             	cmp    eax,0xffffffea
  4014bd:	0f 84 45 01 00 00    	je     401608 <slm_blkpt_trigger+0x4c8>
		if (ret == -EBUSY) return ret;
  4014c3:	83 f8 f0             	cmp    eax,0xfffffff0
  4014c6:	0f 84 bc fe ff ff    	je     401388 <slm_blkpt_trigger+0x248>
		assert(ret == -EAGAIN);
  4014cc:	83 f8 f5             	cmp    eax,0xfffffff5
  4014cf:	0f 85 0b 01 00 00    	jne    4015e0 <slm_blkpt_trigger+0x4a0>
			ret = slm_cs_enter_contention(cs, cached, current, owner, contended, tok);
  4014d5:	49 bd 50 5f 41 00 00 	movabs r13,0x415f50
  4014dc:	00 00 00 
		tok    = cos_sched_sync();
  4014df:	41 ff d4             	call   r12
	unsigned long oc = ps_load(&cs->owner_contention);
  4014e2:	48 8b 33             	mov    rsi,QWORD PTR [rbx]
  4014e5:	41 89 c1             	mov    r9d,eax
		if (unlikely(owner)) {
  4014e8:	48 89 f1             	mov    rcx,rsi
  4014eb:	48 83 e1 fe          	and    rcx,0xfffffffffffffffe
  4014ef:	0f 85 c4 00 00 00    	jne    4015b9 <slm_blkpt_trigger+0x479>
  4014f5:	48 8b 7d c0          	mov    rdi,QWORD PTR [rbp-0x40]
  4014f9:	48 89 f0             	mov    rax,rsi
  4014fc:	f0 48 0f b1 3b       	lock cmpxchg QWORD PTR [rbx],rdi
  401501:	0f 94 c0             	sete   al
		if (likely(!__slm_cs_cas(cs, cached, current, 0))) return 0;
  401504:	84 c0                	test   al,al
  401506:	0f 85 ca fd ff ff    	jne    4012d6 <slm_blkpt_trigger+0x196>
  40150c:	eb d1                	jmp    4014df <slm_blkpt_trigger+0x39f>
  40150e:	66 90                	xchg   ax,ax
	return t != &g->idle_thd && t != &g->sched_thd;
  401510:	48 b8 40 5f 5a 00 00 	movabs rax,0x5a5f40
  401517:	00 00 00 
  40151a:	49 39 c5             	cmp    r13,rax
  40151d:	74 68                	je     401587 <slm_blkpt_trigger+0x447>
  40151f:	48 83 e8 78          	sub    rax,0x78
  401523:	49 39 c5             	cmp    r13,rax
  401526:	74 5f                	je     401587 <slm_blkpt_trigger+0x447>
  401528:	48 bf 70 f3 41 00 00 	movabs rdi,0x41f370
  40152f:	00 00 00 
  401532:	be 61 00 00 00       	mov    esi,0x61
  401537:	48 b8 10 b3 40 00 00 	movabs rax,0x40b310
  40153e:	00 00 00 
  401541:	ff d0                	call   rax
		assert(ret != -EPERM);
  401543:	c7 04 25 00 00 00 00 	mov    DWORD PTR ds:0x0,0x0
  40154a:	00 00 00 00 
  40154e:	0f 0b                	ud2    
			prio    = curr->priority;
  401550:	48 8b 7d c0          	mov    rdi,QWORD PTR [rbp-0x40]
			timeout = TCAP_TIME_NIL;
  401554:	31 c9                	xor    ecx,ecx
			prio    = curr->priority;
  401556:	48 8b 77 30          	mov    rsi,QWORD PTR [rdi+0x30]
  40155a:	e9 10 ff ff ff       	jmp    40146f <slm_blkpt_trigger+0x32f>
			return cos_sched_asnd(t->asnd, g->timeout_next, g->sched_thd.rcv, tok);
  40155f:	48 b8 e8 5e 5a 00 00 	movabs rax,0x5a5ee8
  401566:	00 00 00 
  401569:	49 8b 7d 28          	mov    rdi,QWORD PTR [r13+0x28]
  40156d:	48 8b 10             	mov    rdx,QWORD PTR [rax]
  401570:	4c 89 c6             	mov    rsi,r8
  401573:	48 b8 60 36 41 00 00 	movabs rax,0x413660
  40157a:	00 00 00 
  40157d:	8b 4d cc             	mov    ecx,DWORD PTR [rbp-0x34]
  401580:	ff d0                	call   rax
  401582:	e9 26 ff ff ff       	jmp    4014ad <slm_blkpt_trigger+0x36d>
		ret = cos_switch(g->sched_thd.thd, 0, curr->priority, TCAP_TIME_NIL, g->sched_thd.rcv, tok);
  401587:	48 8b 45 c0          	mov    rax,QWORD PTR [rbp-0x40]
  40158b:	44 8b 4d cc          	mov    r9d,DWORD PTR [rbp-0x34]
  40158f:	31 c9                	xor    ecx,ecx
  401591:	31 f6                	xor    esi,esi
  401593:	48 8b 50 30          	mov    rdx,QWORD PTR [rax+0x30]
  401597:	48 b8 e8 5e 5a 00 00 	movabs rax,0x5a5ee8
  40159e:	00 00 00 
  4015a1:	4c 8b 00             	mov    r8,QWORD PTR [rax]
  4015a4:	48 8b 78 f0          	mov    rdi,QWORD PTR [rax-0x10]
  4015a8:	48 b8 f0 35 41 00 00 	movabs rax,0x4135f0
  4015af:	00 00 00 
  4015b2:	ff d0                	call   rax
  4015b4:	e9 f4 fe ff ff       	jmp    4014ad <slm_blkpt_trigger+0x36d>
			ret = slm_cs_enter_contention(cs, cached, current, owner, contended, tok);
  4015b9:	41 89 f0             	mov    r8d,esi
  4015bc:	48 8b 55 c0          	mov    rdx,QWORD PTR [rbp-0x40]
  4015c0:	48 89 df             	mov    rdi,rbx
  4015c3:	41 83 e0 01          	and    r8d,0x1
  4015c7:	41 ff d5             	call   r13
			assert(ret != -EBUSY);
  4015ca:	83 f8 f0             	cmp    eax,0xfffffff0
  4015cd:	0f 85 0c ff ff ff    	jne    4014df <slm_blkpt_trigger+0x39f>
  4015d3:	e9 fe fd ff ff       	jmp    4013d6 <slm_blkpt_trigger+0x296>
  4015d8:	0f 1f 84 00 00 00 00 	nop    DWORD PTR [rax+rax*1+0x0]
  4015df:	00 
  4015e0:	48 bf 40 f4 41 00 00 	movabs rdi,0x41f440
  4015e7:	00 00 00 
  4015ea:	be 61 00 00 00       	mov    esi,0x61
  4015ef:	48 b8 10 b3 40 00 00 	movabs rax,0x40b310
  4015f6:	00 00 00 
  4015f9:	ff d0                	call   rax
		assert(ret == -EAGAIN);
  4015fb:	c7 04 25 00 00 00 00 	mov    DWORD PTR ds:0x0,0x0
  401602:	00 00 00 00 
  401606:	0f 0b                	ud2    
  401608:	48 bf d8 f3 41 00 00 	movabs rdi,0x41f3d8
  40160f:	00 00 00 
  401612:	be 61 00 00 00       	mov    esi,0x61
  401617:	48 b8 10 b3 40 00 00 	movabs rax,0x40b310
  40161e:	00 00 00 
  401621:	ff d0                	call   rax
		assert(ret != -EINVAL);
  401623:	c7 04 25 00 00 00 00 	mov    DWORD PTR ds:0x0,0x0
  40162a:	00 00 00 00 
  40162e:	0f 0b                	ud2    

0000000000401630 <slm_blkpt_block>:

int
slm_blkpt_block(sched_blkpt_id_t blkpt, struct slm_thd *current, sched_blkpt_epoch_t epoch, thdid_t dependency)
{
  401630:	f3 0f 1e fa          	endbr64 
  401634:	55                   	push   rbp
  401635:	48 89 e5             	mov    rbp,rsp
  401638:	41 57                	push   r15
  40163a:	49 bf c0 5e 5a 00 00 	movabs r15,0x5a5ec0
  401641:	00 00 00 
  401644:	41 56                	push   r14
  401646:	41 89 fe             	mov    r14d,edi
  401649:	41 55                	push   r13
  40164b:	49 89 d5             	mov    r13,rdx
  40164e:	41 54                	push   r12
  401650:	49 89 f4             	mov    r12,rsi
  401653:	53                   	push   rbx
  401654:	48 bb d0 35 41 00 00 	movabs rbx,0x4135d0
  40165b:	00 00 00 
  40165e:	48 83 ec 28          	sub    rsp,0x28
	assert(current);
  401662:	48 85 f6             	test   rsi,rsi
  401665:	0f 84 2a 02 00 00    	je     401895 <slm_blkpt_block+0x265>
		tok    = cos_sched_sync();
  40166b:	ff d3                	call   rbx
  40166d:	41 89 c1             	mov    r9d,eax
	unsigned long oc = ps_load(&cs->owner_contention);
  401670:	49 8b 07             	mov    rax,QWORD PTR [r15]
		if (unlikely(owner)) {
  401673:	48 89 c1             	mov    rcx,rax
  401676:	48 83 e1 fe          	and    rcx,0xfffffffffffffffe
  40167a:	0f 85 c8 01 00 00    	jne    401848 <slm_blkpt_block+0x218>
  401680:	f0 4d 0f b1 27       	lock cmpxchg QWORD PTR [r15],r12
  401685:	0f 94 c0             	sete   al
		if (likely(!__slm_cs_cas(cs, cached, current, 0))) return 0;
  401688:	84 c0                	test   al,al
  40168a:	74 df                	je     40166b <slm_blkpt_block+0x3b>
	if (id - 1 == NBLKPTS) return NULL;
  40168c:	41 81 fe 01 a0 00 00 	cmp    r14d,0xa001
  401693:	0f 84 24 02 00 00    	je     4018bd <slm_blkpt_block+0x28d>
	return &__blkpts[id-1];
  401699:	45 8d 46 ff          	lea    r8d,[r14-0x1]
  40169d:	be 01 00 00 00       	mov    esi,0x1
  4016a2:	31 c9                	xor    ecx,ecx
  4016a4:	48 bf 00 39 46 00 00 	movabs rdi,0x463900
  4016ab:	00 00 00 
  4016ae:	4d 89 c1             	mov    r9,r8
  4016b1:	49 c1 e1 05          	shl    r9,0x5
  4016b5:	4e 8d 34 0f          	lea    r14,[rdi+r9*1]
{ while (!ps_cas(&l->o, 0, 1)) ; }
  4016b9:	49 8d 56 18          	lea    rdx,[r14+0x18]
  4016bd:	0f 1f 00             	nop    DWORD PTR [rax]
        __asm__ __volatile__("lock " PS_CAS_STR
  4016c0:	48 89 c8             	mov    rax,rcx
  4016c3:	f0 48 0f b1 32       	lock cmpxchg QWORD PTR [rdx],rsi
  4016c8:	0f 94 c0             	sete   al
{ while (!ps_cas(&l->o, 0, 1)) ; }
  4016cb:	84 c0                	test   al,al
  4016cd:	74 f1                	je     4016c0 <slm_blkpt_block+0x90>
		ERR_THROW(-1, unlock);
	}

	ps_lock_take(&m->lock);
	/* Outdated event? don't block! */
	pre = ps_load(&m->epoch);
  4016cf:	49 8b 76 08          	mov    rsi,QWORD PTR [r14+0x8]
	if (!blkpt_epoch_is_higher(pre, epoch)) {
  4016d3:	4c 39 ee             	cmp    rsi,r13
  4016d6:	76 60                	jbe    401738 <slm_blkpt_block+0x108>
{ l->o = 0; }
  4016d8:	49 c7 46 18 00 00 00 	mov    QWORD PTR [r14+0x18],0x0
  4016df:	00 
			 */
			assert(_sl == &sl);
		}
		assert(stacklist_is_removed(&sl));
		ps_lock_release(&m->lock);
		ERR_THROW(0, unlock);
  4016e0:	45 31 ed             	xor    r13d,r13d
			if (!slm_cs_exit_contention(cs, current, cached, tok)) return;
  4016e3:	49 bc b0 5f 41 00 00 	movabs r12,0x415fb0
  4016ea:	00 00 00 
  4016ed:	eb 0d                	jmp    4016fc <slm_blkpt_block+0xcc>
  4016ef:	90                   	nop
        __asm__ __volatile__("lock " PS_CAS_STR
  4016f0:	f0 49 0f b1 17       	lock cmpxchg QWORD PTR [r15],rdx
  4016f5:	0f 94 c0             	sete   al
	while (ret != 0) {
  4016f8:	84 c0                	test   al,al
  4016fa:	75 23                	jne    40171f <slm_blkpt_block+0xef>
		tok    = cos_sched_sync();
  4016fc:	ff d3                	call   rbx
  4016fe:	89 c1                	mov    ecx,eax
  401700:	49 8b 07             	mov    rax,QWORD PTR [r15]
		if (unlikely(contention)) {
  401703:	48 89 c2             	mov    rdx,rax
  401706:	83 e2 01             	and    edx,0x1
  401709:	74 e5                	je     4016f0 <slm_blkpt_block+0xc0>
	*thd        = (struct slm_thd *)(oc & (~0UL << 1));
  40170b:	48 89 c6             	mov    rsi,rax
			if (!slm_cs_exit_contention(cs, current, cached, tok)) return;
  40170e:	48 89 c2             	mov    rdx,rax
  401711:	4c 89 ff             	mov    rdi,r15
  401714:	48 83 e6 fe          	and    rsi,0xfffffffffffffffe
  401718:	41 ff d4             	call   r12
  40171b:	85 c0                	test   eax,eax
  40171d:	75 dd                	jne    4016fc <slm_blkpt_block+0xcc>
	return 0;
unlock:
	slm_cs_exit(NULL, SLM_CS_NONE);

	return ret;
}
  40171f:	48 83 c4 28          	add    rsp,0x28
  401723:	44 89 e8             	mov    eax,r13d
  401726:	5b                   	pop    rbx
  401727:	41 5c                	pop    r12
  401729:	41 5d                	pop    r13
  40172b:	41 5e                	pop    r14
  40172d:	41 5f                	pop    r15
  40172f:	5d                   	pop    rbp
  401730:	c3                   	ret    
  401731:	0f 1f 80 00 00 00 00 	nop    DWORD PTR [rax+0x0]
		struct stacklist *n = ps_load(&h->head);
  401738:	4c 89 c1             	mov    rcx,r8
	l->data = data;
  40173b:	4c 89 65 c8          	mov    QWORD PTR [rbp-0x38],r12
		if (ps_cas((unsigned long *)&h->head, (unsigned long)n, (unsigned long)l)) break;
  40173f:	4a 8d 54 0f 10       	lea    rdx,[rdi+r9*1+0x10]
  401744:	4c 8d 4d c0          	lea    r9,[rbp-0x40]
		struct stacklist *n = ps_load(&h->head);
  401748:	48 c1 e1 05          	shl    rcx,0x5
  40174c:	48 01 f9             	add    rcx,rdi
  40174f:	90                   	nop
  401750:	48 8b 41 10          	mov    rax,QWORD PTR [rcx+0x10]
		l->next = n;
  401754:	48 89 45 c0          	mov    QWORD PTR [rbp-0x40],rax
  401758:	f0 4c 0f b1 0a       	lock cmpxchg QWORD PTR [rdx],r9
  40175d:	0f 94 c0             	sete   al
		if (ps_cas((unsigned long *)&h->head, (unsigned long)n, (unsigned long)l)) break;
  401760:	84 c0                	test   al,al
  401762:	74 ec                	je     401750 <slm_blkpt_block+0x120>
	if (!blkpt_epoch_is_higher(ps_load(&m->epoch), pre)) {
  401764:	49 8b 46 08          	mov    rax,QWORD PTR [r14+0x8]
  401768:	48 39 f0             	cmp    rax,rsi
  40176b:	0f 86 a7 00 00 00    	jbe    401818 <slm_blkpt_block+0x1e8>
	if (!h->head) return NULL;
  401771:	49 83 7e 10 00       	cmp    QWORD PTR [r14+0x10],0x0
  401776:	74 2b                	je     4017a3 <slm_blkpt_block+0x173>
		sl = ps_load(&h->head);
  401778:	49 c1 e0 05          	shl    r8,0x5
  40177c:	4c 01 c7             	add    rdi,r8
  40177f:	eb 19                	jmp    40179a <slm_blkpt_block+0x16a>
  401781:	0f 1f 80 00 00 00 00 	nop    DWORD PTR [rax+0x0]
  401788:	48 8b 31             	mov    rsi,QWORD PTR [rcx]
  40178b:	48 89 c8             	mov    rax,rcx
  40178e:	f0 48 0f b1 32       	lock cmpxchg QWORD PTR [rdx],rsi
  401793:	0f 94 c0             	sete   al
		if (ps_cas((unsigned long *)&h->head, (unsigned long)sl, (unsigned long)sl->next)) break;
  401796:	84 c0                	test   al,al
  401798:	75 46                	jne    4017e0 <slm_blkpt_block+0x1b0>
		sl = ps_load(&h->head);
  40179a:	48 8b 4f 10          	mov    rcx,QWORD PTR [rdi+0x10]
		if (!sl) return NULL;
  40179e:	48 85 c9             	test   rcx,rcx
  4017a1:	75 e5                	jne    401788 <slm_blkpt_block+0x158>
		assert(stacklist_is_removed(&sl));
  4017a3:	48 83 7d c0 00       	cmp    QWORD PTR [rbp-0x40],0x0
  4017a8:	0f 84 2a ff ff ff    	je     4016d8 <slm_blkpt_block+0xa8>
  4017ae:	48 bf 08 f5 41 00 00 	movabs rdi,0x41f508
  4017b5:	00 00 00 
  4017b8:	be 5f 00 00 00       	mov    esi,0x5f
  4017bd:	48 b8 10 b3 40 00 00 	movabs rax,0x40b310
  4017c4:	00 00 00 
  4017c7:	ff d0                	call   rax
  4017c9:	c7 04 25 00 00 00 00 	mov    DWORD PTR ds:0x0,0x0
  4017d0:	00 00 00 00 
  4017d4:	0f 0b                	ud2    
  4017d6:	66 2e 0f 1f 84 00 00 	cs nop WORD PTR [rax+rax*1+0x0]
  4017dd:	00 00 00 
	sl->next = NULL;
  4017e0:	48 c7 01 00 00 00 00 	mov    QWORD PTR [rcx],0x0
			assert(_sl == &sl);
  4017e7:	4c 39 c9             	cmp    rcx,r9
  4017ea:	74 b7                	je     4017a3 <slm_blkpt_block+0x173>
  4017ec:	48 bf a8 f4 41 00 00 	movabs rdi,0x41f4a8
  4017f3:	00 00 00 
  4017f6:	be 5f 00 00 00       	mov    esi,0x5f
  4017fb:	48 b8 10 b3 40 00 00 	movabs rax,0x40b310
  401802:	00 00 00 
  401805:	ff d0                	call   rax
  401807:	c7 04 25 00 00 00 00 	mov    DWORD PTR ds:0x0,0x0
  40180e:	00 00 00 00 
  401812:	0f 0b                	ud2    
  401814:	0f 1f 40 00          	nop    DWORD PTR [rax+0x0]
	if (slm_thd_block(current)) {
  401818:	48 b8 30 60 41 00 00 	movabs rax,0x416030
  40181f:	00 00 00 
  401822:	4c 89 e7             	mov    rdi,r12
  401825:	ff d0                	call   rax
{ l->o = 0; }
  401827:	49 c7 46 18 00 00 00 	mov    QWORD PTR [r14+0x18],0x0
  40182e:	00 
  40182f:	41 89 c5             	mov    r13d,eax
  401832:	85 c0                	test   eax,eax
  401834:	0f 84 8e 00 00 00    	je     4018c8 <slm_blkpt_block+0x298>
		ERR_THROW(0, unlock);
  40183a:	45 31 ed             	xor    r13d,r13d
  40183d:	e9 a1 fe ff ff       	jmp    4016e3 <slm_blkpt_block+0xb3>
  401842:	66 0f 1f 44 00 00    	nop    WORD PTR [rax+rax*1+0x0]
			ret = slm_cs_enter_contention(cs, cached, current, owner, contended, tok);
  401848:	41 89 c0             	mov    r8d,eax
  40184b:	48 89 c6             	mov    rsi,rax
  40184e:	4c 89 e2             	mov    rdx,r12
  401851:	4c 89 ff             	mov    rdi,r15
  401854:	48 b8 50 5f 41 00 00 	movabs rax,0x415f50
  40185b:	00 00 00 
  40185e:	41 83 e0 01          	and    r8d,0x1
  401862:	ff d0                	call   rax
			assert(ret != -EBUSY);
  401864:	83 f8 f0             	cmp    eax,0xfffffff0
  401867:	0f 85 fe fd ff ff    	jne    40166b <slm_blkpt_block+0x3b>
  40186d:	48 bf 80 f2 41 00 00 	movabs rdi,0x41f280
  401874:	00 00 00 
  401877:	be 59 00 00 00       	mov    esi,0x59
  40187c:	48 b8 10 b3 40 00 00 	movabs rax,0x40b310
  401883:	00 00 00 
  401886:	ff d0                	call   rax
  401888:	c7 04 25 00 00 00 00 	mov    DWORD PTR ds:0x0,0x0
  40188f:	00 00 00 00 
  401893:	0f 0b                	ud2    
  401895:	48 bf 20 f2 41 00 00 	movabs rdi,0x41f220
  40189c:	00 00 00 
  40189f:	be 59 00 00 00       	mov    esi,0x59
  4018a4:	48 b8 10 b3 40 00 00 	movabs rax,0x40b310
  4018ab:	00 00 00 
  4018ae:	ff d0                	call   rax
	assert(current);
  4018b0:	c7 04 25 00 00 00 00 	mov    DWORD PTR ds:0x0,0x0
  4018b7:	00 00 00 00 
  4018bb:	0f 0b                	ud2    
		ERR_THROW(-1, unlock);
  4018bd:	41 bd ff ff ff ff    	mov    r13d,0xffffffff
  4018c3:	e9 1b fe ff ff       	jmp    4016e3 <slm_blkpt_block+0xb3>
	struct cos_compinfo    *ci  = &cos_defcompinfo_curr_get()->ci;
  4018c8:	48 b8 10 ce 40 00 00 	movabs rax,0x40ce10
  4018cf:	00 00 00 
  4018d2:	ff d0                	call   rax
	ret = cos_defswitch(t->thd, prio, timeout, tok);
  4018d4:	44 89 6d bc          	mov    DWORD PTR [rbp-0x44],r13d
  4018d8:	4d 89 e5             	mov    r13,r12
	tok  = cos_sched_sync();
  4018db:	ff d3                	call   rbx
  4018dd:	41 89 c6             	mov    r14d,eax
  4018e0:	48 b8 50 48 41 00 00 	movabs rax,0x414850
  4018e7:	00 00 00 
  4018ea:	ff d0                	call   rax
	if (unlikely(!t)) t = &g->idle_thd;
  4018ec:	48 85 c0             	test   rax,rax
  4018ef:	49 89 c4             	mov    r12,rax
  4018f2:	48 b8 40 5f 5a 00 00 	movabs rax,0x5a5f40
  4018f9:	00 00 00 
  4018fc:	4c 0f 44 e0          	cmove  r12,rax
{ return s == SLM_THD_RUNNABLE || s == SLM_THD_WOKEN; }
  401900:	41 8b 44 24 04       	mov    eax,DWORD PTR [r12+0x4]
  401905:	83 e8 02             	sub    eax,0x2
	assert(slm_state_is_runnable(t->state));
  401908:	83 f8 01             	cmp    eax,0x1
  40190b:	76 17                	jbe    401924 <slm_blkpt_block+0x2f4>
  40190d:	e9 c6 01 00 00       	jmp    401ad8 <slm_blkpt_block+0x4a8>
  401912:	66 0f 1f 44 00 00    	nop    WORD PTR [rax+rax*1+0x0]
        __asm__ __volatile__("lock " PS_CAS_STR
  401918:	f0 49 0f b1 17       	lock cmpxchg QWORD PTR [r15],rdx
  40191d:	0f 94 c0             	sete   al
	while (ret != 0) {
  401920:	84 c0                	test   al,al
  401922:	75 2c                	jne    401950 <slm_blkpt_block+0x320>
		tok    = cos_sched_sync();
  401924:	ff d3                	call   rbx
  401926:	89 c1                	mov    ecx,eax
	unsigned long oc = ps_load(&cs->owner_contention);
  401928:	49 8b 07             	mov    rax,QWORD PTR [r15]
		if (unlikely(contention)) {
  40192b:	48 89 c2             	mov    rdx,rax
  40192e:	83 e2 01             	and    edx,0x1
  401931:	74 e5                	je     401918 <slm_blkpt_block+0x2e8>
	*thd        = (struct slm_thd *)(oc & (~0UL << 1));
  401933:	48 89 c6             	mov    rsi,rax
			if (!slm_cs_exit_contention(cs, current, cached, tok)) return;
  401936:	48 89 c2             	mov    rdx,rax
  401939:	4c 89 ff             	mov    rdi,r15
  40193c:	48 b8 b0 5f 41 00 00 	movabs rax,0x415fb0
  401943:	00 00 00 
  401946:	48 83 e6 fe          	and    rsi,0xfffffffffffffffe
  40194a:	ff d0                	call   rax
  40194c:	85 c0                	test   eax,eax
  40194e:	75 d4                	jne    401924 <slm_blkpt_block+0x2f4>
	struct cos_defcompinfo *dci = cos_defcompinfo_curr_get();
  401950:	48 b8 10 ce 40 00 00 	movabs rax,0x40ce10
  401957:	00 00 00 
  40195a:	ff d0                	call   rax
	prio = inherit_prio ? curr->priority : t->priority;
  40195c:	49 8b 74 24 30       	mov    rsi,QWORD PTR [r12+0x30]
	timeout = g->timeout_next;
  401961:	48 b8 c8 5f 5a 00 00 	movabs rax,0x5a5fc8
  401968:	00 00 00 
  40196b:	4c 8b 00             	mov    r8,QWORD PTR [rax]
	if (unlikely(t->properties & (SLM_THD_PROPERTY_SEND | SLM_THD_PROPERTY_OWN_TCAP | SLM_THD_PROPERTY_SPECIAL))) {
  40196e:	41 8b 04 24          	mov    eax,DWORD PTR [r12]
  401972:	a8 0b                	test   al,0xb
  401974:	0f 85 a3 00 00 00    	jne    401a1d <slm_blkpt_block+0x3ed>
	ret = cos_defswitch(t->thd, prio, timeout, tok);
  40197a:	49 8b 7c 24 10       	mov    rdi,QWORD PTR [r12+0x10]
  40197f:	44 89 f1             	mov    ecx,r14d
  401982:	4c 89 c2             	mov    rdx,r8
  401985:	48 b8 70 e1 40 00 00 	movabs rax,0x40e170
  40198c:	00 00 00 
  40198f:	ff d0                	call   rax
	if (unlikely(ret == -EPERM && !slm_thd_normal(t))) {
  401991:	83 f8 ff             	cmp    eax,0xffffffff
  401994:	74 3f                	je     4019d5 <slm_blkpt_block+0x3a5>
	if (unlikely(ret != 0)) {
  401996:	85 c0                	test   eax,eax
  401998:	0f 85 e5 00 00 00    	jne    401a83 <slm_blkpt_block+0x453>
	assert(stacklist_is_removed(&sl));
  40199e:	48 83 7d c0 00       	cmp    QWORD PTR [rbp-0x40],0x0
  4019a3:	44 8b 6d bc          	mov    r13d,DWORD PTR [rbp-0x44]
  4019a7:	0f 84 72 fd ff ff    	je     40171f <slm_blkpt_block+0xef>
  4019ad:	48 bf 68 f5 41 00 00 	movabs rdi,0x41f568
  4019b4:	00 00 00 
  4019b7:	be 5f 00 00 00       	mov    esi,0x5f
  4019bc:	48 b8 10 b3 40 00 00 	movabs rax,0x40b310
  4019c3:	00 00 00 
  4019c6:	ff d0                	call   rax
  4019c8:	c7 04 25 00 00 00 00 	mov    DWORD PTR ds:0x0,0x0
  4019cf:	00 00 00 00 
  4019d3:	0f 0b                	ud2    
	return t != &g->idle_thd && t != &g->sched_thd;
  4019d5:	48 b8 c8 5e 5a 00 00 	movabs rax,0x5a5ec8
  4019dc:	00 00 00 
  4019df:	49 39 c4             	cmp    r12,rax
  4019e2:	0f 84 4c 01 00 00    	je     401b34 <slm_blkpt_block+0x504>
  4019e8:	48 83 c0 78          	add    rax,0x78
  4019ec:	49 39 c4             	cmp    r12,rax
  4019ef:	0f 84 3f 01 00 00    	je     401b34 <slm_blkpt_block+0x504>
  4019f5:	48 bf 70 f3 41 00 00 	movabs rdi,0x41f370
  4019fc:	00 00 00 
  4019ff:	be 61 00 00 00       	mov    esi,0x61
  401a04:	48 b8 10 b3 40 00 00 	movabs rax,0x40b310
  401a0b:	00 00 00 
  401a0e:	ff d0                	call   rax
		assert(ret != -EPERM);
  401a10:	c7 04 25 00 00 00 00 	mov    DWORD PTR ds:0x0,0x0
  401a17:	00 00 00 00 
  401a1b:	0f 0b                	ud2    
		if (t == &g->sched_thd) {
  401a1d:	48 ba c8 5e 5a 00 00 	movabs rdx,0x5a5ec8
  401a24:	00 00 00 
	timeout = g->timeout_next;
  401a27:	4c 89 c1             	mov    rcx,r8
		if (t == &g->sched_thd) {
  401a2a:	49 39 d4             	cmp    r12,rdx
  401a2d:	0f 84 cd 00 00 00    	je     401b00 <slm_blkpt_block+0x4d0>
		if (t->properties & SLM_THD_PROPERTY_SEND) {
  401a33:	a8 02                	test   al,0x2
  401a35:	0f 85 d0 00 00 00    	jne    401b0b <slm_blkpt_block+0x4db>
		} else if (t->properties & SLM_THD_PROPERTY_OWN_TCAP) {
  401a3b:	49 89 c8             	mov    r8,rcx
  401a3e:	a8 01                	test   al,0x1
  401a40:	0f 84 34 ff ff ff    	je     40197a <slm_blkpt_block+0x34a>
			return cos_switch(t->thd, t->tc, prio, timeout, g->sched_thd.rcv, tok);
  401a46:	4d 8b 54 24 08       	mov    r10,QWORD PTR [r12+0x8]
  401a4b:	48 89 f2             	mov    rdx,rsi
  401a4e:	49 8b 7c 24 10       	mov    rdi,QWORD PTR [r12+0x10]
  401a53:	45 89 f1             	mov    r9d,r14d
  401a56:	48 b8 e8 5e 5a 00 00 	movabs rax,0x5a5ee8
  401a5d:	00 00 00 
  401a60:	4c 8b 00             	mov    r8,QWORD PTR [rax]
  401a63:	48 b8 f0 35 41 00 00 	movabs rax,0x4135f0
  401a6a:	00 00 00 
  401a6d:	4c 89 d6             	mov    rsi,r10
  401a70:	ff d0                	call   rax
	if (unlikely(ret != 0)) {
  401a72:	85 c0                	test   eax,eax
  401a74:	0f 84 24 ff ff ff    	je     40199e <slm_blkpt_block+0x36e>
		assert(ret != -EPERM);
  401a7a:	83 f8 ff             	cmp    eax,0xffffffff
  401a7d:	0f 84 72 ff ff ff    	je     4019f5 <slm_blkpt_block+0x3c5>
		assert(ret != -EINVAL);
  401a83:	83 f8 ea             	cmp    eax,0xffffffea
  401a86:	0f 84 1b 01 00 00    	je     401ba7 <slm_blkpt_block+0x577>
		if (ret == -EBUSY) return ret;
  401a8c:	83 f8 f0             	cmp    eax,0xfffffff0
  401a8f:	0f 84 09 ff ff ff    	je     40199e <slm_blkpt_block+0x36e>
		assert(ret == -EAGAIN);
  401a95:	83 f8 f5             	cmp    eax,0xfffffff5
  401a98:	0f 85 e1 00 00 00    	jne    401b7f <slm_blkpt_block+0x54f>
			ret = slm_cs_enter_contention(cs, cached, current, owner, contended, tok);
  401a9e:	49 bc 50 5f 41 00 00 	movabs r12,0x415f50
  401aa5:	00 00 00 
		tok    = cos_sched_sync();
  401aa8:	ff d3                	call   rbx
	unsigned long oc = ps_load(&cs->owner_contention);
  401aaa:	49 8b 37             	mov    rsi,QWORD PTR [r15]
  401aad:	41 89 c1             	mov    r9d,eax
		if (unlikely(owner)) {
  401ab0:	48 89 f1             	mov    rcx,rsi
  401ab3:	48 83 e1 fe          	and    rcx,0xfffffffffffffffe
  401ab7:	0f 85 a4 00 00 00    	jne    401b61 <slm_blkpt_block+0x531>
  401abd:	48 89 f0             	mov    rax,rsi
  401ac0:	f0 4d 0f b1 2f       	lock cmpxchg QWORD PTR [r15],r13
  401ac5:	0f 94 c0             	sete   al
		if (likely(!__slm_cs_cas(cs, cached, current, 0))) return 0;
  401ac8:	84 c0                	test   al,al
  401aca:	0f 85 0b fe ff ff    	jne    4018db <slm_blkpt_block+0x2ab>
  401ad0:	eb d6                	jmp    401aa8 <slm_blkpt_block+0x478>
  401ad2:	66 0f 1f 44 00 00    	nop    WORD PTR [rax+rax*1+0x0]
  401ad8:	48 bf 08 f3 41 00 00 	movabs rdi,0x41f308
  401adf:	00 00 00 
  401ae2:	be 61 00 00 00       	mov    esi,0x61
  401ae7:	48 b8 10 b3 40 00 00 	movabs rax,0x40b310
  401aee:	00 00 00 
  401af1:	ff d0                	call   rax
	assert(slm_state_is_runnable(t->state));
  401af3:	c7 04 25 00 00 00 00 	mov    DWORD PTR ds:0x0,0x0
  401afa:	00 00 00 00 
  401afe:	0f 0b                	ud2    
			prio    = curr->priority;
  401b00:	49 8b 75 30          	mov    rsi,QWORD PTR [r13+0x30]
			timeout = TCAP_TIME_NIL;
  401b04:	31 c9                	xor    ecx,ecx
  401b06:	e9 28 ff ff ff       	jmp    401a33 <slm_blkpt_block+0x403>
			return cos_sched_asnd(t->asnd, g->timeout_next, g->sched_thd.rcv, tok);
  401b0b:	48 b8 e8 5e 5a 00 00 	movabs rax,0x5a5ee8
  401b12:	00 00 00 
  401b15:	49 8b 7c 24 28       	mov    rdi,QWORD PTR [r12+0x28]
  401b1a:	48 8b 10             	mov    rdx,QWORD PTR [rax]
  401b1d:	44 89 f1             	mov    ecx,r14d
  401b20:	48 b8 60 36 41 00 00 	movabs rax,0x413660
  401b27:	00 00 00 
  401b2a:	4c 89 c6             	mov    rsi,r8
  401b2d:	ff d0                	call   rax
  401b2f:	e9 3e ff ff ff       	jmp    401a72 <slm_blkpt_block+0x442>
		ret = cos_switch(g->sched_thd.thd, 0, curr->priority, TCAP_TIME_NIL, g->sched_thd.rcv, tok);
  401b34:	49 8b 55 30          	mov    rdx,QWORD PTR [r13+0x30]
  401b38:	45 89 f1             	mov    r9d,r14d
  401b3b:	31 c9                	xor    ecx,ecx
  401b3d:	31 f6                	xor    esi,esi
  401b3f:	48 b8 e8 5e 5a 00 00 	movabs rax,0x5a5ee8
  401b46:	00 00 00 
  401b49:	4c 8b 00             	mov    r8,QWORD PTR [rax]
  401b4c:	48 8b 78 f0          	mov    rdi,QWORD PTR [rax-0x10]
  401b50:	48 b8 f0 35 41 00 00 	movabs rax,0x4135f0
  401b57:	00 00 00 
  401b5a:	ff d0                	call   rax
  401b5c:	e9 11 ff ff ff       	jmp    401a72 <slm_blkpt_block+0x442>
			ret = slm_cs_enter_contention(cs, cached, current, owner, contended, tok);
  401b61:	41 89 f0             	mov    r8d,esi
  401b64:	4c 89 ea             	mov    rdx,r13
  401b67:	4c 89 ff             	mov    rdi,r15
  401b6a:	41 83 e0 01          	and    r8d,0x1
  401b6e:	41 ff d4             	call   r12
			assert(ret != -EBUSY);
  401b71:	83 f8 f0             	cmp    eax,0xfffffff0
  401b74:	0f 85 2e ff ff ff    	jne    401aa8 <slm_blkpt_block+0x478>
  401b7a:	e9 ee fc ff ff       	jmp    40186d <slm_blkpt_block+0x23d>
  401b7f:	48 bf 40 f4 41 00 00 	movabs rdi,0x41f440
  401b86:	00 00 00 
  401b89:	be 61 00 00 00       	mov    esi,0x61
  401b8e:	48 b8 10 b3 40 00 00 	movabs rax,0x40b310
  401b95:	00 00 00 
  401b98:	ff d0                	call   rax
		assert(ret == -EAGAIN);
  401b9a:	c7 04 25 00 00 00 00 	mov    DWORD PTR ds:0x0,0x0
  401ba1:	00 00 00 00 
  401ba5:	0f 0b                	ud2    
  401ba7:	48 bf d8 f3 41 00 00 	movabs rdi,0x41f3d8
  401bae:	00 00 00 
  401bb1:	be 61 00 00 00       	mov    esi,0x61
  401bb6:	48 b8 10 b3 40 00 00 	movabs rax,0x40b310
  401bbd:	00 00 00 
  401bc0:	ff d0                	call   rax
		assert(ret != -EINVAL);
  401bc2:	c7 04 25 00 00 00 00 	mov    DWORD PTR ds:0x0,0x0
  401bc9:	00 00 00 00 
  401bcd:	0f 0b                	ud2    
  401bcf:	90                   	nop

0000000000401bd0 <slm_thd_timer_policy>:
SLM_MODULES_COMPOSE_DATA();
  401bd0:	f3 0f 1e fa          	endbr64 
  401bd4:	48 8d 87 88 00 00 00 	lea    rax,[rdi+0x88]
  401bdb:	c3                   	ret    
  401bdc:	0f 1f 40 00          	nop    DWORD PTR [rax+0x0]

0000000000401be0 <slm_thd_sched_policy>:
  401be0:	f3 0f 1e fa          	endbr64 
  401be4:	48 8d 47 78          	lea    rax,[rdi+0x78]
  401be8:	c3                   	ret    
  401be9:	0f 1f 80 00 00 00 00 	nop    DWORD PTR [rax+0x0]

0000000000401bf0 <slm_thd_from_timer>:
  401bf0:	f3 0f 1e fa          	endbr64 
  401bf4:	48 8d 87 78 ff ff ff 	lea    rax,[rdi-0x88]
  401bfb:	c3                   	ret    
  401bfc:	0f 1f 40 00          	nop    DWORD PTR [rax+0x0]

0000000000401c00 <slm_thd_from_sched>:
  401c00:	f3 0f 1e fa          	endbr64 
  401c04:	48 8d 47 88          	lea    rax,[rdi-0x78]
  401c08:	c3                   	ret    
  401c09:	0f 1f 80 00 00 00 00 	nop    DWORD PTR [rax+0x0]

0000000000401c10 <slm_timer_expire>:
SLM_MODULES_COMPOSE_FNS(quantum, fprr, static_cm);
  401c10:	f3 0f 1e fa          	endbr64 
  401c14:	48 b8 30 4f 41 00 00 	movabs rax,0x414f30
  401c1b:	00 00 00 
  401c1e:	ff e0                	jmp    rax

0000000000401c20 <slm_timer_thd_init>:
  401c20:	f3 0f 1e fa          	endbr64 
  401c24:	48 b8 c0 52 41 00 00 	movabs rax,0x4152c0
  401c2b:	00 00 00 
  401c2e:	ff e0                	jmp    rax

0000000000401c30 <slm_timer_thd_deinit>:
  401c30:	f3 0f 1e fa          	endbr64 
  401c34:	48 b8 f0 52 41 00 00 	movabs rax,0x4152f0
  401c3b:	00 00 00 
  401c3e:	ff e0                	jmp    rax

0000000000401c40 <slm_timer_add>:
  401c40:	f3 0f 1e fa          	endbr64 
  401c44:	48 b8 50 51 41 00 00 	movabs rax,0x415150
  401c4b:	00 00 00 
  401c4e:	ff e0                	jmp    rax

0000000000401c50 <slm_timer_cancel>:
  401c50:	f3 0f 1e fa          	endbr64 
  401c54:	48 b8 10 52 41 00 00 	movabs rax,0x415210
  401c5b:	00 00 00 
  401c5e:	ff e0                	jmp    rax

0000000000401c60 <slm_timer_init>:
  401c60:	f3 0f 1e fa          	endbr64 
  401c64:	48 b8 00 53 41 00 00 	movabs rax,0x415300
  401c6b:	00 00 00 
  401c6e:	ff e0                	jmp    rax

0000000000401c70 <slm_sched_init>:
  401c70:	f3 0f 1e fa          	endbr64 
  401c74:	48 b8 f0 4b 41 00 00 	movabs rax,0x414bf0
  401c7b:	00 00 00 
  401c7e:	ff e0                	jmp    rax

0000000000401c80 <slm_sched_thd_init>:
  401c80:	f3 0f 1e fa          	endbr64 
  401c84:	48 b8 10 4a 41 00 00 	movabs rax,0x414a10
  401c8b:	00 00 00 
  401c8e:	ff e0                	jmp    rax

0000000000401c90 <slm_sched_thd_deinit>:
  401c90:	f3 0f 1e fa          	endbr64 
  401c94:	48 b8 40 4a 41 00 00 	movabs rax,0x414a40
  401c9b:	00 00 00 
  401c9e:	ff e0                	jmp    rax

0000000000401ca0 <slm_sched_thd_update>:
  401ca0:	f3 0f 1e fa          	endbr64 
  401ca4:	48 b8 70 4a 41 00 00 	movabs rax,0x414a70
  401cab:	00 00 00 
  401cae:	ff e0                	jmp    rax

0000000000401cb0 <slm_sched_block>:
  401cb0:	f3 0f 1e fa          	endbr64 
  401cb4:	48 b8 d0 48 41 00 00 	movabs rax,0x4148d0
  401cbb:	00 00 00 
  401cbe:	ff e0                	jmp    rax

0000000000401cc0 <slm_sched_wakeup>:
  401cc0:	f3 0f 1e fa          	endbr64 
  401cc4:	48 b8 10 49 41 00 00 	movabs rax,0x414910
  401ccb:	00 00 00 
  401cce:	ff e0                	jmp    rax

0000000000401cd0 <slm_sched_yield>:
  401cd0:	f3 0f 1e fa          	endbr64 
  401cd4:	48 b8 a0 49 41 00 00 	movabs rax,0x4149a0
  401cdb:	00 00 00 
  401cde:	ff e0                	jmp    rax

0000000000401ce0 <slm_sched_schedule>:
  401ce0:	f3 0f 1e fa          	endbr64 
  401ce4:	48 b8 50 48 41 00 00 	movabs rax,0x414850
  401ceb:	00 00 00 
  401cee:	ff e0                	jmp    rax

0000000000401cf0 <slm_sched_execution>:
  401cf0:	f3 0f 1e fa          	endbr64 
  401cf4:	48 b8 40 48 41 00 00 	movabs rax,0x414840
  401cfb:	00 00 00 
  401cfe:	ff e0                	jmp    rax

0000000000401d00 <slm_thd_lookup>:
  401d00:	f3 0f 1e fa          	endbr64 
SS_STATIC_SLAB(thd, struct slm_thd_container, MAX_NUM_THREADS);
  401d04:	85 ff                	test   edi,edi
  401d06:	74 40                	je     401d48 <slm_thd_lookup+0x48>
  401d08:	83 ef 01             	sub    edi,0x1
  401d0b:	83 ff 18             	cmp    edi,0x18
  401d0e:	77 38                	ja     401d48 <slm_thd_lookup+0x48>
  401d10:	48 b9 00 27 46 00 00 	movabs rcx,0x462700
  401d17:	00 00 00 
  401d1a:	31 c0                	xor    eax,eax
  401d1c:	48 8b 14 f9          	mov    rdx,QWORD PTR [rcx+rdi*8]
  401d20:	48 f7 c2 fe ff ff ff 	test   rdx,0xfffffffffffffffe
  401d27:	74 21                	je     401d4a <slm_thd_lookup+0x4a>
  401d29:	83 e2 01             	and    edx,0x1
  401d2c:	75 1c                	jne    401d4a <slm_thd_lookup+0x4a>
  401d2e:	48 8d 04 bf          	lea    rax,[rdi+rdi*4]
  401d32:	48 8d 04 47          	lea    rax,[rdi+rax*2]
  401d36:	48 c1 e0 04          	shl    rax,0x4
  401d3a:	48 8d 84 01 c8 00 00 	lea    rax,[rcx+rax*1+0xc8]
  401d41:	00 
  401d42:	c3                   	ret    
  401d43:	0f 1f 44 00 00       	nop    DWORD PTR [rax+rax*1+0x0]
  401d48:	31 c0                	xor    eax,eax
SLM_MODULES_COMPOSE_FNS(quantum, fprr, static_cm);
  401d4a:	c3                   	ret    
  401d4b:	0f 1f 44 00 00       	nop    DWORD PTR [rax+rax*1+0x0]

0000000000401d50 <ss_thd_intern_is_allocated>:
SS_STATIC_SLAB(thd, struct slm_thd_container, MAX_NUM_THREADS);
  401d50:	f3 0f 1e fa          	endbr64 
  401d54:	48 8d 87 c8 00 00 00 	lea    rax,[rdi+0xc8]
  401d5b:	48 39 c6             	cmp    rsi,rax
  401d5e:	72 32                	jb     401d92 <ss_thd_intern_is_allocated+0x42>
  401d60:	48 8d 97 48 11 00 00 	lea    rdx,[rdi+0x1148]
  401d67:	48 39 d6             	cmp    rsi,rdx
  401d6a:	77 26                	ja     401d92 <ss_thd_intern_is_allocated+0x42>
  401d6c:	48 29 c6             	sub    rsi,rax
  401d6f:	48 c1 fe 04          	sar    rsi,0x4
  401d73:	69 c6 a3 8b 2e ba    	imul   eax,esi,0xba2e8ba3
  401d79:	48 8b 04 c7          	mov    rax,QWORD PTR [rdi+rax*8]
  401d7d:	48 89 c2             	mov    rdx,rax
  401d80:	83 e2 01             	and    edx,0x1
  401d83:	48 a9 fe ff ff ff    	test   rax,0xfffffffffffffffe
  401d89:	b8 01 00 00 00       	mov    eax,0x1
  401d8e:	0f 45 c2             	cmovne eax,edx
  401d91:	c3                   	ret    
  401d92:	48 bf c8 f5 41 00 00 	movabs rdi,0x41f5c8
  401d99:	00 00 00 
  401d9c:	55                   	push   rbp
  401d9d:	be 23 00 00 00       	mov    esi,0x23
  401da2:	48 b8 10 b3 40 00 00 	movabs rax,0x40b310
  401da9:	00 00 00 
  401dac:	48 89 e5             	mov    rbp,rsp
  401daf:	ff d0                	call   rax
  401db1:	c7 04 25 00 00 00 00 	mov    DWORD PTR ds:0x0,0x0
  401db8:	00 00 00 00 
  401dbc:	0f 0b                	ud2    
  401dbe:	66 90                	xchg   ax,ax

0000000000401dc0 <ss_thd_is_allocated>:
  401dc0:	f3 0f 1e fa          	endbr64 
  401dc4:	48 b8 48 38 46 00 00 	movabs rax,0x463848
  401dcb:	00 00 00 
  401dce:	48 39 c7             	cmp    rdi,rax
  401dd1:	77 3b                	ja     401e0e <ss_thd_is_allocated+0x4e>
  401dd3:	48 2d 80 10 00 00    	sub    rax,0x1080
  401dd9:	48 39 c7             	cmp    rdi,rax
  401ddc:	72 30                	jb     401e0e <ss_thd_is_allocated+0x4e>
  401dde:	48 ba 00 27 46 00 00 	movabs rdx,0x462700
  401de5:	00 00 00 
  401de8:	48 29 c7             	sub    rdi,rax
  401deb:	48 c1 ff 04          	sar    rdi,0x4
  401def:	69 c7 a3 8b 2e ba    	imul   eax,edi,0xba2e8ba3
  401df5:	48 8b 04 c2          	mov    rax,QWORD PTR [rdx+rax*8]
  401df9:	48 89 c2             	mov    rdx,rax
  401dfc:	83 e2 01             	and    edx,0x1
  401dff:	48 a9 fe ff ff ff    	test   rax,0xfffffffffffffffe
  401e05:	b8 01 00 00 00       	mov    eax,0x1
  401e0a:	0f 45 c2             	cmovne eax,edx
  401e0d:	c3                   	ret    
  401e0e:	48 bf c8 f5 41 00 00 	movabs rdi,0x41f5c8
  401e15:	00 00 00 
  401e18:	55                   	push   rbp
  401e19:	be 23 00 00 00       	mov    esi,0x23
  401e1e:	48 b8 10 b3 40 00 00 	movabs rax,0x40b310
  401e25:	00 00 00 
  401e28:	48 89 e5             	mov    rbp,rsp
  401e2b:	ff d0                	call   rax
  401e2d:	c7 04 25 00 00 00 00 	mov    DWORD PTR ds:0x0,0x0
  401e34:	00 00 00 00 
  401e38:	0f 0b                	ud2    
  401e3a:	66 0f 1f 44 00 00    	nop    WORD PTR [rax+rax*1+0x0]

0000000000401e40 <slm_thd_static_cm_lookup>:
  401e40:	f3 0f 1e fa          	endbr64 
  401e44:	85 ff                	test   edi,edi
  401e46:	74 40                	je     401e88 <slm_thd_static_cm_lookup+0x48>
  401e48:	83 ef 01             	sub    edi,0x1
  401e4b:	83 ff 18             	cmp    edi,0x18
  401e4e:	77 38                	ja     401e88 <slm_thd_static_cm_lookup+0x48>
  401e50:	48 b9 00 27 46 00 00 	movabs rcx,0x462700
  401e57:	00 00 00 
  401e5a:	31 c0                	xor    eax,eax
  401e5c:	48 8b 14 f9          	mov    rdx,QWORD PTR [rcx+rdi*8]
  401e60:	48 f7 c2 fe ff ff ff 	test   rdx,0xfffffffffffffffe
  401e67:	74 21                	je     401e8a <slm_thd_static_cm_lookup+0x4a>
  401e69:	83 e2 01             	and    edx,0x1
  401e6c:	75 1c                	jne    401e8a <slm_thd_static_cm_lookup+0x4a>
  401e6e:	48 8d 04 bf          	lea    rax,[rdi+rdi*4]
  401e72:	48 8d 04 47          	lea    rax,[rdi+rax*2]
  401e76:	48 c1 e0 04          	shl    rax,0x4
  401e7a:	48 8d 84 01 c8 00 00 	lea    rax,[rcx+rax*1+0xc8]
  401e81:	00 
  401e82:	c3                   	ret    
  401e83:	0f 1f 44 00 00       	nop    DWORD PTR [rax+rax*1+0x0]
  401e88:	31 c0                	xor    eax,eax
  401e8a:	c3                   	ret    
  401e8b:	0f 1f 44 00 00       	nop    DWORD PTR [rax+rax*1+0x0]

0000000000401e90 <slm_thd_current_extern>:
{
  401e90:	f3 0f 1e fa          	endbr64 
	__asm__("mov %%rsp, %0;" : "=r"(curr_stk_pointer));
  401e94:	48 89 e0             	mov    rax,rsp
	return *(long *)((curr_stk_pointer & ~(COS_STACK_SZ - 1)) + COS_STACK_SZ - offset * sizeof(unsigned long));
  401e97:	48 25 00 e0 ff ff    	and    rax,0xffffffffffffe000
  401e9d:	0f b7 80 f0 1f 00 00 	movzx  eax,WORD PTR [rax+0x1ff0]
SS_STATIC_SLAB(thd, struct slm_thd_container, MAX_NUM_THREADS);
  401ea4:	48 85 c0             	test   rax,rax
  401ea7:	74 47                	je     401ef0 <slm_thd_current_extern+0x60>
  401ea9:	83 e8 01             	sub    eax,0x1
  401eac:	83 f8 18             	cmp    eax,0x18
  401eaf:	77 3f                	ja     401ef0 <slm_thd_current_extern+0x60>
  401eb1:	48 b9 00 27 46 00 00 	movabs rcx,0x462700
  401eb8:	00 00 00 
  401ebb:	45 31 c0             	xor    r8d,r8d
  401ebe:	48 8b 14 c1          	mov    rdx,QWORD PTR [rcx+rax*8]
  401ec2:	48 f7 c2 fe ff ff ff 	test   rdx,0xfffffffffffffffe
  401ec9:	74 19                	je     401ee4 <slm_thd_current_extern+0x54>
  401ecb:	83 e2 01             	and    edx,0x1
  401ece:	75 14                	jne    401ee4 <slm_thd_current_extern+0x54>
  401ed0:	48 8d 14 80          	lea    rdx,[rax+rax*4]
  401ed4:	48 8d 04 50          	lea    rax,[rax+rdx*2]
  401ed8:	48 c1 e0 04          	shl    rax,0x4
  401edc:	4c 8d 84 01 c8 00 00 	lea    r8,[rcx+rax*1+0xc8]
  401ee3:	00 
}
  401ee4:	4c 89 c0             	mov    rax,r8
  401ee7:	c3                   	ret    
  401ee8:	0f 1f 84 00 00 00 00 	nop    DWORD PTR [rax+rax*1+0x0]
  401eef:	00 
SS_STATIC_SLAB(thd, struct slm_thd_container, MAX_NUM_THREADS);
  401ef0:	45 31 c0             	xor    r8d,r8d
}
  401ef3:	4c 89 c0             	mov    rax,r8
  401ef6:	c3                   	ret    
  401ef7:	66 0f 1f 84 00 00 00 	nop    WORD PTR [rax+rax*1+0x0]
  401efe:	00 00 

0000000000401f00 <slm_thd_from_container>:
slm_thd_from_container(struct slm_thd_container *c) {
  401f00:	f3 0f 1e fa          	endbr64 
  401f04:	48 89 f8             	mov    rax,rdi
}
  401f07:	c3                   	ret    
  401f08:	0f 1f 84 00 00 00 00 	nop    DWORD PTR [rax+rax*1+0x0]
  401f0f:	00 

0000000000401f10 <slm_thd_mem_alloc>:
{
  401f10:	f3 0f 1e fa          	endbr64 
  401f14:	55                   	push   rbp
  401f15:	66 48 0f 6e c7       	movq   xmm0,rdi
  401f1a:	66 48 0f 6e ce       	movq   xmm1,rsi
  401f1f:	66 0f 6c c1          	punpcklqdq xmm0,xmm1
  401f23:	48 89 e5             	mov    rbp,rsp
  401f26:	41 54                	push   r12
  401f28:	53                   	push   rbx
SS_STATIC_SLAB(thd, struct slm_thd_container, MAX_NUM_THREADS);
  401f29:	85 f6                	test   esi,esi
  401f2b:	0f 84 9f 00 00 00    	je     401fd0 <slm_thd_mem_alloc+0xc0>
  401f31:	49 89 d3             	mov    r11,rdx
  401f34:	8d 56 ff             	lea    edx,[rsi-0x1]
  401f37:	83 fa 18             	cmp    edx,0x18
  401f3a:	0f 87 90 00 00 00    	ja     401fd0 <slm_thd_mem_alloc+0xc0>
	if (*state != SS_STATE_FREE ||
  401f40:	49 ba 00 27 46 00 00 	movabs r10,0x462700
  401f47:	00 00 00 
  401f4a:	49 83 3c d2 00       	cmp    QWORD PTR [r10+rdx*8],0x0
  401f4f:	75 7f                	jne    401fd0 <slm_thd_mem_alloc+0xc0>
  401f51:	31 db                	xor    ebx,ebx
  401f53:	49 89 c9             	mov    r9,rcx
  401f56:	b9 01 00 00 00       	mov    ecx,0x1
  401f5b:	48 89 d8             	mov    rax,rbx
  401f5e:	f0 49 0f b1 0c d2    	lock cmpxchg QWORD PTR [r10+rdx*8],rcx
  401f64:	0f 94 c0             	sete   al
  401f67:	84 c0                	test   al,al
  401f69:	74 65                	je     401fd0 <slm_thd_mem_alloc+0xc0>
  401f6b:	48 8d 04 92          	lea    rax,[rdx+rdx*4]
  401f6f:	49 89 f8             	mov    r8,rdi
  401f72:	b9 16 00 00 00       	mov    ecx,0x16
  401f77:	48 8d 14 42          	lea    rdx,[rdx+rax*2]
  401f7b:	48 89 d8             	mov    rax,rbx
  401f7e:	48 c1 e2 04          	shl    rdx,0x4
  401f82:	4d 8d a4 12 c8 00 00 	lea    r12,[r10+rdx*1+0xc8]
  401f89:	00 
  401f8a:	4c 89 e7             	mov    rdi,r12
  401f8d:	f3 48 ab             	rep stos QWORD PTR es:[rdi],rax
	assert(_cap != 0 && _tid != 0);
  401f90:	4d 85 c0             	test   r8,r8
  401f93:	74 63                	je     401ff8 <slm_thd_mem_alloc+0xe8>
	t->resources = (struct slm_resources_thd) {
  401f95:	48 b8 10 27 46 00 00 	movabs rax,0x462710
  401f9c:	00 00 00 
  401f9f:	0f 29 84 10 50 01 00 	movaps XMMWORD PTR [rax+rdx*1+0x150],xmm0
  401fa6:	00 
  401fa7:	48 a1 40 b0 42 00 00 	movabs rax,ds:0x42b040
  401fae:	00 00 00 
  401fb1:	49 89 84 12 70 01 00 	mov    QWORD PTR [r10+rdx*1+0x170],rax
  401fb8:	00 
}
  401fb9:	4c 89 e0             	mov    rax,r12
	*thd = _cap;
  401fbc:	4d 89 03             	mov    QWORD PTR [r11],r8
	*tid = _tid;
  401fbf:	49 89 31             	mov    QWORD PTR [r9],rsi
}
  401fc2:	5b                   	pop    rbx
  401fc3:	41 5c                	pop    r12
  401fc5:	5d                   	pop    rbp
  401fc6:	c3                   	ret    
  401fc7:	66 0f 1f 84 00 00 00 	nop    WORD PTR [rax+rax*1+0x0]
  401fce:	00 00 
  401fd0:	48 bf f0 f5 41 00 00 	movabs rdi,0x41f5f0
  401fd7:	00 00 00 
  401fda:	be 23 00 00 00       	mov    esi,0x23
  401fdf:	48 b8 10 b3 40 00 00 	movabs rax,0x40b310
  401fe6:	00 00 00 
  401fe9:	ff d0                	call   rax
	if (!t) assert(0);
  401feb:	c7 04 25 00 00 00 00 	mov    DWORD PTR ds:0x0,0x0
  401ff2:	00 00 00 00 
  401ff6:	0f 0b                	ud2    
  401ff8:	48 bf 18 f6 41 00 00 	movabs rdi,0x41f618
  401fff:	00 00 00 
  402002:	be 23 00 00 00       	mov    esi,0x23
  402007:	48 b8 10 b3 40 00 00 	movabs rax,0x40b310
  40200e:	00 00 00 
  402011:	ff d0                	call   rax
	assert(_cap != 0 && _tid != 0);
  402013:	c7 04 25 00 00 00 00 	mov    DWORD PTR ds:0x0,0x0
  40201a:	00 00 00 00 
  40201e:	0f 0b                	ud2    

0000000000402020 <slm_thd_mem_activate>:
void slm_thd_mem_activate(struct slm_thd_container *t) { ss_thd_activate(t); }
  402020:	f3 0f 1e fa          	endbr64 
SS_STATIC_SLAB(thd, struct slm_thd_container, MAX_NUM_THREADS);
  402024:	48 b8 c8 27 46 00 00 	movabs rax,0x4627c8
  40202b:	00 00 00 
void slm_thd_mem_activate(struct slm_thd_container *t) { ss_thd_activate(t); }
  40202e:	55                   	push   rbp
  40202f:	48 89 e5             	mov    rbp,rsp
SS_STATIC_SLAB(thd, struct slm_thd_container, MAX_NUM_THREADS);
  402032:	48 39 c7             	cmp    rdi,rax
  402035:	72 49                	jb     402080 <slm_thd_mem_activate+0x60>
  402037:	48 8d 90 80 10 00 00 	lea    rdx,[rax+0x1080]
  40203e:	48 39 d7             	cmp    rdi,rdx
  402041:	77 3d                	ja     402080 <slm_thd_mem_activate+0x60>
 */
static inline void
ss_state_activate_with(ss_state_t *state, word_t val)
{
	assert(val != 0);
	*state = val | (*state & 1);
  402043:	48 b9 00 27 46 00 00 	movabs rcx,0x462700
  40204a:	00 00 00 
  40204d:	48 29 c7             	sub    rdi,rax
  402050:	48 c1 ff 04          	sar    rdi,0x4
  402054:	69 c7 a3 8b 2e ba    	imul   eax,edi,0xba2e8ba3
  40205a:	48 8b 14 c1          	mov    rdx,QWORD PTR [rcx+rax*8]
  40205e:	48 83 ca fe          	or     rdx,0xfffffffffffffffe
  402062:	48 89 14 c1          	mov    QWORD PTR [rcx+rax*8],rdx
	assert((*state & 1) == SS_STATE_CONS);
  402066:	48 83 fa ff          	cmp    rdx,0xffffffffffffffff
  40206a:	75 3c                	jne    4020a8 <slm_thd_mem_activate+0x88>
	*state &= ~SS_STATE_CONS;
  40206c:	48 c7 04 c1 fe ff ff 	mov    QWORD PTR [rcx+rax*8],0xfffffffffffffffe
  402073:	ff 
{ __asm__ __volatile__("mfence" ::: "memory"); }
  402074:	0f ae f0             	mfence 
	assert(*state != 0);
  402077:	48 83 3c c1 00       	cmp    QWORD PTR [rcx+rax*8],0x0
  40207c:	74 52                	je     4020d0 <slm_thd_mem_activate+0xb0>
void slm_thd_mem_activate(struct slm_thd_container *t) { ss_thd_activate(t); }
  40207e:	5d                   	pop    rbp
  40207f:	c3                   	ret    
  402080:	48 bf c8 f5 41 00 00 	movabs rdi,0x41f5c8
  402087:	00 00 00 
  40208a:	be 23 00 00 00       	mov    esi,0x23
  40208f:	48 b8 10 b3 40 00 00 	movabs rax,0x40b310
  402096:	00 00 00 
  402099:	ff d0                	call   rax
SS_STATIC_SLAB(thd, struct slm_thd_container, MAX_NUM_THREADS);
  40209b:	c7 04 25 00 00 00 00 	mov    DWORD PTR ds:0x0,0x0
  4020a2:	00 00 00 00 
  4020a6:	0f 0b                	ud2    
  4020a8:	48 bf 40 f6 41 00 00 	movabs rdi,0x41f640
  4020af:	00 00 00 
  4020b2:	be 61 00 00 00       	mov    esi,0x61
  4020b7:	48 b8 10 b3 40 00 00 	movabs rax,0x40b310
  4020be:	00 00 00 
  4020c1:	ff d0                	call   rax
	assert((*state & 1) == SS_STATE_CONS);
  4020c3:	c7 04 25 00 00 00 00 	mov    DWORD PTR ds:0x0,0x0
  4020ca:	00 00 00 00 
  4020ce:	0f 0b                	ud2    
  4020d0:	48 bf a8 f6 41 00 00 	movabs rdi,0x41f6a8
  4020d7:	00 00 00 
  4020da:	be 61 00 00 00       	mov    esi,0x61
  4020df:	48 b8 10 b3 40 00 00 	movabs rax,0x40b310
  4020e6:	00 00 00 
  4020e9:	ff d0                	call   rax
	assert(*state != 0);
  4020eb:	c7 04 25 00 00 00 00 	mov    DWORD PTR ds:0x0,0x0
  4020f2:	00 00 00 00 
  4020f6:	0f 0b                	ud2    
  4020f8:	0f 1f 84 00 00 00 00 	nop    DWORD PTR [rax+rax*1+0x0]
  4020ff:	00 

0000000000402100 <slm_thd_mem_free>:
void slm_thd_mem_free(struct slm_thd_container *t) { return; }
  402100:	f3 0f 1e fa          	endbr64 
  402104:	c3                   	ret    
  402105:	66 66 2e 0f 1f 84 00 	data16 cs nop WORD PTR [rax+rax*1+0x0]
  40210c:	00 00 00 00 

0000000000402110 <sched_thd_create_closure>:
{
  402110:	f3 0f 1e fa          	endbr64 
  402114:	55                   	push   rbp
  402115:	89 fe                	mov    esi,edi
	struct slm_thd *t = thd_alloc_in(cos_inv_token(), idx, &p, 0);
  402117:	31 c9                	xor    ecx,ecx
	__asm__("mov %%rsp, %0;" : "=r"(curr_stk_pointer));
  402119:	48 89 e0             	mov    rax,rsp
	return *(long *)((curr_stk_pointer & ~(COS_STACK_SZ - 1)) + COS_STACK_SZ - offset * sizeof(unsigned long));
  40211c:	48 25 00 e0 ff ff    	and    rax,0xffffffffffffe000
{
  402122:	48 89 e5             	mov    rbp,rsp
  402125:	48 83 ec 10          	sub    rsp,0x10
	struct slm_thd *t = thd_alloc_in(cos_inv_token(), idx, &p, 0);
  402129:	48 8b b8 e8 1f 00 00 	mov    rdi,QWORD PTR [rax+0x1fe8]
  402130:	48 b8 e0 5d 40 00 00 	movabs rax,0x405de0
  402137:	00 00 00 
	sched_param_t p = 0;
  40213a:	c7 45 fc 00 00 00 00 	mov    DWORD PTR [rbp-0x4],0x0
	struct slm_thd *t = thd_alloc_in(cos_inv_token(), idx, &p, 0);
  402141:	48 8d 55 fc          	lea    rdx,[rbp-0x4]
  402145:	ff d0                	call   rax
	if (!t) return 0;
  402147:	48 85 c0             	test   rax,rax
  40214a:	74 0c                	je     402158 <sched_thd_create_closure+0x48>
	return t->tid;
  40214c:	48 8b 40 18          	mov    rax,QWORD PTR [rax+0x18]
}
  402150:	c9                   	leave  
  402151:	c3                   	ret    
  402152:	66 0f 1f 44 00 00    	nop    WORD PTR [rax+rax*1+0x0]
  402158:	c9                   	leave  
	if (!t) return 0;
  402159:	31 c0                	xor    eax,eax
}
  40215b:	c3                   	ret    
  40215c:	0f 1f 40 00          	nop    DWORD PTR [rax+0x0]

0000000000402160 <sched_thd_param_set>:
{
  402160:	f3 0f 1e fa          	endbr64 

static inline void
sched_param_get(sched_param_t sp, sched_param_type_t *type, unsigned int *value)
{
	if (type)  *type  = (sched_param_type_t)(sp &  SCHED_PARAM_TYPE_MASK);
	if (value) *value = (unsigned int)      (sp >> SCHED_PARAM_TYPE_BITS);
  402164:	41 89 f0             	mov    r8d,esi
	if (type)  *type  = (sched_param_type_t)(sp &  SCHED_PARAM_TYPE_MASK);
  402167:	83 e6 3f             	and    esi,0x3f
	if (value) *value = (unsigned int)      (sp >> SCHED_PARAM_TYPE_BITS);
  40216a:	41 c1 e8 06          	shr    r8d,0x6
SS_STATIC_SLAB(thd, struct slm_thd_container, MAX_NUM_THREADS);
  40216e:	85 ff                	test   edi,edi
  402170:	74 4e                	je     4021c0 <sched_thd_param_set+0x60>
  402172:	83 ef 01             	sub    edi,0x1
  402175:	83 ff 18             	cmp    edi,0x18
  402178:	77 46                	ja     4021c0 <sched_thd_param_set+0x60>
  40217a:	48 ba 00 27 46 00 00 	movabs rdx,0x462700
  402181:	00 00 00 
  402184:	48 8b 04 fa          	mov    rax,QWORD PTR [rdx+rdi*8]
	return ((state & ~1) != 0) && ((state & 1) == SS_STATE_ALLOC);
  402188:	48 a9 fe ff ff ff    	test   rax,0xfffffffffffffffe
  40218e:	74 30                	je     4021c0 <sched_thd_param_set+0x60>
  402190:	a8 01                	test   al,0x1
  402192:	75 2c                	jne    4021c0 <sched_thd_param_set+0x60>
	return &ss_thd_get(id)->thd;
  402194:	48 8d 04 bf          	lea    rax,[rdi+rdi*4]
  402198:	48 8d 04 47          	lea    rax,[rdi+rax*2]
  40219c:	48 c1 e0 04          	shl    rax,0x4
  4021a0:	48 8d bc 02 c8 00 00 	lea    rdi,[rdx+rax*1+0xc8]
  4021a7:	00 
SLM_MODULES_COMPOSE_FNS(quantum, fprr, static_cm);
  4021a8:	44 89 c2             	mov    edx,r8d
  4021ab:	48 b8 70 4a 41 00 00 	movabs rax,0x414a70
  4021b2:	00 00 00 
  4021b5:	ff e0                	jmp    rax
  4021b7:	66 0f 1f 84 00 00 00 	nop    WORD PTR [rax+rax*1+0x0]
  4021be:	00 00 
}
  4021c0:	b8 ff ff ff ff       	mov    eax,0xffffffff
  4021c5:	c3                   	ret    
  4021c6:	66 2e 0f 1f 84 00 00 	cs nop WORD PTR [rax+rax*1+0x0]
  4021cd:	00 00 00 

00000000004021d0 <sched_thd_delete>:
{
  4021d0:	f3 0f 1e fa          	endbr64 
}
  4021d4:	31 c0                	xor    eax,eax
  4021d6:	c3                   	ret    
  4021d7:	66 0f 1f 84 00 00 00 	nop    WORD PTR [rax+rax*1+0x0]
  4021de:	00 00 

00000000004021e0 <sched_thd_exit>:
{
  4021e0:	f3 0f 1e fa          	endbr64 
  4021e4:	55                   	push   rbp
	__asm__("mov %%rsp, %0;" : "=r"(curr_stk_pointer));
  4021e5:	48 89 e0             	mov    rax,rsp
	return *(long *)((curr_stk_pointer & ~(COS_STACK_SZ - 1)) + COS_STACK_SZ - offset * sizeof(unsigned long));
  4021e8:	48 25 00 e0 ff ff    	and    rax,0xffffffffffffe000
  4021ee:	48 89 e5             	mov    rbp,rsp
  4021f1:	41 57                	push   r15
  4021f3:	41 56                	push   r14
  4021f5:	41 55                	push   r13
  4021f7:	41 54                	push   r12
  4021f9:	53                   	push   rbx
  4021fa:	48 83 ec 18          	sub    rsp,0x18
  4021fe:	0f b7 80 f0 1f 00 00 	movzx  eax,WORD PTR [rax+0x1ff0]
SS_STATIC_SLAB(thd, struct slm_thd_container, MAX_NUM_THREADS);
  402205:	48 85 c0             	test   rax,rax
  402208:	0f 84 b3 02 00 00    	je     4024c1 <sched_thd_exit+0x2e1>
  40220e:	83 e8 01             	sub    eax,0x1
  402211:	83 f8 18             	cmp    eax,0x18
  402214:	0f 87 a7 02 00 00    	ja     4024c1 <sched_thd_exit+0x2e1>
  40221a:	48 ba 00 27 46 00 00 	movabs rdx,0x462700
  402221:	00 00 00 
  402224:	48 8b 0c c2          	mov    rcx,QWORD PTR [rdx+rax*8]
  402228:	48 f7 c1 fe ff ff ff 	test   rcx,0xfffffffffffffffe
  40222f:	0f 84 8c 02 00 00    	je     4024c1 <sched_thd_exit+0x2e1>
  402235:	80 e1 01             	and    cl,0x1
  402238:	0f 85 83 02 00 00    	jne    4024c1 <sched_thd_exit+0x2e1>
  40223e:	49 bd d0 35 41 00 00 	movabs r13,0x4135d0
  402245:	00 00 00 
  402248:	48 8d 0c 80          	lea    rcx,[rax+rax*4]
  40224c:	48 bb c0 5e 5a 00 00 	movabs rbx,0x5a5ec0
  402253:	00 00 00 
			ret = slm_cs_enter_contention(cs, cached, current, owner, contended, tok);
  402256:	49 bc 50 5f 41 00 00 	movabs r12,0x415f50
  40225d:	00 00 00 
  402260:	48 8d 04 48          	lea    rax,[rax+rcx*2]
  402264:	48 c1 e0 04          	shl    rax,0x4
  402268:	48 8d 84 02 c8 00 00 	lea    rax,[rdx+rax*1+0xc8]
  40226f:	00 
  402270:	48 89 45 c0          	mov    QWORD PTR [rbp-0x40],rax
		tok    = cos_sched_sync();
  402274:	41 ff d5             	call   r13
  402277:	41 89 c1             	mov    r9d,eax
	unsigned long oc = ps_load(&cs->owner_contention);
  40227a:	48 8b 03             	mov    rax,QWORD PTR [rbx]
		if (unlikely(owner)) {
  40227d:	48 89 c1             	mov    rcx,rax
  402280:	48 83 e1 fe          	and    rcx,0xfffffffffffffffe
  402284:	0f 85 84 02 00 00    	jne    40250e <sched_thd_exit+0x32e>
        __asm__ __volatile__("lock " PS_CAS_STR
  40228a:	48 8b 7d c0          	mov    rdi,QWORD PTR [rbp-0x40]
  40228e:	f0 48 0f b1 3b       	lock cmpxchg QWORD PTR [rbx],rdi
  402293:	0f 94 c0             	sete   al
		if (likely(!__slm_cs_cas(cs, cached, current, 0))) return 0;
  402296:	84 c0                	test   al,al
  402298:	74 da                	je     402274 <sched_thd_exit+0x94>
	slm_thd_deinit(current);
  40229a:	48 b8 10 5f 41 00 00 	movabs rax,0x415f10
  4022a1:	00 00 00 
  4022a4:	49 bf 10 ce 40 00 00 	movabs r15,0x40ce10
  4022ab:	00 00 00 
  4022ae:	ff d0                	call   rax
	for (i = 0; slm_cs_exit_reschedule(current, SLM_CS_NONE) && i < 16; i++) ;
  4022b0:	c7 45 cc 11 00 00 00 	mov    DWORD PTR [rbp-0x34],0x11
	struct cos_compinfo    *ci  = &cos_defcompinfo_curr_get()->ci;
  4022b7:	41 ff d7             	call   r15
	tok  = cos_sched_sync();
  4022ba:	41 ff d5             	call   r13
  4022bd:	41 89 c6             	mov    r14d,eax
SLM_MODULES_COMPOSE_FNS(quantum, fprr, static_cm);
  4022c0:	48 b8 50 48 41 00 00 	movabs rax,0x414850
  4022c7:	00 00 00 
  4022ca:	ff d0                	call   rax
	if (unlikely(!t)) t = &g->idle_thd;
  4022cc:	48 85 c0             	test   rax,rax
  4022cf:	49 89 c4             	mov    r12,rax
  4022d2:	48 b8 40 5f 5a 00 00 	movabs rax,0x5a5f40
  4022d9:	00 00 00 
  4022dc:	4c 0f 44 e0          	cmove  r12,rax
{ return s == SLM_THD_RUNNABLE || s == SLM_THD_WOKEN; }
  4022e0:	41 8b 44 24 04       	mov    eax,DWORD PTR [r12+0x4]
  4022e5:	83 e8 02             	sub    eax,0x2
	assert(slm_state_is_runnable(t->state));
  4022e8:	83 f8 01             	cmp    eax,0x1
  4022eb:	76 17                	jbe    402304 <sched_thd_exit+0x124>
  4022ed:	e9 ac 00 00 00       	jmp    40239e <sched_thd_exit+0x1be>
  4022f2:	66 0f 1f 44 00 00    	nop    WORD PTR [rax+rax*1+0x0]
  4022f8:	f0 48 0f b1 13       	lock cmpxchg QWORD PTR [rbx],rdx
  4022fd:	0f 94 c0             	sete   al
	while (ret != 0) {
  402300:	84 c0                	test   al,al
  402302:	75 2d                	jne    402331 <sched_thd_exit+0x151>
		tok    = cos_sched_sync();
  402304:	41 ff d5             	call   r13
  402307:	89 c1                	mov    ecx,eax
	unsigned long oc = ps_load(&cs->owner_contention);
  402309:	48 8b 03             	mov    rax,QWORD PTR [rbx]
		if (unlikely(contention)) {
  40230c:	48 89 c2             	mov    rdx,rax
  40230f:	83 e2 01             	and    edx,0x1
  402312:	74 e4                	je     4022f8 <sched_thd_exit+0x118>
	*thd        = (struct slm_thd *)(oc & (~0UL << 1));
  402314:	48 89 c6             	mov    rsi,rax
			if (!slm_cs_exit_contention(cs, current, cached, tok)) return;
  402317:	48 89 c2             	mov    rdx,rax
  40231a:	48 89 df             	mov    rdi,rbx
  40231d:	48 b8 b0 5f 41 00 00 	movabs rax,0x415fb0
  402324:	00 00 00 
  402327:	48 83 e6 fe          	and    rsi,0xfffffffffffffffe
  40232b:	ff d0                	call   rax
  40232d:	85 c0                	test   eax,eax
  40232f:	75 d3                	jne    402304 <sched_thd_exit+0x124>
	struct cos_defcompinfo *dci = cos_defcompinfo_curr_get();
  402331:	41 ff d7             	call   r15
	prio = inherit_prio ? curr->priority : t->priority;
  402334:	49 8b 74 24 30       	mov    rsi,QWORD PTR [r12+0x30]
	timeout = g->timeout_next;
  402339:	48 b8 c8 5f 5a 00 00 	movabs rax,0x5a5fc8
  402340:	00 00 00 
  402343:	4c 8b 00             	mov    r8,QWORD PTR [rax]
	if (unlikely(t->properties & (SLM_THD_PROPERTY_SEND | SLM_THD_PROPERTY_OWN_TCAP | SLM_THD_PROPERTY_SPECIAL))) {
  402346:	41 8b 04 24          	mov    eax,DWORD PTR [r12]
  40234a:	a8 0b                	test   al,0xb
  40234c:	75 78                	jne    4023c6 <sched_thd_exit+0x1e6>
	ret = cos_defswitch(t->thd, prio, timeout, tok);
  40234e:	49 8b 7c 24 10       	mov    rdi,QWORD PTR [r12+0x10]
  402353:	44 89 f1             	mov    ecx,r14d
  402356:	4c 89 c2             	mov    rdx,r8
  402359:	48 b8 70 e1 40 00 00 	movabs rax,0x40e170
  402360:	00 00 00 
  402363:	ff d0                	call   rax
	if (unlikely(ret == -EPERM && !slm_thd_normal(t))) {
  402365:	83 f8 ff             	cmp    eax,0xffffffff
  402368:	0f 84 0b 01 00 00    	je     402479 <sched_thd_exit+0x299>
	if (unlikely(ret != 0)) {
  40236e:	85 c0                	test   eax,eax
  402370:	0f 85 b2 00 00 00    	jne    402428 <sched_thd_exit+0x248>
  402376:	48 bf 0a f7 41 00 00 	movabs rdi,0x41f70a
  40237d:	00 00 00 
  402380:	be 11 00 00 00       	mov    esi,0x11
  402385:	48 b8 10 b3 40 00 00 	movabs rax,0x40b310
  40238c:	00 00 00 
  40238f:	ff d0                	call   rax
	BUG();
  402391:	c7 04 25 00 00 00 00 	mov    DWORD PTR ds:0x0,0x0
  402398:	00 00 00 00 
  40239c:	0f 0b                	ud2    
  40239e:	48 bf 08 f3 41 00 00 	movabs rdi,0x41f308
  4023a5:	00 00 00 
  4023a8:	be 61 00 00 00       	mov    esi,0x61
  4023ad:	48 b8 10 b3 40 00 00 	movabs rax,0x40b310
  4023b4:	00 00 00 
  4023b7:	ff d0                	call   rax
	assert(slm_state_is_runnable(t->state));
  4023b9:	c7 04 25 00 00 00 00 	mov    DWORD PTR ds:0x0,0x0
  4023c0:	00 00 00 00 
  4023c4:	0f 0b                	ud2    
		if (t == &g->sched_thd) {
  4023c6:	48 ba c8 5e 5a 00 00 	movabs rdx,0x5a5ec8
  4023cd:	00 00 00 
	timeout = g->timeout_next;
  4023d0:	4c 89 c1             	mov    rcx,r8
		if (t == &g->sched_thd) {
  4023d3:	49 39 d4             	cmp    r12,rdx
  4023d6:	0f 84 23 01 00 00    	je     4024ff <sched_thd_exit+0x31f>
		if (t->properties & SLM_THD_PROPERTY_SEND) {
  4023dc:	a8 02                	test   al,0x2
  4023de:	0f 85 6f 01 00 00    	jne    402553 <sched_thd_exit+0x373>
		} else if (t->properties & SLM_THD_PROPERTY_OWN_TCAP) {
  4023e4:	49 89 c8             	mov    r8,rcx
  4023e7:	a8 01                	test   al,0x1
  4023e9:	0f 84 5f ff ff ff    	je     40234e <sched_thd_exit+0x16e>
			return cos_switch(t->thd, t->tc, prio, timeout, g->sched_thd.rcv, tok);
  4023ef:	4d 8b 54 24 08       	mov    r10,QWORD PTR [r12+0x8]
  4023f4:	48 89 f2             	mov    rdx,rsi
  4023f7:	49 8b 7c 24 10       	mov    rdi,QWORD PTR [r12+0x10]
  4023fc:	45 89 f1             	mov    r9d,r14d
  4023ff:	48 b8 e8 5e 5a 00 00 	movabs rax,0x5a5ee8
  402406:	00 00 00 
  402409:	4c 8b 00             	mov    r8,QWORD PTR [rax]
  40240c:	48 b8 f0 35 41 00 00 	movabs rax,0x4135f0
  402413:	00 00 00 
  402416:	4c 89 d6             	mov    rsi,r10
  402419:	ff d0                	call   rax
	if (unlikely(ret != 0)) {
  40241b:	85 c0                	test   eax,eax
  40241d:	0f 84 53 ff ff ff    	je     402376 <sched_thd_exit+0x196>
		assert(ret != -EPERM);
  402423:	83 f8 ff             	cmp    eax,0xffffffff
  402426:	74 71                	je     402499 <sched_thd_exit+0x2b9>
		assert(ret != -EINVAL);
  402428:	83 f8 ea             	cmp    eax,0xffffffea
  40242b:	0f 84 7c 01 00 00    	je     4025ad <sched_thd_exit+0x3cd>
		if (ret == -EBUSY) return ret;
  402431:	83 f8 f0             	cmp    eax,0xfffffff0
  402434:	0f 84 b6 00 00 00    	je     4024f0 <sched_thd_exit+0x310>
		assert(ret == -EAGAIN);
  40243a:	83 f8 f5             	cmp    eax,0xfffffff5
  40243d:	0f 85 b4 01 00 00    	jne    4025f7 <sched_thd_exit+0x417>
			ret = slm_cs_enter_contention(cs, cached, current, owner, contended, tok);
  402443:	49 bc 50 5f 41 00 00 	movabs r12,0x415f50
  40244a:	00 00 00 
		tok    = cos_sched_sync();
  40244d:	41 ff d5             	call   r13
  402450:	41 89 c1             	mov    r9d,eax
	unsigned long oc = ps_load(&cs->owner_contention);
  402453:	48 8b 03             	mov    rax,QWORD PTR [rbx]
		if (unlikely(owner)) {
  402456:	48 89 c1             	mov    rcx,rax
  402459:	48 83 e1 fe          	and    rcx,0xfffffffffffffffe
  40245d:	0f 85 72 01 00 00    	jne    4025d5 <sched_thd_exit+0x3f5>
  402463:	48 8b 7d c0          	mov    rdi,QWORD PTR [rbp-0x40]
  402467:	f0 48 0f b1 3b       	lock cmpxchg QWORD PTR [rbx],rdi
  40246c:	0f 94 c0             	sete   al
		if (likely(!__slm_cs_cas(cs, cached, current, 0))) return 0;
  40246f:	84 c0                	test   al,al
  402471:	0f 85 43 fe ff ff    	jne    4022ba <sched_thd_exit+0xda>
  402477:	eb d4                	jmp    40244d <sched_thd_exit+0x26d>
	return t != &g->idle_thd && t != &g->sched_thd;
  402479:	48 b8 40 5f 5a 00 00 	movabs rax,0x5a5f40
  402480:	00 00 00 
  402483:	49 39 c4             	cmp    r12,rax
  402486:	0f 84 f0 00 00 00    	je     40257c <sched_thd_exit+0x39c>
  40248c:	48 83 e8 78          	sub    rax,0x78
  402490:	49 39 c4             	cmp    r12,rax
  402493:	0f 84 e3 00 00 00    	je     40257c <sched_thd_exit+0x39c>
  402499:	48 bf 70 f3 41 00 00 	movabs rdi,0x41f370
  4024a0:	00 00 00 
  4024a3:	be 61 00 00 00       	mov    esi,0x61
  4024a8:	48 b8 10 b3 40 00 00 	movabs rax,0x40b310
  4024af:	00 00 00 
  4024b2:	ff d0                	call   rax
		assert(ret != -EPERM);
  4024b4:	c7 04 25 00 00 00 00 	mov    DWORD PTR ds:0x0,0x0
  4024bb:	00 00 00 00 
  4024bf:	0f 0b                	ud2    
  4024c1:	48 bf 20 f2 41 00 00 	movabs rdi,0x41f220
  4024c8:	00 00 00 
  4024cb:	be 59 00 00 00       	mov    esi,0x59
  4024d0:	48 b8 10 b3 40 00 00 	movabs rax,0x40b310
  4024d7:	00 00 00 
  4024da:	ff d0                	call   rax
	assert(current);
  4024dc:	c7 04 25 00 00 00 00 	mov    DWORD PTR ds:0x0,0x0
  4024e3:	00 00 00 00 
  4024e7:	0f 0b                	ud2    
  4024e9:	0f 1f 80 00 00 00 00 	nop    DWORD PTR [rax+0x0]
	for (i = 0; slm_cs_exit_reschedule(current, SLM_CS_NONE) && i < 16; i++) ;
  4024f0:	83 6d cc 01          	sub    DWORD PTR [rbp-0x34],0x1
  4024f4:	0f 85 bd fd ff ff    	jne    4022b7 <sched_thd_exit+0xd7>
  4024fa:	e9 77 fe ff ff       	jmp    402376 <sched_thd_exit+0x196>
			prio    = curr->priority;
  4024ff:	48 8b 7d c0          	mov    rdi,QWORD PTR [rbp-0x40]
			timeout = TCAP_TIME_NIL;
  402503:	31 c9                	xor    ecx,ecx
			prio    = curr->priority;
  402505:	48 8b 77 30          	mov    rsi,QWORD PTR [rdi+0x30]
  402509:	e9 ce fe ff ff       	jmp    4023dc <sched_thd_exit+0x1fc>
			ret = slm_cs_enter_contention(cs, cached, current, owner, contended, tok);
  40250e:	41 89 c0             	mov    r8d,eax
  402511:	48 8b 55 c0          	mov    rdx,QWORD PTR [rbp-0x40]
  402515:	48 89 c6             	mov    rsi,rax
  402518:	48 89 df             	mov    rdi,rbx
  40251b:	41 83 e0 01          	and    r8d,0x1
  40251f:	41 ff d4             	call   r12
			assert(ret != -EBUSY);
  402522:	83 f8 f0             	cmp    eax,0xfffffff0
  402525:	0f 85 49 fd ff ff    	jne    402274 <sched_thd_exit+0x94>
  40252b:	48 bf 80 f2 41 00 00 	movabs rdi,0x41f280
  402532:	00 00 00 
  402535:	be 59 00 00 00       	mov    esi,0x59
  40253a:	48 b8 10 b3 40 00 00 	movabs rax,0x40b310
  402541:	00 00 00 
  402544:	ff d0                	call   rax
  402546:	c7 04 25 00 00 00 00 	mov    DWORD PTR ds:0x0,0x0
  40254d:	00 00 00 00 
  402551:	0f 0b                	ud2    
			return cos_sched_asnd(t->asnd, g->timeout_next, g->sched_thd.rcv, tok);
  402553:	48 b8 e8 5e 5a 00 00 	movabs rax,0x5a5ee8
  40255a:	00 00 00 
  40255d:	49 8b 7c 24 28       	mov    rdi,QWORD PTR [r12+0x28]
  402562:	48 8b 10             	mov    rdx,QWORD PTR [rax]
  402565:	44 89 f1             	mov    ecx,r14d
  402568:	48 b8 60 36 41 00 00 	movabs rax,0x413660
  40256f:	00 00 00 
  402572:	4c 89 c6             	mov    rsi,r8
  402575:	ff d0                	call   rax
  402577:	e9 9f fe ff ff       	jmp    40241b <sched_thd_exit+0x23b>
		ret = cos_switch(g->sched_thd.thd, 0, curr->priority, TCAP_TIME_NIL, g->sched_thd.rcv, tok);
  40257c:	48 8b 45 c0          	mov    rax,QWORD PTR [rbp-0x40]
  402580:	45 89 f1             	mov    r9d,r14d
  402583:	31 c9                	xor    ecx,ecx
  402585:	31 f6                	xor    esi,esi
  402587:	48 8b 50 30          	mov    rdx,QWORD PTR [rax+0x30]
  40258b:	48 b8 e8 5e 5a 00 00 	movabs rax,0x5a5ee8
  402592:	00 00 00 
  402595:	4c 8b 00             	mov    r8,QWORD PTR [rax]
  402598:	48 8b 78 f0          	mov    rdi,QWORD PTR [rax-0x10]
  40259c:	48 b8 f0 35 41 00 00 	movabs rax,0x4135f0
  4025a3:	00 00 00 
  4025a6:	ff d0                	call   rax
  4025a8:	e9 6e fe ff ff       	jmp    40241b <sched_thd_exit+0x23b>
  4025ad:	48 bf d8 f3 41 00 00 	movabs rdi,0x41f3d8
  4025b4:	00 00 00 
  4025b7:	be 61 00 00 00       	mov    esi,0x61
  4025bc:	48 b8 10 b3 40 00 00 	movabs rax,0x40b310
  4025c3:	00 00 00 
  4025c6:	ff d0                	call   rax
		assert(ret != -EINVAL);
  4025c8:	c7 04 25 00 00 00 00 	mov    DWORD PTR ds:0x0,0x0
  4025cf:	00 00 00 00 
  4025d3:	0f 0b                	ud2    
			ret = slm_cs_enter_contention(cs, cached, current, owner, contended, tok);
  4025d5:	41 89 c0             	mov    r8d,eax
  4025d8:	48 8b 55 c0          	mov    rdx,QWORD PTR [rbp-0x40]
  4025dc:	48 89 c6             	mov    rsi,rax
  4025df:	48 89 df             	mov    rdi,rbx
  4025e2:	41 83 e0 01          	and    r8d,0x1
  4025e6:	41 ff d4             	call   r12
			assert(ret != -EBUSY);
  4025e9:	83 f8 f0             	cmp    eax,0xfffffff0
  4025ec:	0f 85 5b fe ff ff    	jne    40244d <sched_thd_exit+0x26d>
  4025f2:	e9 34 ff ff ff       	jmp    40252b <sched_thd_exit+0x34b>
  4025f7:	48 bf 40 f4 41 00 00 	movabs rdi,0x41f440
  4025fe:	00 00 00 
  402601:	be 61 00 00 00       	mov    esi,0x61
  402606:	48 b8 10 b3 40 00 00 	movabs rax,0x40b310
  40260d:	00 00 00 
  402610:	ff d0                	call   rax
		assert(ret == -EAGAIN);
  402612:	c7 04 25 00 00 00 00 	mov    DWORD PTR ds:0x0,0x0
  402619:	00 00 00 00 
  40261d:	0f 0b                	ud2    
  40261f:	90                   	nop

0000000000402620 <sched_thd_yield_to>:
{
  402620:	f3 0f 1e fa          	endbr64 
  402624:	55                   	push   rbp
	__asm__("mov %%rsp, %0;" : "=r"(curr_stk_pointer));
  402625:	48 89 e0             	mov    rax,rsp
	return *(long *)((curr_stk_pointer & ~(COS_STACK_SZ - 1)) + COS_STACK_SZ - offset * sizeof(unsigned long));
  402628:	48 25 00 e0 ff ff    	and    rax,0xffffffffffffe000
  40262e:	48 89 e5             	mov    rbp,rsp
  402631:	41 57                	push   r15
  402633:	41 56                	push   r14
  402635:	41 55                	push   r13
  402637:	41 54                	push   r12
  402639:	53                   	push   rbx
  40263a:	48 83 ec 08          	sub    rsp,0x8
  40263e:	0f b7 80 f0 1f 00 00 	movzx  eax,WORD PTR [rax+0x1ff0]
SS_STATIC_SLAB(thd, struct slm_thd_container, MAX_NUM_THREADS);
  402645:	48 85 c0             	test   rax,rax
  402648:	0f 84 12 02 00 00    	je     402860 <sched_thd_yield_to+0x240>
  40264e:	83 e8 01             	sub    eax,0x1
  402651:	83 f8 18             	cmp    eax,0x18
  402654:	0f 87 06 02 00 00    	ja     402860 <sched_thd_yield_to+0x240>
  40265a:	48 b9 00 27 46 00 00 	movabs rcx,0x462700
  402661:	00 00 00 
  402664:	45 31 ed             	xor    r13d,r13d
  402667:	48 8b 14 c1          	mov    rdx,QWORD PTR [rcx+rax*8]
  40266b:	48 f7 c2 fe ff ff ff 	test   rdx,0xfffffffffffffffe
  402672:	0f 85 90 01 00 00    	jne    402808 <sched_thd_yield_to+0x1e8>
  402678:	85 ff                	test   edi,edi
  40267a:	0f 84 b0 01 00 00    	je     402830 <sched_thd_yield_to+0x210>
  402680:	83 ef 01             	sub    edi,0x1
  402683:	83 ff 18             	cmp    edi,0x18
  402686:	0f 87 a4 01 00 00    	ja     402830 <sched_thd_yield_to+0x210>
  40268c:	48 ba 00 27 46 00 00 	movabs rdx,0x462700
  402693:	00 00 00 
  402696:	89 f8                	mov    eax,edi
  402698:	48 8b 0c c2          	mov    rcx,QWORD PTR [rdx+rax*8]
  40269c:	48 f7 c1 fe ff ff ff 	test   rcx,0xfffffffffffffffe
  4026a3:	0f 84 87 01 00 00    	je     402830 <sched_thd_yield_to+0x210>
  4026a9:	83 e1 01             	and    ecx,0x1
  4026ac:	0f 85 7e 01 00 00    	jne    402830 <sched_thd_yield_to+0x210>
	return &ss_thd_get(id)->thd;
  4026b2:	48 8d 0c 80          	lea    rcx,[rax+rax*4]
  4026b6:	48 8d 04 48          	lea    rax,[rax+rcx*2]
  4026ba:	48 c1 e0 04          	shl    rax,0x4
  4026be:	4c 8d b4 02 c8 00 00 	lea    r14,[rdx+rax*1+0xc8]
  4026c5:	00 
	assert(current);
  4026c6:	4d 85 ed             	test   r13,r13
  4026c9:	0f 84 dd 01 00 00    	je     4028ac <sched_thd_yield_to+0x28c>
  4026cf:	48 bb d0 35 41 00 00 	movabs rbx,0x4135d0
  4026d6:	00 00 00 
  4026d9:	49 bf c0 5e 5a 00 00 	movabs r15,0x5a5ec0
  4026e0:	00 00 00 
			ret = slm_cs_enter_contention(cs, cached, current, owner, contended, tok);
  4026e3:	49 bc 50 5f 41 00 00 	movabs r12,0x415f50
  4026ea:	00 00 00 
		tok    = cos_sched_sync();
  4026ed:	ff d3                	call   rbx
  4026ef:	41 89 c1             	mov    r9d,eax
	unsigned long oc = ps_load(&cs->owner_contention);
  4026f2:	49 8b 07             	mov    rax,QWORD PTR [r15]
		if (unlikely(owner)) {
  4026f5:	48 89 c1             	mov    rcx,rax
  4026f8:	48 83 e1 fe          	and    rcx,0xfffffffffffffffe
  4026fc:	0f 85 66 01 00 00    	jne    402868 <sched_thd_yield_to+0x248>
  402702:	f0 4d 0f b1 2f       	lock cmpxchg QWORD PTR [r15],r13
  402707:	0f 94 c0             	sete   al
		if (likely(!__slm_cs_cas(cs, cached, current, 0))) return 0;
  40270a:	84 c0                	test   al,al
  40270c:	74 df                	je     4026ed <sched_thd_yield_to+0xcd>
SLM_MODULES_COMPOSE_FNS(quantum, fprr, static_cm);
  40270e:	48 b8 a0 49 41 00 00 	movabs rax,0x4149a0
  402715:	00 00 00 
  402718:	4c 89 f6             	mov    rsi,r14
  40271b:	4c 89 ef             	mov    rdi,r13
  40271e:	ff d0                	call   rax
	struct cos_compinfo    *ci  = &cos_defcompinfo_curr_get()->ci;
  402720:	48 b8 10 ce 40 00 00 	movabs rax,0x40ce10
  402727:	00 00 00 
  40272a:	ff d0                	call   rax
	tok  = cos_sched_sync();
  40272c:	ff d3                	call   rbx
  40272e:	41 89 c6             	mov    r14d,eax
  402731:	48 b8 50 48 41 00 00 	movabs rax,0x414850
  402738:	00 00 00 
  40273b:	ff d0                	call   rax
	if (unlikely(!t)) t = &g->idle_thd;
  40273d:	48 85 c0             	test   rax,rax
  402740:	49 89 c4             	mov    r12,rax
  402743:	48 b8 40 5f 5a 00 00 	movabs rax,0x5a5f40
  40274a:	00 00 00 
  40274d:	4c 0f 44 e0          	cmove  r12,rax
{ return s == SLM_THD_RUNNABLE || s == SLM_THD_WOKEN; }
  402751:	41 8b 44 24 04       	mov    eax,DWORD PTR [r12+0x4]
  402756:	83 e8 02             	sub    eax,0x2
	assert(slm_state_is_runnable(t->state));
  402759:	83 f8 01             	cmp    eax,0x1
  40275c:	76 16                	jbe    402774 <sched_thd_yield_to+0x154>
  40275e:	e9 71 01 00 00       	jmp    4028d4 <sched_thd_yield_to+0x2b4>
  402763:	0f 1f 44 00 00       	nop    DWORD PTR [rax+rax*1+0x0]
  402768:	f0 49 0f b1 17       	lock cmpxchg QWORD PTR [r15],rdx
  40276d:	0f 94 c0             	sete   al
	while (ret != 0) {
  402770:	84 c0                	test   al,al
  402772:	75 2c                	jne    4027a0 <sched_thd_yield_to+0x180>
		tok    = cos_sched_sync();
  402774:	ff d3                	call   rbx
  402776:	89 c1                	mov    ecx,eax
	unsigned long oc = ps_load(&cs->owner_contention);
  402778:	49 8b 07             	mov    rax,QWORD PTR [r15]
		if (unlikely(contention)) {
  40277b:	48 89 c2             	mov    rdx,rax
  40277e:	83 e2 01             	and    edx,0x1
  402781:	74 e5                	je     402768 <sched_thd_yield_to+0x148>
	*thd        = (struct slm_thd *)(oc & (~0UL << 1));
  402783:	48 89 c6             	mov    rsi,rax
			if (!slm_cs_exit_contention(cs, current, cached, tok)) return;
  402786:	48 89 c2             	mov    rdx,rax
  402789:	4c 89 ff             	mov    rdi,r15
  40278c:	48 b8 b0 5f 41 00 00 	movabs rax,0x415fb0
  402793:	00 00 00 
  402796:	48 83 e6 fe          	and    rsi,0xfffffffffffffffe
  40279a:	ff d0                	call   rax
  40279c:	85 c0                	test   eax,eax
  40279e:	75 d4                	jne    402774 <sched_thd_yield_to+0x154>
	struct cos_defcompinfo *dci = cos_defcompinfo_curr_get();
  4027a0:	48 b8 10 ce 40 00 00 	movabs rax,0x40ce10
  4027a7:	00 00 00 
  4027aa:	ff d0                	call   rax
	prio = inherit_prio ? curr->priority : t->priority;
  4027ac:	49 8b 74 24 30       	mov    rsi,QWORD PTR [r12+0x30]
	timeout = g->timeout_next;
  4027b1:	48 b8 c8 5f 5a 00 00 	movabs rax,0x5a5fc8
  4027b8:	00 00 00 
  4027bb:	4c 8b 00             	mov    r8,QWORD PTR [rax]
	if (unlikely(t->properties & (SLM_THD_PROPERTY_SEND | SLM_THD_PROPERTY_OWN_TCAP | SLM_THD_PROPERTY_SPECIAL))) {
  4027be:	41 8b 04 24          	mov    eax,DWORD PTR [r12]
  4027c2:	a8 0b                	test   al,0xb
  4027c4:	0f 85 32 01 00 00    	jne    4028fc <sched_thd_yield_to+0x2dc>
	ret = cos_defswitch(t->thd, prio, timeout, tok);
  4027ca:	49 8b 7c 24 10       	mov    rdi,QWORD PTR [r12+0x10]
  4027cf:	44 89 f1             	mov    ecx,r14d
  4027d2:	4c 89 c2             	mov    rdx,r8
  4027d5:	48 b8 70 e1 40 00 00 	movabs rax,0x40e170
  4027dc:	00 00 00 
  4027df:	ff d0                	call   rax
	if (unlikely(ret == -EPERM && !slm_thd_normal(t))) {
  4027e1:	83 f8 ff             	cmp    eax,0xffffffff
  4027e4:	0f 84 69 01 00 00    	je     402953 <sched_thd_yield_to+0x333>
	if (unlikely(ret != 0)) {
  4027ea:	85 c0                	test   eax,eax
  4027ec:	0f 85 d6 01 00 00    	jne    4029c8 <sched_thd_yield_to+0x3a8>
  4027f2:	31 c0                	xor    eax,eax
}
  4027f4:	48 83 c4 08          	add    rsp,0x8
  4027f8:	5b                   	pop    rbx
  4027f9:	41 5c                	pop    r12
  4027fb:	41 5d                	pop    r13
  4027fd:	41 5e                	pop    r14
  4027ff:	41 5f                	pop    r15
  402801:	5d                   	pop    rbp
  402802:	c3                   	ret    
  402803:	0f 1f 44 00 00       	nop    DWORD PTR [rax+rax*1+0x0]
  402808:	83 e2 01             	and    edx,0x1
  40280b:	0f 85 67 fe ff ff    	jne    402678 <sched_thd_yield_to+0x58>
SS_STATIC_SLAB(thd, struct slm_thd_container, MAX_NUM_THREADS);
  402811:	48 8d 14 80          	lea    rdx,[rax+rax*4]
  402815:	48 8d 04 50          	lea    rax,[rax+rdx*2]
  402819:	48 c1 e0 04          	shl    rax,0x4
  40281d:	4c 8d ac 01 c8 00 00 	lea    r13,[rcx+rax*1+0xc8]
  402824:	00 
  402825:	85 ff                	test   edi,edi
  402827:	0f 85 53 fe ff ff    	jne    402680 <sched_thd_yield_to+0x60>
  40282d:	0f 1f 00             	nop    DWORD PTR [rax]
  402830:	48 bf 20 f7 41 00 00 	movabs rdi,0x41f720
  402837:	00 00 00 
  40283a:	be 24 00 00 00       	mov    esi,0x24
  40283f:	48 b8 10 b3 40 00 00 	movabs rax,0x40b310
  402846:	00 00 00 
  402849:	ff d0                	call   rax
	assert(to);
  40284b:	c7 04 25 00 00 00 00 	mov    DWORD PTR ds:0x0,0x0
  402852:	00 00 00 00 
  402856:	0f 0b                	ud2    
  402858:	0f 1f 84 00 00 00 00 	nop    DWORD PTR [rax+rax*1+0x0]
  40285f:	00 
SS_STATIC_SLAB(thd, struct slm_thd_container, MAX_NUM_THREADS);
  402860:	45 31 ed             	xor    r13d,r13d
  402863:	e9 10 fe ff ff       	jmp    402678 <sched_thd_yield_to+0x58>
			ret = slm_cs_enter_contention(cs, cached, current, owner, contended, tok);
  402868:	41 89 c0             	mov    r8d,eax
  40286b:	4c 89 ea             	mov    rdx,r13
  40286e:	48 89 c6             	mov    rsi,rax
  402871:	4c 89 ff             	mov    rdi,r15
  402874:	41 83 e0 01          	and    r8d,0x1
  402878:	41 ff d4             	call   r12
			assert(ret != -EBUSY);
  40287b:	83 f8 f0             	cmp    eax,0xfffffff0
  40287e:	0f 85 69 fe ff ff    	jne    4026ed <sched_thd_yield_to+0xcd>
  402884:	48 bf 80 f2 41 00 00 	movabs rdi,0x41f280
  40288b:	00 00 00 
  40288e:	be 59 00 00 00       	mov    esi,0x59
  402893:	48 b8 10 b3 40 00 00 	movabs rax,0x40b310
  40289a:	00 00 00 
  40289d:	ff d0                	call   rax
  40289f:	c7 04 25 00 00 00 00 	mov    DWORD PTR ds:0x0,0x0
  4028a6:	00 00 00 00 
  4028aa:	0f 0b                	ud2    
  4028ac:	48 bf 20 f2 41 00 00 	movabs rdi,0x41f220
  4028b3:	00 00 00 
  4028b6:	be 59 00 00 00       	mov    esi,0x59
  4028bb:	48 b8 10 b3 40 00 00 	movabs rax,0x40b310
  4028c2:	00 00 00 
  4028c5:	ff d0                	call   rax
	assert(current);
  4028c7:	c7 04 25 00 00 00 00 	mov    DWORD PTR ds:0x0,0x0
  4028ce:	00 00 00 00 
  4028d2:	0f 0b                	ud2    
  4028d4:	48 bf 08 f3 41 00 00 	movabs rdi,0x41f308
  4028db:	00 00 00 
  4028de:	be 61 00 00 00       	mov    esi,0x61
  4028e3:	48 b8 10 b3 40 00 00 	movabs rax,0x40b310
  4028ea:	00 00 00 
  4028ed:	ff d0                	call   rax
	assert(slm_state_is_runnable(t->state));
  4028ef:	c7 04 25 00 00 00 00 	mov    DWORD PTR ds:0x0,0x0
  4028f6:	00 00 00 00 
  4028fa:	0f 0b                	ud2    
		if (t == &g->sched_thd) {
  4028fc:	48 ba c8 5e 5a 00 00 	movabs rdx,0x5a5ec8
  402903:	00 00 00 
	timeout = g->timeout_next;
  402906:	4c 89 c1             	mov    rcx,r8
		if (t == &g->sched_thd) {
  402909:	49 39 d4             	cmp    r12,rdx
  40290c:	0f 84 fa 00 00 00    	je     402a0c <sched_thd_yield_to+0x3ec>
		if (t->properties & SLM_THD_PROPERTY_SEND) {
  402912:	a8 02                	test   al,0x2
  402914:	0f 85 fd 00 00 00    	jne    402a17 <sched_thd_yield_to+0x3f7>
		} else if (t->properties & SLM_THD_PROPERTY_OWN_TCAP) {
  40291a:	49 89 c8             	mov    r8,rcx
  40291d:	a8 01                	test   al,0x1
  40291f:	0f 84 a5 fe ff ff    	je     4027ca <sched_thd_yield_to+0x1aa>
			return cos_switch(t->thd, t->tc, prio, timeout, g->sched_thd.rcv, tok);
  402925:	4d 8b 54 24 08       	mov    r10,QWORD PTR [r12+0x8]
  40292a:	48 89 f2             	mov    rdx,rsi
  40292d:	49 8b 7c 24 10       	mov    rdi,QWORD PTR [r12+0x10]
  402932:	45 89 f1             	mov    r9d,r14d
  402935:	48 b8 e8 5e 5a 00 00 	movabs rax,0x5a5ee8
  40293c:	00 00 00 
  40293f:	4c 8b 00             	mov    r8,QWORD PTR [rax]
  402942:	48 b8 f0 35 41 00 00 	movabs rax,0x4135f0
  402949:	00 00 00 
  40294c:	4c 89 d6             	mov    rsi,r10
  40294f:	ff d0                	call   rax
  402951:	eb 68                	jmp    4029bb <sched_thd_yield_to+0x39b>
	return t != &g->idle_thd && t != &g->sched_thd;
  402953:	48 b8 c8 5e 5a 00 00 	movabs rax,0x5a5ec8
  40295a:	00 00 00 
  40295d:	49 39 c4             	cmp    r12,rax
  402960:	74 31                	je     402993 <sched_thd_yield_to+0x373>
  402962:	48 83 c0 78          	add    rax,0x78
  402966:	49 39 c4             	cmp    r12,rax
  402969:	74 28                	je     402993 <sched_thd_yield_to+0x373>
  40296b:	48 bf 70 f3 41 00 00 	movabs rdi,0x41f370
  402972:	00 00 00 
  402975:	be 61 00 00 00       	mov    esi,0x61
  40297a:	48 b8 10 b3 40 00 00 	movabs rax,0x40b310
  402981:	00 00 00 
  402984:	ff d0                	call   rax
		assert(ret != -EPERM);
  402986:	c7 04 25 00 00 00 00 	mov    DWORD PTR ds:0x0,0x0
  40298d:	00 00 00 00 
  402991:	0f 0b                	ud2    
		ret = cos_switch(g->sched_thd.thd, 0, curr->priority, TCAP_TIME_NIL, g->sched_thd.rcv, tok);
  402993:	49 8b 55 30          	mov    rdx,QWORD PTR [r13+0x30]
  402997:	45 89 f1             	mov    r9d,r14d
  40299a:	31 c9                	xor    ecx,ecx
  40299c:	31 f6                	xor    esi,esi
  40299e:	48 b8 e8 5e 5a 00 00 	movabs rax,0x5a5ee8
  4029a5:	00 00 00 
  4029a8:	4c 8b 00             	mov    r8,QWORD PTR [rax]
  4029ab:	48 8b 78 f0          	mov    rdi,QWORD PTR [rax-0x10]
  4029af:	48 b8 f0 35 41 00 00 	movabs rax,0x4135f0
  4029b6:	00 00 00 
  4029b9:	ff d0                	call   rax
	if (unlikely(ret != 0)) {
  4029bb:	85 c0                	test   eax,eax
  4029bd:	0f 84 2f fe ff ff    	je     4027f2 <sched_thd_yield_to+0x1d2>
		assert(ret != -EPERM);
  4029c3:	83 f8 ff             	cmp    eax,0xffffffff
  4029c6:	74 a3                	je     40296b <sched_thd_yield_to+0x34b>
		assert(ret != -EINVAL);
  4029c8:	83 f8 ea             	cmp    eax,0xffffffea
  4029cb:	74 73                	je     402a40 <sched_thd_yield_to+0x420>
		if (ret == -EBUSY) return ret;
  4029cd:	83 f8 f0             	cmp    eax,0xfffffff0
  4029d0:	0f 84 1e fe ff ff    	je     4027f4 <sched_thd_yield_to+0x1d4>
		assert(ret == -EAGAIN);
  4029d6:	83 f8 f5             	cmp    eax,0xfffffff5
  4029d9:	0f 85 b1 00 00 00    	jne    402a90 <sched_thd_yield_to+0x470>
			ret = slm_cs_enter_contention(cs, cached, current, owner, contended, tok);
  4029df:	49 bc 50 5f 41 00 00 	movabs r12,0x415f50
  4029e6:	00 00 00 
		tok    = cos_sched_sync();
  4029e9:	ff d3                	call   rbx
  4029eb:	41 89 c1             	mov    r9d,eax
	unsigned long oc = ps_load(&cs->owner_contention);
  4029ee:	49 8b 07             	mov    rax,QWORD PTR [r15]
		if (unlikely(owner)) {
  4029f1:	48 89 c1             	mov    rcx,rax
  4029f4:	48 83 e1 fe          	and    rcx,0xfffffffffffffffe
  4029f8:	75 6e                	jne    402a68 <sched_thd_yield_to+0x448>
  4029fa:	f0 4d 0f b1 2f       	lock cmpxchg QWORD PTR [r15],r13
  4029ff:	0f 94 c0             	sete   al
		if (likely(!__slm_cs_cas(cs, cached, current, 0))) return 0;
  402a02:	84 c0                	test   al,al
  402a04:	0f 85 22 fd ff ff    	jne    40272c <sched_thd_yield_to+0x10c>
  402a0a:	eb dd                	jmp    4029e9 <sched_thd_yield_to+0x3c9>
			prio    = curr->priority;
  402a0c:	49 8b 75 30          	mov    rsi,QWORD PTR [r13+0x30]
			timeout = TCAP_TIME_NIL;
  402a10:	31 c9                	xor    ecx,ecx
  402a12:	e9 fb fe ff ff       	jmp    402912 <sched_thd_yield_to+0x2f2>
			return cos_sched_asnd(t->asnd, g->timeout_next, g->sched_thd.rcv, tok);
  402a17:	48 b8 e8 5e 5a 00 00 	movabs rax,0x5a5ee8
  402a1e:	00 00 00 
  402a21:	49 8b 7c 24 28       	mov    rdi,QWORD PTR [r12+0x28]
  402a26:	48 8b 10             	mov    rdx,QWORD PTR [rax]
  402a29:	44 89 f1             	mov    ecx,r14d
  402a2c:	48 b8 60 36 41 00 00 	movabs rax,0x413660
  402a33:	00 00 00 
  402a36:	4c 89 c6             	mov    rsi,r8
  402a39:	ff d0                	call   rax
  402a3b:	e9 7b ff ff ff       	jmp    4029bb <sched_thd_yield_to+0x39b>
  402a40:	48 bf d8 f3 41 00 00 	movabs rdi,0x41f3d8
  402a47:	00 00 00 
  402a4a:	be 61 00 00 00       	mov    esi,0x61
  402a4f:	48 b8 10 b3 40 00 00 	movabs rax,0x40b310
  402a56:	00 00 00 
  402a59:	ff d0                	call   rax
		assert(ret != -EINVAL);
  402a5b:	c7 04 25 00 00 00 00 	mov    DWORD PTR ds:0x0,0x0
  402a62:	00 00 00 00 
  402a66:	0f 0b                	ud2    
			ret = slm_cs_enter_contention(cs, cached, current, owner, contended, tok);
  402a68:	41 89 c0             	mov    r8d,eax
  402a6b:	4c 89 ea             	mov    rdx,r13
  402a6e:	48 89 c6             	mov    rsi,rax
  402a71:	4c 89 ff             	mov    rdi,r15
  402a74:	41 83 e0 01          	and    r8d,0x1
  402a78:	41 ff d4             	call   r12
			assert(ret != -EBUSY);
  402a7b:	83 f8 f0             	cmp    eax,0xfffffff0
  402a7e:	0f 85 65 ff ff ff    	jne    4029e9 <sched_thd_yield_to+0x3c9>
  402a84:	e9 fb fd ff ff       	jmp    402884 <sched_thd_yield_to+0x264>
  402a89:	0f 1f 80 00 00 00 00 	nop    DWORD PTR [rax+0x0]
  402a90:	48 bf 40 f4 41 00 00 	movabs rdi,0x41f440
  402a97:	00 00 00 
  402a9a:	be 61 00 00 00       	mov    esi,0x61
  402a9f:	48 b8 10 b3 40 00 00 	movabs rax,0x40b310
  402aa6:	00 00 00 
  402aa9:	ff d0                	call   rax
		assert(ret == -EAGAIN);
  402aab:	c7 04 25 00 00 00 00 	mov    DWORD PTR ds:0x0,0x0
  402ab2:	00 00 00 00 
  402ab6:	0f 0b                	ud2    
  402ab8:	0f 1f 84 00 00 00 00 	nop    DWORD PTR [rax+rax*1+0x0]
  402abf:	00 

0000000000402ac0 <sched_set_tls>:
{
  402ac0:	f3 0f 1e fa          	endbr64 
	__asm__("mov %%rsp, %0;" : "=r"(curr_stk_pointer));
  402ac4:	48 89 e0             	mov    rax,rsp
	return *(long *)((curr_stk_pointer & ~(COS_STACK_SZ - 1)) + COS_STACK_SZ - offset * sizeof(unsigned long));
  402ac7:	48 25 00 e0 ff ff    	and    rax,0xffffffffffffe000
  402acd:	0f b7 80 f0 1f 00 00 	movzx  eax,WORD PTR [rax+0x1ff0]
SS_STATIC_SLAB(thd, struct slm_thd_container, MAX_NUM_THREADS);
  402ad4:	48 85 c0             	test   rax,rax
  402ad7:	0f 84 43 4e 01 00    	je     417920 <sched_set_tls.cold>
  402add:	83 e8 01             	sub    eax,0x1
  402ae0:	83 f8 18             	cmp    eax,0x18
  402ae3:	0f 87 37 4e 01 00    	ja     417920 <sched_set_tls.cold>
  402ae9:	48 ba 00 27 46 00 00 	movabs rdx,0x462700
  402af0:	00 00 00 
  402af3:	48 8b 14 c2          	mov    rdx,QWORD PTR [rdx+rax*8]
  402af7:	48 f7 c2 fe ff ff ff 	test   rdx,0xfffffffffffffffe
  402afe:	0f 84 1c 4e 01 00    	je     417920 <sched_set_tls.cold>
  402b04:	83 e2 01             	and    edx,0x1
  402b07:	0f 85 13 4e 01 00    	jne    417920 <sched_set_tls.cold>
	thdcap_t thdcap = current->thd;
  402b0d:	48 8d 14 80          	lea    rdx,[rax+rax*4]
	capmgr_set_tls(thdcap, tls_addr);
  402b11:	48 89 fe             	mov    rsi,rdi
	thdcap_t thdcap = current->thd;
  402b14:	48 8d 04 50          	lea    rax,[rax+rdx*2]
	capmgr_set_tls(thdcap, tls_addr);
  402b18:	48 ba c8 27 46 00 00 	movabs rdx,0x4627c8
  402b1f:	00 00 00 
	thdcap_t thdcap = current->thd;
  402b22:	48 c1 e0 04          	shl    rax,0x4
	capmgr_set_tls(thdcap, tls_addr);
  402b26:	4c 8b 44 02 10       	mov    r8,QWORD PTR [rdx+rax*1+0x10]
  402b2b:	48 b8 a0 85 40 00 00 	movabs rax,0x4085a0
  402b32:	00 00 00 
  402b35:	4c 89 c7             	mov    rdi,r8
  402b38:	ff e0                	jmp    rax
  402b3a:	66 0f 1f 44 00 00    	nop    WORD PTR [rax+rax*1+0x0]

0000000000402b40 <thd_block>:
{
  402b40:	f3 0f 1e fa          	endbr64 
  402b44:	55                   	push   rbp
	__asm__("mov %%rsp, %0;" : "=r"(curr_stk_pointer));
  402b45:	48 89 e0             	mov    rax,rsp
	return *(long *)((curr_stk_pointer & ~(COS_STACK_SZ - 1)) + COS_STACK_SZ - offset * sizeof(unsigned long));
  402b48:	48 25 00 e0 ff ff    	and    rax,0xffffffffffffe000
  402b4e:	48 89 e5             	mov    rbp,rsp
  402b51:	41 57                	push   r15
  402b53:	41 56                	push   r14
  402b55:	41 55                	push   r13
  402b57:	41 54                	push   r12
  402b59:	53                   	push   rbx
  402b5a:	48 83 ec 18          	sub    rsp,0x18
  402b5e:	0f b7 80 f0 1f 00 00 	movzx  eax,WORD PTR [rax+0x1ff0]
SS_STATIC_SLAB(thd, struct slm_thd_container, MAX_NUM_THREADS);
  402b65:	48 85 c0             	test   rax,rax
  402b68:	0f 84 ca 01 00 00    	je     402d38 <thd_block+0x1f8>
  402b6e:	83 e8 01             	sub    eax,0x1
  402b71:	83 f8 18             	cmp    eax,0x18
  402b74:	0f 87 be 01 00 00    	ja     402d38 <thd_block+0x1f8>
  402b7a:	48 ba 00 27 46 00 00 	movabs rdx,0x462700
  402b81:	00 00 00 
  402b84:	48 8b 0c c2          	mov    rcx,QWORD PTR [rdx+rax*8]
  402b88:	48 f7 c1 fe ff ff ff 	test   rcx,0xfffffffffffffffe
  402b8f:	0f 84 a3 01 00 00    	je     402d38 <thd_block+0x1f8>
  402b95:	83 e1 01             	and    ecx,0x1
  402b98:	0f 85 9a 01 00 00    	jne    402d38 <thd_block+0x1f8>
  402b9e:	48 bb d0 35 41 00 00 	movabs rbx,0x4135d0
  402ba5:	00 00 00 
  402ba8:	48 8d 0c 80          	lea    rcx,[rax+rax*4]
  402bac:	49 bf c0 5e 5a 00 00 	movabs r15,0x5a5ec0
  402bb3:	00 00 00 
			ret = slm_cs_enter_contention(cs, cached, current, owner, contended, tok);
  402bb6:	49 bc 50 5f 41 00 00 	movabs r12,0x415f50
  402bbd:	00 00 00 
  402bc0:	48 8d 04 48          	lea    rax,[rax+rcx*2]
  402bc4:	48 c1 e0 04          	shl    rax,0x4
  402bc8:	4c 8d b4 02 c8 00 00 	lea    r14,[rdx+rax*1+0xc8]
  402bcf:	00 
		tok    = cos_sched_sync();
  402bd0:	ff d3                	call   rbx
  402bd2:	41 89 c1             	mov    r9d,eax
	unsigned long oc = ps_load(&cs->owner_contention);
  402bd5:	49 8b 07             	mov    rax,QWORD PTR [r15]
		if (unlikely(owner)) {
  402bd8:	48 89 c1             	mov    rcx,rax
  402bdb:	48 83 e1 fe          	and    rcx,0xfffffffffffffffe
  402bdf:	0f 85 7b 01 00 00    	jne    402d60 <thd_block+0x220>
  402be5:	f0 4d 0f b1 37       	lock cmpxchg QWORD PTR [r15],r14
  402bea:	0f 94 c0             	sete   al
		if (likely(!__slm_cs_cas(cs, cached, current, 0))) return 0;
  402bed:	84 c0                	test   al,al
  402bef:	74 df                	je     402bd0 <thd_block+0x90>
        ret = slm_thd_block(current);
  402bf1:	48 b8 30 60 41 00 00 	movabs rax,0x416030
  402bf8:	00 00 00 
  402bfb:	4c 89 f7             	mov    rdi,r14
			if (!slm_cs_exit_contention(cs, current, cached, tok)) return;
  402bfe:	49 bc b0 5f 41 00 00 	movabs r12,0x415fb0
  402c05:	00 00 00 
  402c08:	ff d0                	call   rax
  402c0a:	41 89 c5             	mov    r13d,eax
	if (!ret) ret = slm_cs_exit_reschedule(current, SLM_CS_NONE);
  402c0d:	85 c0                	test   eax,eax
  402c0f:	0f 85 f7 00 00 00    	jne    402d0c <thd_block+0x1cc>
	struct cos_compinfo    *ci  = &cos_defcompinfo_curr_get()->ci;
  402c15:	48 b8 10 ce 40 00 00 	movabs rax,0x40ce10
  402c1c:	00 00 00 
  402c1f:	ff d0                	call   rax
	ret = cos_defswitch(t->thd, prio, timeout, tok);
  402c21:	4c 89 75 c8          	mov    QWORD PTR [rbp-0x38],r14
	tok  = cos_sched_sync();
  402c25:	ff d3                	call   rbx
  402c27:	41 89 c6             	mov    r14d,eax
SLM_MODULES_COMPOSE_FNS(quantum, fprr, static_cm);
  402c2a:	48 b8 50 48 41 00 00 	movabs rax,0x414850
  402c31:	00 00 00 
  402c34:	ff d0                	call   rax
	if (unlikely(!t)) t = &g->idle_thd;
  402c36:	48 85 c0             	test   rax,rax
  402c39:	49 89 c4             	mov    r12,rax
  402c3c:	48 b8 40 5f 5a 00 00 	movabs rax,0x5a5f40
  402c43:	00 00 00 
  402c46:	4c 0f 44 e0          	cmove  r12,rax
{ return s == SLM_THD_RUNNABLE || s == SLM_THD_WOKEN; }
  402c4a:	41 8b 44 24 04       	mov    eax,DWORD PTR [r12+0x4]
  402c4f:	83 e8 02             	sub    eax,0x2
	assert(slm_state_is_runnable(t->state));
  402c52:	83 f8 01             	cmp    eax,0x1
  402c55:	76 15                	jbe    402c6c <thd_block+0x12c>
  402c57:	e9 9c 01 00 00       	jmp    402df8 <thd_block+0x2b8>
  402c5c:	0f 1f 40 00          	nop    DWORD PTR [rax+0x0]
  402c60:	f0 49 0f b1 17       	lock cmpxchg QWORD PTR [r15],rdx
  402c65:	0f 94 c0             	sete   al
	while (ret != 0) {
  402c68:	84 c0                	test   al,al
  402c6a:	75 2c                	jne    402c98 <thd_block+0x158>
		tok    = cos_sched_sync();
  402c6c:	ff d3                	call   rbx
  402c6e:	89 c1                	mov    ecx,eax
	unsigned long oc = ps_load(&cs->owner_contention);
  402c70:	49 8b 07             	mov    rax,QWORD PTR [r15]
		if (unlikely(contention)) {
  402c73:	48 89 c2             	mov    rdx,rax
  402c76:	83 e2 01             	and    edx,0x1
  402c79:	74 e5                	je     402c60 <thd_block+0x120>
	*thd        = (struct slm_thd *)(oc & (~0UL << 1));
  402c7b:	48 89 c6             	mov    rsi,rax
			if (!slm_cs_exit_contention(cs, current, cached, tok)) return;
  402c7e:	48 89 c2             	mov    rdx,rax
  402c81:	4c 89 ff             	mov    rdi,r15
  402c84:	48 b8 b0 5f 41 00 00 	movabs rax,0x415fb0
  402c8b:	00 00 00 
  402c8e:	48 83 e6 fe          	and    rsi,0xfffffffffffffffe
  402c92:	ff d0                	call   rax
  402c94:	85 c0                	test   eax,eax
  402c96:	75 d4                	jne    402c6c <thd_block+0x12c>
	struct cos_defcompinfo *dci = cos_defcompinfo_curr_get();
  402c98:	48 b8 10 ce 40 00 00 	movabs rax,0x40ce10
  402c9f:	00 00 00 
  402ca2:	ff d0                	call   rax
	prio = inherit_prio ? curr->priority : t->priority;
  402ca4:	49 8b 74 24 30       	mov    rsi,QWORD PTR [r12+0x30]
	timeout = g->timeout_next;
  402ca9:	48 b8 c8 5f 5a 00 00 	movabs rax,0x5a5fc8
  402cb0:	00 00 00 
  402cb3:	4c 8b 00             	mov    r8,QWORD PTR [rax]
	if (unlikely(t->properties & (SLM_THD_PROPERTY_SEND | SLM_THD_PROPERTY_OWN_TCAP | SLM_THD_PROPERTY_SPECIAL))) {
  402cb6:	41 8b 04 24          	mov    eax,DWORD PTR [r12]
  402cba:	a8 0b                	test   al,0xb
  402cbc:	0f 85 5e 01 00 00    	jne    402e20 <thd_block+0x2e0>
	ret = cos_defswitch(t->thd, prio, timeout, tok);
  402cc2:	49 8b 7c 24 10       	mov    rdi,QWORD PTR [r12+0x10]
  402cc7:	44 89 f1             	mov    ecx,r14d
  402cca:	4c 89 c2             	mov    rdx,r8
  402ccd:	48 b8 70 e1 40 00 00 	movabs rax,0x40e170
  402cd4:	00 00 00 
  402cd7:	ff d0                	call   rax
	if (unlikely(ret == -EPERM && !slm_thd_normal(t))) {
  402cd9:	83 f8 ff             	cmp    eax,0xffffffff
  402cdc:	0f 84 cc 01 00 00    	je     402eae <thd_block+0x36e>
	if (unlikely(ret != 0)) {
  402ce2:	85 c0                	test   eax,eax
  402ce4:	0f 85 ba 00 00 00    	jne    402da4 <thd_block+0x264>
}
  402cea:	48 83 c4 18          	add    rsp,0x18
  402cee:	44 89 e8             	mov    eax,r13d
  402cf1:	5b                   	pop    rbx
  402cf2:	41 5c                	pop    r12
  402cf4:	41 5d                	pop    r13
  402cf6:	41 5e                	pop    r14
  402cf8:	41 5f                	pop    r15
  402cfa:	5d                   	pop    rbp
  402cfb:	c3                   	ret    
  402cfc:	0f 1f 40 00          	nop    DWORD PTR [rax+0x0]
  402d00:	f0 49 0f b1 17       	lock cmpxchg QWORD PTR [r15],rdx
  402d05:	0f 94 c0             	sete   al
	while (ret != 0) {
  402d08:	84 c0                	test   al,al
  402d0a:	75 de                	jne    402cea <thd_block+0x1aa>
		tok    = cos_sched_sync();
  402d0c:	ff d3                	call   rbx
  402d0e:	89 c1                	mov    ecx,eax
	unsigned long oc = ps_load(&cs->owner_contention);
  402d10:	49 8b 07             	mov    rax,QWORD PTR [r15]
		if (unlikely(contention)) {
  402d13:	48 89 c2             	mov    rdx,rax
  402d16:	83 e2 01             	and    edx,0x1
  402d19:	74 e5                	je     402d00 <thd_block+0x1c0>
	*thd        = (struct slm_thd *)(oc & (~0UL << 1));
  402d1b:	48 89 c6             	mov    rsi,rax
			if (!slm_cs_exit_contention(cs, current, cached, tok)) return;
  402d1e:	48 89 c2             	mov    rdx,rax
  402d21:	4c 89 ff             	mov    rdi,r15
  402d24:	48 83 e6 fe          	and    rsi,0xfffffffffffffffe
  402d28:	41 ff d4             	call   r12
  402d2b:	85 c0                	test   eax,eax
  402d2d:	74 bb                	je     402cea <thd_block+0x1aa>
  402d2f:	eb db                	jmp    402d0c <thd_block+0x1cc>
  402d31:	0f 1f 80 00 00 00 00 	nop    DWORD PTR [rax+0x0]
  402d38:	48 bf 20 f2 41 00 00 	movabs rdi,0x41f220
  402d3f:	00 00 00 
  402d42:	be 59 00 00 00       	mov    esi,0x59
  402d47:	48 b8 10 b3 40 00 00 	movabs rax,0x40b310
  402d4e:	00 00 00 
  402d51:	ff d0                	call   rax
	assert(current);
  402d53:	c7 04 25 00 00 00 00 	mov    DWORD PTR ds:0x0,0x0
  402d5a:	00 00 00 00 
  402d5e:	0f 0b                	ud2    
			ret = slm_cs_enter_contention(cs, cached, current, owner, contended, tok);
  402d60:	41 89 c0             	mov    r8d,eax
  402d63:	4c 89 f2             	mov    rdx,r14
  402d66:	48 89 c6             	mov    rsi,rax
  402d69:	4c 89 ff             	mov    rdi,r15
  402d6c:	41 83 e0 01          	and    r8d,0x1
  402d70:	41 ff d4             	call   r12
			assert(ret != -EBUSY);
  402d73:	83 f8 f0             	cmp    eax,0xfffffff0
  402d76:	0f 85 54 fe ff ff    	jne    402bd0 <thd_block+0x90>
  402d7c:	48 bf 80 f2 41 00 00 	movabs rdi,0x41f280
  402d83:	00 00 00 
  402d86:	be 59 00 00 00       	mov    esi,0x59
  402d8b:	48 b8 10 b3 40 00 00 	movabs rax,0x40b310
  402d92:	00 00 00 
  402d95:	ff d0                	call   rax
  402d97:	c7 04 25 00 00 00 00 	mov    DWORD PTR ds:0x0,0x0
  402d9e:	00 00 00 00 
  402da2:	0f 0b                	ud2    
		assert(ret != -EINVAL);
  402da4:	83 f8 ea             	cmp    eax,0xffffffea
  402da7:	0f 84 7f 01 00 00    	je     402f2c <thd_block+0x3ec>
		if (ret == -EBUSY) return ret;
  402dad:	83 f8 f0             	cmp    eax,0xfffffff0
  402db0:	0f 84 f2 01 00 00    	je     402fa8 <thd_block+0x468>
		assert(ret == -EAGAIN);
  402db6:	83 f8 f5             	cmp    eax,0xfffffff5
  402db9:	0f 85 c1 01 00 00    	jne    402f80 <thd_block+0x440>
			ret = slm_cs_enter_contention(cs, cached, current, owner, contended, tok);
  402dbf:	49 bc 50 5f 41 00 00 	movabs r12,0x415f50
  402dc6:	00 00 00 
		tok    = cos_sched_sync();
  402dc9:	ff d3                	call   rbx
  402dcb:	41 89 c1             	mov    r9d,eax
	unsigned long oc = ps_load(&cs->owner_contention);
  402dce:	49 8b 07             	mov    rax,QWORD PTR [r15]
		if (unlikely(owner)) {
  402dd1:	48 89 c1             	mov    rcx,rax
  402dd4:	48 83 e1 fe          	and    rcx,0xfffffffffffffffe
  402dd8:	0f 85 76 01 00 00    	jne    402f54 <thd_block+0x414>
  402dde:	48 8b 7d c8          	mov    rdi,QWORD PTR [rbp-0x38]
  402de2:	f0 49 0f b1 3f       	lock cmpxchg QWORD PTR [r15],rdi
  402de7:	0f 94 c0             	sete   al
		if (likely(!__slm_cs_cas(cs, cached, current, 0))) return 0;
  402dea:	84 c0                	test   al,al
  402dec:	0f 85 33 fe ff ff    	jne    402c25 <thd_block+0xe5>
  402df2:	eb d5                	jmp    402dc9 <thd_block+0x289>
  402df4:	0f 1f 40 00          	nop    DWORD PTR [rax+0x0]
  402df8:	48 bf 08 f3 41 00 00 	movabs rdi,0x41f308
  402dff:	00 00 00 
  402e02:	be 61 00 00 00       	mov    esi,0x61
  402e07:	48 b8 10 b3 40 00 00 	movabs rax,0x40b310
  402e0e:	00 00 00 
  402e11:	ff d0                	call   rax
	assert(slm_state_is_runnable(t->state));
  402e13:	c7 04 25 00 00 00 00 	mov    DWORD PTR ds:0x0,0x0
  402e1a:	00 00 00 00 
  402e1e:	0f 0b                	ud2    
		if (t == &g->sched_thd) {
  402e20:	48 ba c8 5e 5a 00 00 	movabs rdx,0x5a5ec8
  402e27:	00 00 00 
	timeout = g->timeout_next;
  402e2a:	4c 89 c1             	mov    rcx,r8
		if (t == &g->sched_thd) {
  402e2d:	49 39 d4             	cmp    r12,rdx
  402e30:	0f 84 be 00 00 00    	je     402ef4 <thd_block+0x3b4>
		if (t->properties & SLM_THD_PROPERTY_SEND) {
  402e36:	a8 02                	test   al,0x2
  402e38:	0f 85 c5 00 00 00    	jne    402f03 <thd_block+0x3c3>
		} else if (t->properties & SLM_THD_PROPERTY_OWN_TCAP) {
  402e3e:	49 89 c8             	mov    r8,rcx
  402e41:	a8 01                	test   al,0x1
  402e43:	0f 84 79 fe ff ff    	je     402cc2 <thd_block+0x182>
			return cos_switch(t->thd, t->tc, prio, timeout, g->sched_thd.rcv, tok);
  402e49:	4d 8b 54 24 08       	mov    r10,QWORD PTR [r12+0x8]
  402e4e:	48 89 f2             	mov    rdx,rsi
  402e51:	49 8b 7c 24 10       	mov    rdi,QWORD PTR [r12+0x10]
  402e56:	45 89 f1             	mov    r9d,r14d
  402e59:	48 b8 e8 5e 5a 00 00 	movabs rax,0x5a5ee8
  402e60:	00 00 00 
  402e63:	4c 8b 00             	mov    r8,QWORD PTR [rax]
  402e66:	48 b8 f0 35 41 00 00 	movabs rax,0x4135f0
  402e6d:	00 00 00 
  402e70:	4c 89 d6             	mov    rsi,r10
  402e73:	ff d0                	call   rax
	if (unlikely(ret != 0)) {
  402e75:	85 c0                	test   eax,eax
  402e77:	0f 84 6d fe ff ff    	je     402cea <thd_block+0x1aa>
		assert(ret != -EPERM);
  402e7d:	83 f8 ff             	cmp    eax,0xffffffff
  402e80:	0f 85 1e ff ff ff    	jne    402da4 <thd_block+0x264>
  402e86:	48 bf 70 f3 41 00 00 	movabs rdi,0x41f370
  402e8d:	00 00 00 
  402e90:	be 61 00 00 00       	mov    esi,0x61
  402e95:	48 b8 10 b3 40 00 00 	movabs rax,0x40b310
  402e9c:	00 00 00 
  402e9f:	ff d0                	call   rax
  402ea1:	c7 04 25 00 00 00 00 	mov    DWORD PTR ds:0x0,0x0
  402ea8:	00 00 00 00 
  402eac:	0f 0b                	ud2    
	return t != &g->idle_thd && t != &g->sched_thd;
  402eae:	48 b8 40 5f 5a 00 00 	movabs rax,0x5a5f40
  402eb5:	00 00 00 
  402eb8:	49 39 c4             	cmp    r12,rax
  402ebb:	74 09                	je     402ec6 <thd_block+0x386>
  402ebd:	48 83 e8 78          	sub    rax,0x78
  402ec1:	49 39 c4             	cmp    r12,rax
  402ec4:	75 c0                	jne    402e86 <thd_block+0x346>
		ret = cos_switch(g->sched_thd.thd, 0, curr->priority, TCAP_TIME_NIL, g->sched_thd.rcv, tok);
  402ec6:	48 8b 45 c8          	mov    rax,QWORD PTR [rbp-0x38]
  402eca:	45 89 f1             	mov    r9d,r14d
  402ecd:	31 c9                	xor    ecx,ecx
  402ecf:	31 f6                	xor    esi,esi
  402ed1:	48 8b 50 30          	mov    rdx,QWORD PTR [rax+0x30]
  402ed5:	48 b8 e8 5e 5a 00 00 	movabs rax,0x5a5ee8
  402edc:	00 00 00 
  402edf:	4c 8b 00             	mov    r8,QWORD PTR [rax]
  402ee2:	48 8b 78 f0          	mov    rdi,QWORD PTR [rax-0x10]
  402ee6:	48 b8 f0 35 41 00 00 	movabs rax,0x4135f0
  402eed:	00 00 00 
  402ef0:	ff d0                	call   rax
  402ef2:	eb 81                	jmp    402e75 <thd_block+0x335>
			prio    = curr->priority;
  402ef4:	48 8b 7d c8          	mov    rdi,QWORD PTR [rbp-0x38]
			timeout = TCAP_TIME_NIL;
  402ef8:	31 c9                	xor    ecx,ecx
			prio    = curr->priority;
  402efa:	48 8b 77 30          	mov    rsi,QWORD PTR [rdi+0x30]
  402efe:	e9 33 ff ff ff       	jmp    402e36 <thd_block+0x2f6>
			return cos_sched_asnd(t->asnd, g->timeout_next, g->sched_thd.rcv, tok);
  402f03:	48 b8 e8 5e 5a 00 00 	movabs rax,0x5a5ee8
  402f0a:	00 00 00 
  402f0d:	49 8b 7c 24 28       	mov    rdi,QWORD PTR [r12+0x28]
  402f12:	48 8b 10             	mov    rdx,QWORD PTR [rax]
  402f15:	44 89 f1             	mov    ecx,r14d
  402f18:	48 b8 60 36 41 00 00 	movabs rax,0x413660
  402f1f:	00 00 00 
  402f22:	4c 89 c6             	mov    rsi,r8
  402f25:	ff d0                	call   rax
  402f27:	e9 49 ff ff ff       	jmp    402e75 <thd_block+0x335>
  402f2c:	48 bf d8 f3 41 00 00 	movabs rdi,0x41f3d8
  402f33:	00 00 00 
  402f36:	be 61 00 00 00       	mov    esi,0x61
  402f3b:	48 b8 10 b3 40 00 00 	movabs rax,0x40b310
  402f42:	00 00 00 
  402f45:	ff d0                	call   rax
		assert(ret != -EINVAL);
  402f47:	c7 04 25 00 00 00 00 	mov    DWORD PTR ds:0x0,0x0
  402f4e:	00 00 00 00 
  402f52:	0f 0b                	ud2    
			ret = slm_cs_enter_contention(cs, cached, current, owner, contended, tok);
  402f54:	41 89 c0             	mov    r8d,eax
  402f57:	48 8b 55 c8          	mov    rdx,QWORD PTR [rbp-0x38]
  402f5b:	48 89 c6             	mov    rsi,rax
  402f5e:	4c 89 ff             	mov    rdi,r15
  402f61:	41 83 e0 01          	and    r8d,0x1
  402f65:	41 ff d4             	call   r12
			assert(ret != -EBUSY);
  402f68:	83 f8 f0             	cmp    eax,0xfffffff0
  402f6b:	0f 85 58 fe ff ff    	jne    402dc9 <thd_block+0x289>
  402f71:	e9 06 fe ff ff       	jmp    402d7c <thd_block+0x23c>
  402f76:	66 2e 0f 1f 84 00 00 	cs nop WORD PTR [rax+rax*1+0x0]
  402f7d:	00 00 00 
  402f80:	48 bf 40 f4 41 00 00 	movabs rdi,0x41f440
  402f87:	00 00 00 
  402f8a:	be 61 00 00 00       	mov    esi,0x61
  402f8f:	48 b8 10 b3 40 00 00 	movabs rax,0x40b310
  402f96:	00 00 00 
  402f99:	ff d0                	call   rax
		assert(ret == -EAGAIN);
  402f9b:	c7 04 25 00 00 00 00 	mov    DWORD PTR ds:0x0,0x0
  402fa2:	00 00 00 00 
  402fa6:	0f 0b                	ud2    
	ret = slm_thd_activate(curr, t, tok, 0);
  402fa8:	41 bd f0 ff ff ff    	mov    r13d,0xfffffff0
	return ret;
  402fae:	e9 37 fd ff ff       	jmp    402cea <thd_block+0x1aa>
  402fb3:	66 66 2e 0f 1f 84 00 	data16 cs nop WORD PTR [rax+rax*1+0x0]
  402fba:	00 00 00 00 
  402fbe:	66 90                	xchg   ax,ax

0000000000402fc0 <sched_thd_block>:
{
  402fc0:	f3 0f 1e fa          	endbr64 
  402fc4:	55                   	push   rbp
  402fc5:	48 89 e5             	mov    rbp,rsp
  402fc8:	41 57                	push   r15
  402fca:	41 56                	push   r14
  402fcc:	41 55                	push   r13
  402fce:	41 54                	push   r12
  402fd0:	53                   	push   rbx
  402fd1:	48 83 ec 18          	sub    rsp,0x18
	if (dep_id) return -1;
  402fd5:	48 85 ff             	test   rdi,rdi
  402fd8:	0f 85 a6 03 00 00    	jne    403384 <sched_thd_block+0x3c4>
	__asm__("mov %%rsp, %0;" : "=r"(curr_stk_pointer));
  402fde:	48 89 e0             	mov    rax,rsp
	return *(long *)((curr_stk_pointer & ~(COS_STACK_SZ - 1)) + COS_STACK_SZ - offset * sizeof(unsigned long));
  402fe1:	48 25 00 e0 ff ff    	and    rax,0xffffffffffffe000
  402fe7:	0f b7 80 f0 1f 00 00 	movzx  eax,WORD PTR [rax+0x1ff0]
SS_STATIC_SLAB(thd, struct slm_thd_container, MAX_NUM_THREADS);
  402fee:	48 85 c0             	test   rax,rax
  402ff1:	0f 84 c9 01 00 00    	je     4031c0 <sched_thd_block+0x200>
  402ff7:	83 e8 01             	sub    eax,0x1
  402ffa:	83 f8 18             	cmp    eax,0x18
  402ffd:	0f 87 bd 01 00 00    	ja     4031c0 <sched_thd_block+0x200>
  403003:	48 ba 00 27 46 00 00 	movabs rdx,0x462700
  40300a:	00 00 00 
  40300d:	48 8b 0c c2          	mov    rcx,QWORD PTR [rdx+rax*8]
  403011:	48 f7 c1 fe ff ff ff 	test   rcx,0xfffffffffffffffe
  403018:	0f 84 a2 01 00 00    	je     4031c0 <sched_thd_block+0x200>
  40301e:	83 e1 01             	and    ecx,0x1
  403021:	0f 85 99 01 00 00    	jne    4031c0 <sched_thd_block+0x200>
  403027:	48 bb d0 35 41 00 00 	movabs rbx,0x4135d0
  40302e:	00 00 00 
  403031:	48 8d 0c 80          	lea    rcx,[rax+rax*4]
  403035:	49 bf c0 5e 5a 00 00 	movabs r15,0x5a5ec0
  40303c:	00 00 00 
			ret = slm_cs_enter_contention(cs, cached, current, owner, contended, tok);
  40303f:	49 bc 50 5f 41 00 00 	movabs r12,0x415f50
  403046:	00 00 00 
  403049:	48 8d 04 48          	lea    rax,[rax+rcx*2]
  40304d:	48 c1 e0 04          	shl    rax,0x4
  403051:	4c 8d b4 02 c8 00 00 	lea    r14,[rdx+rax*1+0xc8]
  403058:	00 
		tok    = cos_sched_sync();
  403059:	ff d3                	call   rbx
  40305b:	41 89 c1             	mov    r9d,eax
	unsigned long oc = ps_load(&cs->owner_contention);
  40305e:	49 8b 07             	mov    rax,QWORD PTR [r15]
		if (unlikely(owner)) {
  403061:	48 89 c1             	mov    rcx,rax
  403064:	48 83 e1 fe          	and    rcx,0xfffffffffffffffe
  403068:	0f 85 82 01 00 00    	jne    4031f0 <sched_thd_block+0x230>
  40306e:	f0 4d 0f b1 37       	lock cmpxchg QWORD PTR [r15],r14
  403073:	0f 94 c0             	sete   al
		if (likely(!__slm_cs_cas(cs, cached, current, 0))) return 0;
  403076:	84 c0                	test   al,al
  403078:	74 df                	je     403059 <sched_thd_block+0x99>
        ret = slm_thd_block(current);
  40307a:	48 b8 30 60 41 00 00 	movabs rax,0x416030
  403081:	00 00 00 
  403084:	4c 89 f7             	mov    rdi,r14
			if (!slm_cs_exit_contention(cs, current, cached, tok)) return;
  403087:	49 bc b0 5f 41 00 00 	movabs r12,0x415fb0
  40308e:	00 00 00 
  403091:	ff d0                	call   rax
  403093:	41 89 c5             	mov    r13d,eax
	if (!ret) ret = slm_cs_exit_reschedule(current, SLM_CS_NONE);
  403096:	85 c0                	test   eax,eax
  403098:	0f 85 f6 00 00 00    	jne    403194 <sched_thd_block+0x1d4>
	struct cos_compinfo    *ci  = &cos_defcompinfo_curr_get()->ci;
  40309e:	48 b8 10 ce 40 00 00 	movabs rax,0x40ce10
  4030a5:	00 00 00 
  4030a8:	ff d0                	call   rax
	ret = cos_defswitch(t->thd, prio, timeout, tok);
  4030aa:	4c 89 75 c8          	mov    QWORD PTR [rbp-0x38],r14
	tok  = cos_sched_sync();
  4030ae:	ff d3                	call   rbx
  4030b0:	41 89 c6             	mov    r14d,eax
SLM_MODULES_COMPOSE_FNS(quantum, fprr, static_cm);
  4030b3:	48 b8 50 48 41 00 00 	movabs rax,0x414850
  4030ba:	00 00 00 
  4030bd:	ff d0                	call   rax
	if (unlikely(!t)) t = &g->idle_thd;
  4030bf:	48 85 c0             	test   rax,rax
  4030c2:	49 89 c4             	mov    r12,rax
  4030c5:	48 b8 40 5f 5a 00 00 	movabs rax,0x5a5f40
  4030cc:	00 00 00 
  4030cf:	4c 0f 44 e0          	cmove  r12,rax
{ return s == SLM_THD_RUNNABLE || s == SLM_THD_WOKEN; }
  4030d3:	41 8b 44 24 04       	mov    eax,DWORD PTR [r12+0x4]
  4030d8:	83 e8 02             	sub    eax,0x2
	assert(slm_state_is_runnable(t->state));
  4030db:	83 f8 01             	cmp    eax,0x1
  4030de:	76 14                	jbe    4030f4 <sched_thd_block+0x134>
  4030e0:	e9 a3 01 00 00       	jmp    403288 <sched_thd_block+0x2c8>
  4030e5:	0f 1f 00             	nop    DWORD PTR [rax]
  4030e8:	f0 49 0f b1 17       	lock cmpxchg QWORD PTR [r15],rdx
  4030ed:	0f 94 c0             	sete   al
	while (ret != 0) {
  4030f0:	84 c0                	test   al,al
  4030f2:	75 2c                	jne    403120 <sched_thd_block+0x160>
		tok    = cos_sched_sync();
  4030f4:	ff d3                	call   rbx
  4030f6:	89 c1                	mov    ecx,eax
	unsigned long oc = ps_load(&cs->owner_contention);
  4030f8:	49 8b 07             	mov    rax,QWORD PTR [r15]
		if (unlikely(contention)) {
  4030fb:	48 89 c2             	mov    rdx,rax
  4030fe:	83 e2 01             	and    edx,0x1
  403101:	74 e5                	je     4030e8 <sched_thd_block+0x128>
	*thd        = (struct slm_thd *)(oc & (~0UL << 1));
  403103:	48 89 c6             	mov    rsi,rax
			if (!slm_cs_exit_contention(cs, current, cached, tok)) return;
  403106:	48 89 c2             	mov    rdx,rax
  403109:	4c 89 ff             	mov    rdi,r15
  40310c:	48 b8 b0 5f 41 00 00 	movabs rax,0x415fb0
  403113:	00 00 00 
  403116:	48 83 e6 fe          	and    rsi,0xfffffffffffffffe
  40311a:	ff d0                	call   rax
  40311c:	85 c0                	test   eax,eax
  40311e:	75 d4                	jne    4030f4 <sched_thd_block+0x134>
	struct cos_defcompinfo *dci = cos_defcompinfo_curr_get();
  403120:	48 b8 10 ce 40 00 00 	movabs rax,0x40ce10
  403127:	00 00 00 
  40312a:	ff d0                	call   rax
	prio = inherit_prio ? curr->priority : t->priority;
  40312c:	49 8b 74 24 30       	mov    rsi,QWORD PTR [r12+0x30]
	timeout = g->timeout_next;
  403131:	48 b8 c8 5f 5a 00 00 	movabs rax,0x5a5fc8
  403138:	00 00 00 
  40313b:	4c 8b 00             	mov    r8,QWORD PTR [rax]
	if (unlikely(t->properties & (SLM_THD_PROPERTY_SEND | SLM_THD_PROPERTY_OWN_TCAP | SLM_THD_PROPERTY_SPECIAL))) {
  40313e:	41 8b 04 24          	mov    eax,DWORD PTR [r12]
  403142:	a8 0b                	test   al,0xb
  403144:	0f 85 66 01 00 00    	jne    4032b0 <sched_thd_block+0x2f0>
	ret = cos_defswitch(t->thd, prio, timeout, tok);
  40314a:	49 8b 7c 24 10       	mov    rdi,QWORD PTR [r12+0x10]
  40314f:	44 89 f1             	mov    ecx,r14d
  403152:	4c 89 c2             	mov    rdx,r8
  403155:	48 b8 70 e1 40 00 00 	movabs rax,0x40e170
  40315c:	00 00 00 
  40315f:	ff d0                	call   rax
	if (unlikely(ret == -EPERM && !slm_thd_normal(t))) {
  403161:	83 f8 ff             	cmp    eax,0xffffffff
  403164:	0f 84 d4 01 00 00    	je     40333e <sched_thd_block+0x37e>
	if (unlikely(ret != 0)) {
  40316a:	85 c0                	test   eax,eax
  40316c:	0f 85 c2 00 00 00    	jne    403234 <sched_thd_block+0x274>
}
  403172:	48 83 c4 18          	add    rsp,0x18
  403176:	44 89 e8             	mov    eax,r13d
  403179:	5b                   	pop    rbx
  40317a:	41 5c                	pop    r12
  40317c:	41 5d                	pop    r13
  40317e:	41 5e                	pop    r14
  403180:	41 5f                	pop    r15
  403182:	5d                   	pop    rbp
  403183:	c3                   	ret    
  403184:	0f 1f 40 00          	nop    DWORD PTR [rax+0x0]
  403188:	f0 49 0f b1 17       	lock cmpxchg QWORD PTR [r15],rdx
  40318d:	0f 94 c0             	sete   al
	while (ret != 0) {
  403190:	84 c0                	test   al,al
  403192:	75 de                	jne    403172 <sched_thd_block+0x1b2>
		tok    = cos_sched_sync();
  403194:	ff d3                	call   rbx
  403196:	89 c1                	mov    ecx,eax
	unsigned long oc = ps_load(&cs->owner_contention);
  403198:	49 8b 07             	mov    rax,QWORD PTR [r15]
		if (unlikely(contention)) {
  40319b:	48 89 c2             	mov    rdx,rax
  40319e:	83 e2 01             	and    edx,0x1
  4031a1:	74 e5                	je     403188 <sched_thd_block+0x1c8>
	*thd        = (struct slm_thd *)(oc & (~0UL << 1));
  4031a3:	48 89 c6             	mov    rsi,rax
			if (!slm_cs_exit_contention(cs, current, cached, tok)) return;
  4031a6:	48 89 c2             	mov    rdx,rax
  4031a9:	4c 89 ff             	mov    rdi,r15
  4031ac:	48 83 e6 fe          	and    rsi,0xfffffffffffffffe
  4031b0:	41 ff d4             	call   r12
  4031b3:	85 c0                	test   eax,eax
  4031b5:	74 bb                	je     403172 <sched_thd_block+0x1b2>
  4031b7:	eb db                	jmp    403194 <sched_thd_block+0x1d4>
  4031b9:	0f 1f 80 00 00 00 00 	nop    DWORD PTR [rax+0x0]
  4031c0:	48 bf 20 f2 41 00 00 	movabs rdi,0x41f220
  4031c7:	00 00 00 
  4031ca:	be 59 00 00 00       	mov    esi,0x59
  4031cf:	48 b8 10 b3 40 00 00 	movabs rax,0x40b310
  4031d6:	00 00 00 
  4031d9:	ff d0                	call   rax
	assert(current);
  4031db:	c7 04 25 00 00 00 00 	mov    DWORD PTR ds:0x0,0x0
  4031e2:	00 00 00 00 
  4031e6:	0f 0b                	ud2    
  4031e8:	0f 1f 84 00 00 00 00 	nop    DWORD PTR [rax+rax*1+0x0]
  4031ef:	00 
			ret = slm_cs_enter_contention(cs, cached, current, owner, contended, tok);
  4031f0:	41 89 c0             	mov    r8d,eax
  4031f3:	4c 89 f2             	mov    rdx,r14
  4031f6:	48 89 c6             	mov    rsi,rax
  4031f9:	4c 89 ff             	mov    rdi,r15
  4031fc:	41 83 e0 01          	and    r8d,0x1
  403200:	41 ff d4             	call   r12
			assert(ret != -EBUSY);
  403203:	83 f8 f0             	cmp    eax,0xfffffff0
  403206:	0f 85 4d fe ff ff    	jne    403059 <sched_thd_block+0x99>
  40320c:	48 bf 80 f2 41 00 00 	movabs rdi,0x41f280
  403213:	00 00 00 
  403216:	be 59 00 00 00       	mov    esi,0x59
  40321b:	48 b8 10 b3 40 00 00 	movabs rax,0x40b310
  403222:	00 00 00 
  403225:	ff d0                	call   rax
  403227:	c7 04 25 00 00 00 00 	mov    DWORD PTR ds:0x0,0x0
  40322e:	00 00 00 00 
  403232:	0f 0b                	ud2    
		assert(ret != -EINVAL);
  403234:	83 f8 ea             	cmp    eax,0xffffffea
  403237:	0f 84 8a 01 00 00    	je     4033c7 <sched_thd_block+0x407>
		if (ret == -EBUSY) return ret;
  40323d:	83 f8 f0             	cmp    eax,0xfffffff0
  403240:	0f 84 fa 01 00 00    	je     403440 <sched_thd_block+0x480>
		assert(ret == -EAGAIN);
  403246:	83 f8 f5             	cmp    eax,0xfffffff5
  403249:	0f 85 c9 01 00 00    	jne    403418 <sched_thd_block+0x458>
			ret = slm_cs_enter_contention(cs, cached, current, owner, contended, tok);
  40324f:	49 bc 50 5f 41 00 00 	movabs r12,0x415f50
  403256:	00 00 00 
		tok    = cos_sched_sync();
  403259:	ff d3                	call   rbx
  40325b:	41 89 c1             	mov    r9d,eax
	unsigned long oc = ps_load(&cs->owner_contention);
  40325e:	49 8b 07             	mov    rax,QWORD PTR [r15]
		if (unlikely(owner)) {
  403261:	48 89 c1             	mov    rcx,rax
  403264:	48 83 e1 fe          	and    rcx,0xfffffffffffffffe
  403268:	0f 85 81 01 00 00    	jne    4033ef <sched_thd_block+0x42f>
  40326e:	48 8b 75 c8          	mov    rsi,QWORD PTR [rbp-0x38]
  403272:	f0 49 0f b1 37       	lock cmpxchg QWORD PTR [r15],rsi
  403277:	0f 94 c0             	sete   al
		if (likely(!__slm_cs_cas(cs, cached, current, 0))) return 0;
  40327a:	84 c0                	test   al,al
  40327c:	0f 85 2c fe ff ff    	jne    4030ae <sched_thd_block+0xee>
  403282:	eb d5                	jmp    403259 <sched_thd_block+0x299>
  403284:	0f 1f 40 00          	nop    DWORD PTR [rax+0x0]
  403288:	48 bf 08 f3 41 00 00 	movabs rdi,0x41f308
  40328f:	00 00 00 
  403292:	be 61 00 00 00       	mov    esi,0x61
  403297:	48 b8 10 b3 40 00 00 	movabs rax,0x40b310
  40329e:	00 00 00 
  4032a1:	ff d0                	call   rax
	assert(slm_state_is_runnable(t->state));
  4032a3:	c7 04 25 00 00 00 00 	mov    DWORD PTR ds:0x0,0x0
  4032aa:	00 00 00 00 
  4032ae:	0f 0b                	ud2    
		if (t == &g->sched_thd) {
  4032b0:	48 ba c8 5e 5a 00 00 	movabs rdx,0x5a5ec8
  4032b7:	00 00 00 
	timeout = g->timeout_next;
  4032ba:	4c 89 c1             	mov    rcx,r8
		if (t == &g->sched_thd) {
  4032bd:	49 39 d4             	cmp    r12,rdx
  4032c0:	0f 84 c9 00 00 00    	je     40338f <sched_thd_block+0x3cf>
		if (t->properties & SLM_THD_PROPERTY_SEND) {
  4032c6:	a8 02                	test   al,0x2
  4032c8:	0f 85 d0 00 00 00    	jne    40339e <sched_thd_block+0x3de>
		} else if (t->properties & SLM_THD_PROPERTY_OWN_TCAP) {
  4032ce:	49 89 c8             	mov    r8,rcx
  4032d1:	a8 01                	test   al,0x1
  4032d3:	0f 84 71 fe ff ff    	je     40314a <sched_thd_block+0x18a>
			return cos_switch(t->thd, t->tc, prio, timeout, g->sched_thd.rcv, tok);
  4032d9:	4d 8b 54 24 08       	mov    r10,QWORD PTR [r12+0x8]
  4032de:	48 89 f2             	mov    rdx,rsi
  4032e1:	49 8b 7c 24 10       	mov    rdi,QWORD PTR [r12+0x10]
  4032e6:	45 89 f1             	mov    r9d,r14d
  4032e9:	48 b8 e8 5e 5a 00 00 	movabs rax,0x5a5ee8
  4032f0:	00 00 00 
  4032f3:	4c 8b 00             	mov    r8,QWORD PTR [rax]
  4032f6:	48 b8 f0 35 41 00 00 	movabs rax,0x4135f0
  4032fd:	00 00 00 
  403300:	4c 89 d6             	mov    rsi,r10
  403303:	ff d0                	call   rax
	if (unlikely(ret != 0)) {
  403305:	85 c0                	test   eax,eax
  403307:	0f 84 65 fe ff ff    	je     403172 <sched_thd_block+0x1b2>
		assert(ret != -EPERM);
  40330d:	83 f8 ff             	cmp    eax,0xffffffff
  403310:	0f 85 1e ff ff ff    	jne    403234 <sched_thd_block+0x274>
  403316:	48 bf 70 f3 41 00 00 	movabs rdi,0x41f370
  40331d:	00 00 00 
  403320:	be 61 00 00 00       	mov    esi,0x61
  403325:	48 b8 10 b3 40 00 00 	movabs rax,0x40b310
  40332c:	00 00 00 
  40332f:	ff d0                	call   rax
  403331:	c7 04 25 00 00 00 00 	mov    DWORD PTR ds:0x0,0x0
  403338:	00 00 00 00 
  40333c:	0f 0b                	ud2    
	return t != &g->idle_thd && t != &g->sched_thd;
  40333e:	48 b8 40 5f 5a 00 00 	movabs rax,0x5a5f40
  403345:	00 00 00 
  403348:	49 39 c4             	cmp    r12,rax
  40334b:	74 09                	je     403356 <sched_thd_block+0x396>
  40334d:	48 83 e8 78          	sub    rax,0x78
  403351:	49 39 c4             	cmp    r12,rax
  403354:	75 c0                	jne    403316 <sched_thd_block+0x356>
		ret = cos_switch(g->sched_thd.thd, 0, curr->priority, TCAP_TIME_NIL, g->sched_thd.rcv, tok);
  403356:	48 8b 45 c8          	mov    rax,QWORD PTR [rbp-0x38]
  40335a:	45 89 f1             	mov    r9d,r14d
  40335d:	31 c9                	xor    ecx,ecx
  40335f:	31 f6                	xor    esi,esi
  403361:	48 8b 50 30          	mov    rdx,QWORD PTR [rax+0x30]
  403365:	48 b8 e8 5e 5a 00 00 	movabs rax,0x5a5ee8
  40336c:	00 00 00 
  40336f:	4c 8b 00             	mov    r8,QWORD PTR [rax]
  403372:	48 8b 78 f0          	mov    rdi,QWORD PTR [rax-0x10]
  403376:	48 b8 f0 35 41 00 00 	movabs rax,0x4135f0
  40337d:	00 00 00 
  403380:	ff d0                	call   rax
  403382:	eb 81                	jmp    403305 <sched_thd_block+0x345>
	if (dep_id) return -1;
  403384:	41 bd ff ff ff ff    	mov    r13d,0xffffffff
  40338a:	e9 e3 fd ff ff       	jmp    403172 <sched_thd_block+0x1b2>
			prio    = curr->priority;
  40338f:	48 8b 75 c8          	mov    rsi,QWORD PTR [rbp-0x38]
			timeout = TCAP_TIME_NIL;
  403393:	31 c9                	xor    ecx,ecx
			prio    = curr->priority;
  403395:	48 8b 76 30          	mov    rsi,QWORD PTR [rsi+0x30]
  403399:	e9 28 ff ff ff       	jmp    4032c6 <sched_thd_block+0x306>
			return cos_sched_asnd(t->asnd, g->timeout_next, g->sched_thd.rcv, tok);
  40339e:	48 b8 e8 5e 5a 00 00 	movabs rax,0x5a5ee8
  4033a5:	00 00 00 
  4033a8:	49 8b 7c 24 28       	mov    rdi,QWORD PTR [r12+0x28]
  4033ad:	48 8b 10             	mov    rdx,QWORD PTR [rax]
  4033b0:	44 89 f1             	mov    ecx,r14d
  4033b3:	48 b8 60 36 41 00 00 	movabs rax,0x413660
  4033ba:	00 00 00 
  4033bd:	4c 89 c6             	mov    rsi,r8
  4033c0:	ff d0                	call   rax
  4033c2:	e9 3e ff ff ff       	jmp    403305 <sched_thd_block+0x345>
  4033c7:	48 bf d8 f3 41 00 00 	movabs rdi,0x41f3d8
  4033ce:	00 00 00 
  4033d1:	be 61 00 00 00       	mov    esi,0x61
  4033d6:	48 b8 10 b3 40 00 00 	movabs rax,0x40b310
  4033dd:	00 00 00 
  4033e0:	ff d0                	call   rax
		assert(ret != -EINVAL);
  4033e2:	c7 04 25 00 00 00 00 	mov    DWORD PTR ds:0x0,0x0
  4033e9:	00 00 00 00 
  4033ed:	0f 0b                	ud2    
			ret = slm_cs_enter_contention(cs, cached, current, owner, contended, tok);
  4033ef:	41 89 c0             	mov    r8d,eax
  4033f2:	48 8b 55 c8          	mov    rdx,QWORD PTR [rbp-0x38]
  4033f6:	48 89 c6             	mov    rsi,rax
  4033f9:	4c 89 ff             	mov    rdi,r15
  4033fc:	41 83 e0 01          	and    r8d,0x1
  403400:	41 ff d4             	call   r12
			assert(ret != -EBUSY);
  403403:	83 f8 f0             	cmp    eax,0xfffffff0
  403406:	0f 85 4d fe ff ff    	jne    403259 <sched_thd_block+0x299>
  40340c:	e9 fb fd ff ff       	jmp    40320c <sched_thd_block+0x24c>
  403411:	0f 1f 80 00 00 00 00 	nop    DWORD PTR [rax+0x0]
  403418:	48 bf 40 f4 41 00 00 	movabs rdi,0x41f440
  40341f:	00 00 00 
  403422:	be 61 00 00 00       	mov    esi,0x61
  403427:	48 b8 10 b3 40 00 00 	movabs rax,0x40b310
  40342e:	00 00 00 
  403431:	ff d0                	call   rax
		assert(ret == -EAGAIN);
  403433:	c7 04 25 00 00 00 00 	mov    DWORD PTR ds:0x0,0x0
  40343a:	00 00 00 00 
  40343e:	0f 0b                	ud2    
	ret = slm_thd_activate(curr, t, tok, 0);
  403440:	41 bd f0 ff ff ff    	mov    r13d,0xfffffff0
  403446:	e9 27 fd ff ff       	jmp    403172 <sched_thd_block+0x1b2>
  40344b:	0f 1f 44 00 00       	nop    DWORD PTR [rax+rax*1+0x0]

0000000000403450 <thd_wakeup>:
{
  403450:	f3 0f 1e fa          	endbr64 
  403454:	55                   	push   rbp
	__asm__("mov %%rsp, %0;" : "=r"(curr_stk_pointer));
  403455:	48 89 e0             	mov    rax,rsp
	return *(long *)((curr_stk_pointer & ~(COS_STACK_SZ - 1)) + COS_STACK_SZ - offset * sizeof(unsigned long));
  403458:	48 25 00 e0 ff ff    	and    rax,0xffffffffffffe000
  40345e:	48 89 e5             	mov    rbp,rsp
  403461:	41 57                	push   r15
  403463:	41 56                	push   r14
  403465:	41 55                	push   r13
  403467:	41 54                	push   r12
  403469:	53                   	push   rbx
  40346a:	48 83 ec 08          	sub    rsp,0x8
  40346e:	0f b7 80 f0 1f 00 00 	movzx  eax,WORD PTR [rax+0x1ff0]
SS_STATIC_SLAB(thd, struct slm_thd_container, MAX_NUM_THREADS);
  403475:	48 85 c0             	test   rax,rax
  403478:	0f 84 da 01 00 00    	je     403658 <thd_wakeup+0x208>
  40347e:	83 e8 01             	sub    eax,0x1
  403481:	83 f8 18             	cmp    eax,0x18
  403484:	0f 87 ce 01 00 00    	ja     403658 <thd_wakeup+0x208>
  40348a:	48 ba 00 27 46 00 00 	movabs rdx,0x462700
  403491:	00 00 00 
  403494:	48 8b 0c c2          	mov    rcx,QWORD PTR [rdx+rax*8]
  403498:	48 f7 c1 fe ff ff ff 	test   rcx,0xfffffffffffffffe
  40349f:	0f 84 b3 01 00 00    	je     403658 <thd_wakeup+0x208>
  4034a5:	83 e1 01             	and    ecx,0x1
  4034a8:	0f 85 aa 01 00 00    	jne    403658 <thd_wakeup+0x208>
  4034ae:	48 8d 0c 80          	lea    rcx,[rax+rax*4]
  4034b2:	49 89 fc             	mov    r12,rdi
  4034b5:	48 bb d0 35 41 00 00 	movabs rbx,0x4135d0
  4034bc:	00 00 00 
  4034bf:	49 bf c0 5e 5a 00 00 	movabs r15,0x5a5ec0
  4034c6:	00 00 00 
			ret = slm_cs_enter_contention(cs, cached, current, owner, contended, tok);
  4034c9:	49 be 50 5f 41 00 00 	movabs r14,0x415f50
  4034d0:	00 00 00 
  4034d3:	48 8d 04 48          	lea    rax,[rax+rcx*2]
  4034d7:	48 c1 e0 04          	shl    rax,0x4
  4034db:	4c 8d ac 02 c8 00 00 	lea    r13,[rdx+rax*1+0xc8]
  4034e2:	00 
		tok    = cos_sched_sync();
  4034e3:	ff d3                	call   rbx
  4034e5:	41 89 c1             	mov    r9d,eax
	unsigned long oc = ps_load(&cs->owner_contention);
  4034e8:	49 8b 07             	mov    rax,QWORD PTR [r15]
		if (unlikely(owner)) {
  4034eb:	48 89 c1             	mov    rcx,rax
  4034ee:	48 83 e1 fe          	and    rcx,0xfffffffffffffffe
  4034f2:	0f 85 88 01 00 00    	jne    403680 <thd_wakeup+0x230>
  4034f8:	f0 4d 0f b1 2f       	lock cmpxchg QWORD PTR [r15],r13
  4034fd:	0f 94 c0             	sete   al
		if (likely(!__slm_cs_cas(cs, cached, current, 0))) return 0;
  403500:	84 c0                	test   al,al
  403502:	74 df                	je     4034e3 <thd_wakeup+0x93>
	ret = slm_thd_wakeup(t, 0);
  403504:	48 b8 c0 66 41 00 00 	movabs rax,0x4166c0
  40350b:	00 00 00 
  40350e:	31 f6                	xor    esi,esi
  403510:	4c 89 e7             	mov    rdi,r12
  403513:	ff d0                	call   rax
  403515:	41 89 c6             	mov    r14d,eax
	if (ret < 0) {
  403518:	85 c0                	test   eax,eax
  40351a:	0f 88 f0 00 00 00    	js     403610 <thd_wakeup+0x1c0>
	struct cos_compinfo    *ci  = &cos_defcompinfo_curr_get()->ci;
  403520:	48 b8 10 ce 40 00 00 	movabs rax,0x40ce10
  403527:	00 00 00 
  40352a:	ff d0                	call   rax
	tok  = cos_sched_sync();
  40352c:	ff d3                	call   rbx
  40352e:	41 89 c6             	mov    r14d,eax
SLM_MODULES_COMPOSE_FNS(quantum, fprr, static_cm);
  403531:	48 b8 50 48 41 00 00 	movabs rax,0x414850
  403538:	00 00 00 
  40353b:	ff d0                	call   rax
	if (unlikely(!t)) t = &g->idle_thd;
  40353d:	48 85 c0             	test   rax,rax
  403540:	49 89 c4             	mov    r12,rax
  403543:	48 b8 40 5f 5a 00 00 	movabs rax,0x5a5f40
  40354a:	00 00 00 
  40354d:	4c 0f 44 e0          	cmove  r12,rax
{ return s == SLM_THD_RUNNABLE || s == SLM_THD_WOKEN; }
  403551:	41 8b 44 24 04       	mov    eax,DWORD PTR [r12+0x4]
  403556:	83 e8 02             	sub    eax,0x2
	assert(slm_state_is_runnable(t->state));
  403559:	83 f8 01             	cmp    eax,0x1
  40355c:	76 16                	jbe    403574 <thd_wakeup+0x124>
  40355e:	e9 61 01 00 00       	jmp    4036c4 <thd_wakeup+0x274>
  403563:	0f 1f 44 00 00       	nop    DWORD PTR [rax+rax*1+0x0]
  403568:	f0 49 0f b1 17       	lock cmpxchg QWORD PTR [r15],rdx
  40356d:	0f 94 c0             	sete   al
	while (ret != 0) {
  403570:	84 c0                	test   al,al
  403572:	75 2c                	jne    4035a0 <thd_wakeup+0x150>
		tok    = cos_sched_sync();
  403574:	ff d3                	call   rbx
  403576:	89 c1                	mov    ecx,eax
	unsigned long oc = ps_load(&cs->owner_contention);
  403578:	49 8b 07             	mov    rax,QWORD PTR [r15]
		if (unlikely(contention)) {
  40357b:	48 89 c2             	mov    rdx,rax
  40357e:	83 e2 01             	and    edx,0x1
  403581:	74 e5                	je     403568 <thd_wakeup+0x118>
	*thd        = (struct slm_thd *)(oc & (~0UL << 1));
  403583:	48 89 c6             	mov    rsi,rax
			if (!slm_cs_exit_contention(cs, current, cached, tok)) return;
  403586:	48 89 c2             	mov    rdx,rax
  403589:	4c 89 ff             	mov    rdi,r15
  40358c:	48 b8 b0 5f 41 00 00 	movabs rax,0x415fb0
  403593:	00 00 00 
  403596:	48 83 e6 fe          	and    rsi,0xfffffffffffffffe
  40359a:	ff d0                	call   rax
  40359c:	85 c0                	test   eax,eax
  40359e:	75 d4                	jne    403574 <thd_wakeup+0x124>
	struct cos_defcompinfo *dci = cos_defcompinfo_curr_get();
  4035a0:	48 b8 10 ce 40 00 00 	movabs rax,0x40ce10
  4035a7:	00 00 00 
  4035aa:	ff d0                	call   rax
	prio = inherit_prio ? curr->priority : t->priority;
  4035ac:	49 8b 74 24 30       	mov    rsi,QWORD PTR [r12+0x30]
	timeout = g->timeout_next;
  4035b1:	48 b8 c8 5f 5a 00 00 	movabs rax,0x5a5fc8
  4035b8:	00 00 00 
  4035bb:	4c 8b 00             	mov    r8,QWORD PTR [rax]
	if (unlikely(t->properties & (SLM_THD_PROPERTY_SEND | SLM_THD_PROPERTY_OWN_TCAP | SLM_THD_PROPERTY_SPECIAL))) {
  4035be:	41 8b 04 24          	mov    eax,DWORD PTR [r12]
  4035c2:	a8 0b                	test   al,0xb
  4035c4:	0f 85 22 01 00 00    	jne    4036ec <thd_wakeup+0x29c>
	ret = cos_defswitch(t->thd, prio, timeout, tok);
  4035ca:	49 8b 7c 24 10       	mov    rdi,QWORD PTR [r12+0x10]
  4035cf:	44 89 f1             	mov    ecx,r14d
  4035d2:	4c 89 c2             	mov    rdx,r8
  4035d5:	48 b8 70 e1 40 00 00 	movabs rax,0x40e170
  4035dc:	00 00 00 
  4035df:	ff d0                	call   rax
	if (unlikely(ret == -EPERM && !slm_thd_normal(t))) {
  4035e1:	83 f8 ff             	cmp    eax,0xffffffff
  4035e4:	0f 84 b6 01 00 00    	je     4037a0 <thd_wakeup+0x350>
	if (unlikely(ret != 0)) {
  4035ea:	85 c0                	test   eax,eax
  4035ec:	0f 85 5c 01 00 00    	jne    40374e <thd_wakeup+0x2fe>
  4035f2:	45 31 f6             	xor    r14d,r14d
}
  4035f5:	48 83 c4 08          	add    rsp,0x8
  4035f9:	44 89 f0             	mov    eax,r14d
  4035fc:	5b                   	pop    rbx
  4035fd:	41 5c                	pop    r12
  4035ff:	41 5d                	pop    r13
  403601:	41 5e                	pop    r14
  403603:	41 5f                	pop    r15
  403605:	5d                   	pop    rbp
  403606:	c3                   	ret    
  403607:	66 0f 1f 84 00 00 00 	nop    WORD PTR [rax+rax*1+0x0]
  40360e:	00 00 
  403610:	49 bc b0 5f 41 00 00 	movabs r12,0x415fb0
  403617:	00 00 00 
  40361a:	eb 10                	jmp    40362c <thd_wakeup+0x1dc>
  40361c:	0f 1f 40 00          	nop    DWORD PTR [rax+0x0]
  403620:	f0 49 0f b1 17       	lock cmpxchg QWORD PTR [r15],rdx
  403625:	0f 94 c0             	sete   al
	while (ret != 0) {
  403628:	84 c0                	test   al,al
  40362a:	75 c9                	jne    4035f5 <thd_wakeup+0x1a5>
		tok    = cos_sched_sync();
  40362c:	ff d3                	call   rbx
  40362e:	89 c1                	mov    ecx,eax
	unsigned long oc = ps_load(&cs->owner_contention);
  403630:	49 8b 07             	mov    rax,QWORD PTR [r15]
		if (unlikely(contention)) {
  403633:	48 89 c2             	mov    rdx,rax
  403636:	83 e2 01             	and    edx,0x1
  403639:	74 e5                	je     403620 <thd_wakeup+0x1d0>
	*thd        = (struct slm_thd *)(oc & (~0UL << 1));
  40363b:	48 89 c6             	mov    rsi,rax
			if (!slm_cs_exit_contention(cs, current, cached, tok)) return;
  40363e:	48 89 c2             	mov    rdx,rax
  403641:	4c 89 ff             	mov    rdi,r15
  403644:	48 83 e6 fe          	and    rsi,0xfffffffffffffffe
  403648:	41 ff d4             	call   r12
  40364b:	85 c0                	test   eax,eax
  40364d:	74 a6                	je     4035f5 <thd_wakeup+0x1a5>
  40364f:	eb db                	jmp    40362c <thd_wakeup+0x1dc>
  403651:	0f 1f 80 00 00 00 00 	nop    DWORD PTR [rax+0x0]
  403658:	48 bf 20 f2 41 00 00 	movabs rdi,0x41f220
  40365f:	00 00 00 
  403662:	be 59 00 00 00       	mov    esi,0x59
  403667:	48 b8 10 b3 40 00 00 	movabs rax,0x40b310
  40366e:	00 00 00 
  403671:	ff d0                	call   rax
	assert(current);
  403673:	c7 04 25 00 00 00 00 	mov    DWORD PTR ds:0x0,0x0
  40367a:	00 00 00 00 
  40367e:	0f 0b                	ud2    
			ret = slm_cs_enter_contention(cs, cached, current, owner, contended, tok);
  403680:	41 89 c0             	mov    r8d,eax
  403683:	4c 89 ea             	mov    rdx,r13
  403686:	48 89 c6             	mov    rsi,rax
  403689:	4c 89 ff             	mov    rdi,r15
  40368c:	41 83 e0 01          	and    r8d,0x1
  403690:	41 ff d6             	call   r14
			assert(ret != -EBUSY);
  403693:	83 f8 f0             	cmp    eax,0xfffffff0
  403696:	0f 85 47 fe ff ff    	jne    4034e3 <thd_wakeup+0x93>
  40369c:	48 bf 80 f2 41 00 00 	movabs rdi,0x41f280
  4036a3:	00 00 00 
  4036a6:	be 59 00 00 00       	mov    esi,0x59
  4036ab:	48 b8 10 b3 40 00 00 	movabs rax,0x40b310
  4036b2:	00 00 00 
  4036b5:	ff d0                	call   rax
  4036b7:	c7 04 25 00 00 00 00 	mov    DWORD PTR ds:0x0,0x0
  4036be:	00 00 00 00 
  4036c2:	0f 0b                	ud2    
  4036c4:	48 bf 08 f3 41 00 00 	movabs rdi,0x41f308
  4036cb:	00 00 00 
  4036ce:	be 61 00 00 00       	mov    esi,0x61
  4036d3:	48 b8 10 b3 40 00 00 	movabs rax,0x40b310
  4036da:	00 00 00 
  4036dd:	ff d0                	call   rax
	assert(slm_state_is_runnable(t->state));
  4036df:	c7 04 25 00 00 00 00 	mov    DWORD PTR ds:0x0,0x0
  4036e6:	00 00 00 00 
  4036ea:	0f 0b                	ud2    
		if (t == &g->sched_thd) {
  4036ec:	48 ba c8 5e 5a 00 00 	movabs rdx,0x5a5ec8
  4036f3:	00 00 00 
	timeout = g->timeout_next;
  4036f6:	4c 89 c1             	mov    rcx,r8
		if (t == &g->sched_thd) {
  4036f9:	49 39 d4             	cmp    r12,rdx
  4036fc:	0f 84 de 00 00 00    	je     4037e0 <thd_wakeup+0x390>
		if (t->properties & SLM_THD_PROPERTY_SEND) {
  403702:	a8 02                	test   al,0x2
  403704:	0f 85 0e 01 00 00    	jne    403818 <thd_wakeup+0x3c8>
		} else if (t->properties & SLM_THD_PROPERTY_OWN_TCAP) {
  40370a:	49 89 c8             	mov    r8,rcx
  40370d:	a8 01                	test   al,0x1
  40370f:	0f 84 b5 fe ff ff    	je     4035ca <thd_wakeup+0x17a>
			return cos_switch(t->thd, t->tc, prio, timeout, g->sched_thd.rcv, tok);
  403715:	4d 8b 54 24 08       	mov    r10,QWORD PTR [r12+0x8]
  40371a:	48 89 f2             	mov    rdx,rsi
  40371d:	49 8b 7c 24 10       	mov    rdi,QWORD PTR [r12+0x10]
  403722:	45 89 f1             	mov    r9d,r14d
  403725:	48 b8 e8 5e 5a 00 00 	movabs rax,0x5a5ee8
  40372c:	00 00 00 
  40372f:	4c 8b 00             	mov    r8,QWORD PTR [rax]
  403732:	48 b8 f0 35 41 00 00 	movabs rax,0x4135f0
  403739:	00 00 00 
  40373c:	4c 89 d6             	mov    rsi,r10
  40373f:	ff d0                	call   rax
	if (unlikely(ret != 0)) {
  403741:	85 c0                	test   eax,eax
  403743:	0f 84 a9 fe ff ff    	je     4035f2 <thd_wakeup+0x1a2>
		assert(ret != -EPERM);
  403749:	83 f8 ff             	cmp    eax,0xffffffff
  40374c:	74 6a                	je     4037b8 <thd_wakeup+0x368>
		assert(ret != -EINVAL);
  40374e:	83 f8 ea             	cmp    eax,0xffffffea
  403751:	0f 84 ea 00 00 00    	je     403841 <thd_wakeup+0x3f1>
		if (ret == -EBUSY) return ret;
  403757:	83 f8 f0             	cmp    eax,0xfffffff0
  40375a:	0f 84 58 01 00 00    	je     4038b8 <thd_wakeup+0x468>
		assert(ret == -EAGAIN);
  403760:	83 f8 f5             	cmp    eax,0xfffffff5
  403763:	0f 85 27 01 00 00    	jne    403890 <thd_wakeup+0x440>
			ret = slm_cs_enter_contention(cs, cached, current, owner, contended, tok);
  403769:	49 bc 50 5f 41 00 00 	movabs r12,0x415f50
  403770:	00 00 00 
		tok    = cos_sched_sync();
  403773:	ff d3                	call   rbx
  403775:	41 89 c1             	mov    r9d,eax
	unsigned long oc = ps_load(&cs->owner_contention);
  403778:	49 8b 07             	mov    rax,QWORD PTR [r15]
		if (unlikely(owner)) {
  40377b:	48 89 c1             	mov    rcx,rax
  40377e:	48 83 e1 fe          	and    rcx,0xfffffffffffffffe
  403782:	0f 85 e1 00 00 00    	jne    403869 <thd_wakeup+0x419>
  403788:	f0 4d 0f b1 2f       	lock cmpxchg QWORD PTR [r15],r13
  40378d:	0f 94 c0             	sete   al
		if (likely(!__slm_cs_cas(cs, cached, current, 0))) return 0;
  403790:	84 c0                	test   al,al
  403792:	0f 85 94 fd ff ff    	jne    40352c <thd_wakeup+0xdc>
  403798:	eb d9                	jmp    403773 <thd_wakeup+0x323>
  40379a:	66 0f 1f 44 00 00    	nop    WORD PTR [rax+rax*1+0x0]
	return t != &g->idle_thd && t != &g->sched_thd;
  4037a0:	48 b8 40 5f 5a 00 00 	movabs rax,0x5a5f40
  4037a7:	00 00 00 
  4037aa:	49 39 c4             	cmp    r12,rax
  4037ad:	74 3c                	je     4037eb <thd_wakeup+0x39b>
  4037af:	48 83 e8 78          	sub    rax,0x78
  4037b3:	49 39 c4             	cmp    r12,rax
  4037b6:	74 33                	je     4037eb <thd_wakeup+0x39b>
  4037b8:	48 bf 70 f3 41 00 00 	movabs rdi,0x41f370
  4037bf:	00 00 00 
  4037c2:	be 61 00 00 00       	mov    esi,0x61
  4037c7:	48 b8 10 b3 40 00 00 	movabs rax,0x40b310
  4037ce:	00 00 00 
  4037d1:	ff d0                	call   rax
		assert(ret != -EPERM);
  4037d3:	c7 04 25 00 00 00 00 	mov    DWORD PTR ds:0x0,0x0
  4037da:	00 00 00 00 
  4037de:	0f 0b                	ud2    
			prio    = curr->priority;
  4037e0:	49 8b 75 30          	mov    rsi,QWORD PTR [r13+0x30]
			timeout = TCAP_TIME_NIL;
  4037e4:	31 c9                	xor    ecx,ecx
  4037e6:	e9 17 ff ff ff       	jmp    403702 <thd_wakeup+0x2b2>
		ret = cos_switch(g->sched_thd.thd, 0, curr->priority, TCAP_TIME_NIL, g->sched_thd.rcv, tok);
  4037eb:	49 8b 55 30          	mov    rdx,QWORD PTR [r13+0x30]
  4037ef:	45 89 f1             	mov    r9d,r14d
  4037f2:	31 c9                	xor    ecx,ecx
  4037f4:	31 f6                	xor    esi,esi
  4037f6:	48 b8 e8 5e 5a 00 00 	movabs rax,0x5a5ee8
  4037fd:	00 00 00 
  403800:	4c 8b 00             	mov    r8,QWORD PTR [rax]
  403803:	48 8b 78 f0          	mov    rdi,QWORD PTR [rax-0x10]
  403807:	48 b8 f0 35 41 00 00 	movabs rax,0x4135f0
  40380e:	00 00 00 
  403811:	ff d0                	call   rax
  403813:	e9 29 ff ff ff       	jmp    403741 <thd_wakeup+0x2f1>
			return cos_sched_asnd(t->asnd, g->timeout_next, g->sched_thd.rcv, tok);
  403818:	48 b8 e8 5e 5a 00 00 	movabs rax,0x5a5ee8
  40381f:	00 00 00 
  403822:	49 8b 7c 24 28       	mov    rdi,QWORD PTR [r12+0x28]
  403827:	48 8b 10             	mov    rdx,QWORD PTR [rax]
  40382a:	44 89 f1             	mov    ecx,r14d
  40382d:	48 b8 60 36 41 00 00 	movabs rax,0x413660
  403834:	00 00 00 
  403837:	4c 89 c6             	mov    rsi,r8
  40383a:	ff d0                	call   rax
  40383c:	e9 00 ff ff ff       	jmp    403741 <thd_wakeup+0x2f1>
  403841:	48 bf d8 f3 41 00 00 	movabs rdi,0x41f3d8
  403848:	00 00 00 
  40384b:	be 61 00 00 00       	mov    esi,0x61
  403850:	48 b8 10 b3 40 00 00 	movabs rax,0x40b310
  403857:	00 00 00 
  40385a:	ff d0                	call   rax
		assert(ret != -EINVAL);
  40385c:	c7 04 25 00 00 00 00 	mov    DWORD PTR ds:0x0,0x0
  403863:	00 00 00 00 
  403867:	0f 0b                	ud2    
			ret = slm_cs_enter_contention(cs, cached, current, owner, contended, tok);
  403869:	41 89 c0             	mov    r8d,eax
  40386c:	4c 89 ea             	mov    rdx,r13
  40386f:	48 89 c6             	mov    rsi,rax
  403872:	4c 89 ff             	mov    rdi,r15
  403875:	41 83 e0 01          	and    r8d,0x1
  403879:	41 ff d4             	call   r12
			assert(ret != -EBUSY);
  40387c:	83 f8 f0             	cmp    eax,0xfffffff0
  40387f:	0f 85 ee fe ff ff    	jne    403773 <thd_wakeup+0x323>
  403885:	e9 12 fe ff ff       	jmp    40369c <thd_wakeup+0x24c>
  40388a:	66 0f 1f 44 00 00    	nop    WORD PTR [rax+rax*1+0x0]
  403890:	48 bf 40 f4 41 00 00 	movabs rdi,0x41f440
  403897:	00 00 00 
  40389a:	be 61 00 00 00       	mov    esi,0x61
  40389f:	48 b8 10 b3 40 00 00 	movabs rax,0x40b310
  4038a6:	00 00 00 
  4038a9:	ff d0                	call   rax
		assert(ret == -EAGAIN);
  4038ab:	c7 04 25 00 00 00 00 	mov    DWORD PTR ds:0x0,0x0
  4038b2:	00 00 00 00 
  4038b6:	0f 0b                	ud2    
  4038b8:	41 89 c6             	mov    r14d,eax
  4038bb:	e9 35 fd ff ff       	jmp    4035f5 <thd_wakeup+0x1a5>

00000000004038c0 <sched_thd_wakeup>:
{
  4038c0:	f3 0f 1e fa          	endbr64 
  4038c4:	55                   	push   rbp
  4038c5:	48 89 e5             	mov    rbp,rsp
  4038c8:	41 57                	push   r15
  4038ca:	41 56                	push   r14
  4038cc:	41 55                	push   r13
  4038ce:	41 54                	push   r12
  4038d0:	53                   	push   rbx
  4038d1:	48 83 ec 08          	sub    rsp,0x8
SS_STATIC_SLAB(thd, struct slm_thd_container, MAX_NUM_THREADS);
  4038d5:	85 ff                	test   edi,edi
  4038d7:	74 21                	je     4038fa <sched_thd_wakeup+0x3a>
  4038d9:	83 ef 01             	sub    edi,0x1
  4038dc:	83 ff 18             	cmp    edi,0x18
  4038df:	77 19                	ja     4038fa <sched_thd_wakeup+0x3a>
  4038e1:	48 ba 00 27 46 00 00 	movabs rdx,0x462700
  4038e8:	00 00 00 
  4038eb:	89 f8                	mov    eax,edi
  4038ed:	48 8b 0c c2          	mov    rcx,QWORD PTR [rdx+rax*8]
  4038f1:	48 f7 c1 fe ff ff ff 	test   rcx,0xfffffffffffffffe
  4038f8:	75 1e                	jne    403918 <sched_thd_wakeup+0x58>
	if (!t) return -1;
  4038fa:	41 be ff ff ff ff    	mov    r14d,0xffffffff
}
  403900:	48 83 c4 08          	add    rsp,0x8
  403904:	44 89 f0             	mov    eax,r14d
  403907:	5b                   	pop    rbx
  403908:	41 5c                	pop    r12
  40390a:	41 5d                	pop    r13
  40390c:	41 5e                	pop    r14
  40390e:	41 5f                	pop    r15
  403910:	5d                   	pop    rbp
  403911:	c3                   	ret    
  403912:	66 0f 1f 44 00 00    	nop    WORD PTR [rax+rax*1+0x0]
  403918:	83 e1 01             	and    ecx,0x1
  40391b:	75 dd                	jne    4038fa <sched_thd_wakeup+0x3a>
	return &ss_thd_get(id)->thd;
  40391d:	48 8d 0c 80          	lea    rcx,[rax+rax*4]
  403921:	48 8d 04 48          	lea    rax,[rax+rcx*2]
  403925:	48 c1 e0 04          	shl    rax,0x4
  403929:	4c 8d a4 02 c8 00 00 	lea    r12,[rdx+rax*1+0xc8]
  403930:	00 
	__asm__("mov %%rsp, %0;" : "=r"(curr_stk_pointer));
  403931:	48 89 e0             	mov    rax,rsp
	return *(long *)((curr_stk_pointer & ~(COS_STACK_SZ - 1)) + COS_STACK_SZ - offset * sizeof(unsigned long));
  403934:	48 25 00 e0 ff ff    	and    rax,0xffffffffffffe000
  40393a:	0f b7 80 f0 1f 00 00 	movzx  eax,WORD PTR [rax+0x1ff0]
SS_STATIC_SLAB(thd, struct slm_thd_container, MAX_NUM_THREADS);
  403941:	48 85 c0             	test   rax,rax
  403944:	74 15                	je     40395b <sched_thd_wakeup+0x9b>
  403946:	83 e8 01             	sub    eax,0x1
  403949:	83 f8 18             	cmp    eax,0x18
  40394c:	77 0d                	ja     40395b <sched_thd_wakeup+0x9b>
  40394e:	48 8b 0c c2          	mov    rcx,QWORD PTR [rdx+rax*8]
  403952:	48 f7 c1 fe ff ff ff 	test   rcx,0xfffffffffffffffe
  403959:	75 2d                	jne    403988 <sched_thd_wakeup+0xc8>
  40395b:	48 bf 20 f2 41 00 00 	movabs rdi,0x41f220
  403962:	00 00 00 
  403965:	be 59 00 00 00       	mov    esi,0x59
  40396a:	48 b8 10 b3 40 00 00 	movabs rax,0x40b310
  403971:	00 00 00 
  403974:	ff d0                	call   rax
	assert(current);
  403976:	c7 04 25 00 00 00 00 	mov    DWORD PTR ds:0x0,0x0
  40397d:	00 00 00 00 
  403981:	0f 0b                	ud2    
  403983:	0f 1f 44 00 00       	nop    DWORD PTR [rax+rax*1+0x0]
  403988:	83 e1 01             	and    ecx,0x1
  40398b:	75 ce                	jne    40395b <sched_thd_wakeup+0x9b>
  40398d:	48 bb d0 35 41 00 00 	movabs rbx,0x4135d0
  403994:	00 00 00 
  403997:	48 8d 0c 80          	lea    rcx,[rax+rax*4]
  40399b:	49 bf c0 5e 5a 00 00 	movabs r15,0x5a5ec0
  4039a2:	00 00 00 
			ret = slm_cs_enter_contention(cs, cached, current, owner, contended, tok);
  4039a5:	49 be 50 5f 41 00 00 	movabs r14,0x415f50
  4039ac:	00 00 00 
  4039af:	48 8d 04 48          	lea    rax,[rax+rcx*2]
  4039b3:	48 c1 e0 04          	shl    rax,0x4
  4039b7:	4c 8d ac 02 c8 00 00 	lea    r13,[rdx+rax*1+0xc8]
  4039be:	00 
		tok    = cos_sched_sync();
  4039bf:	ff d3                	call   rbx
  4039c1:	41 89 c1             	mov    r9d,eax
	unsigned long oc = ps_load(&cs->owner_contention);
  4039c4:	49 8b 07             	mov    rax,QWORD PTR [r15]
		if (unlikely(owner)) {
  4039c7:	48 89 c1             	mov    rcx,rax
  4039ca:	48 83 e1 fe          	and    rcx,0xfffffffffffffffe
  4039ce:	0f 85 54 01 00 00    	jne    403b28 <sched_thd_wakeup+0x268>
  4039d4:	f0 4d 0f b1 2f       	lock cmpxchg QWORD PTR [r15],r13
  4039d9:	0f 94 c0             	sete   al
		if (likely(!__slm_cs_cas(cs, cached, current, 0))) return 0;
  4039dc:	84 c0                	test   al,al
  4039de:	74 df                	je     4039bf <sched_thd_wakeup+0xff>
	ret = slm_thd_wakeup(t, 0);
  4039e0:	48 b8 c0 66 41 00 00 	movabs rax,0x4166c0
  4039e7:	00 00 00 
  4039ea:	31 f6                	xor    esi,esi
  4039ec:	4c 89 e7             	mov    rdi,r12
  4039ef:	ff d0                	call   rax
  4039f1:	41 89 c6             	mov    r14d,eax
	if (ret < 0) {
  4039f4:	85 c0                	test   eax,eax
  4039f6:	0f 88 dc 00 00 00    	js     403ad8 <sched_thd_wakeup+0x218>
	struct cos_compinfo    *ci  = &cos_defcompinfo_curr_get()->ci;
  4039fc:	48 b8 10 ce 40 00 00 	movabs rax,0x40ce10
  403a03:	00 00 00 
  403a06:	ff d0                	call   rax
	tok  = cos_sched_sync();
  403a08:	ff d3                	call   rbx
  403a0a:	41 89 c6             	mov    r14d,eax
SLM_MODULES_COMPOSE_FNS(quantum, fprr, static_cm);
  403a0d:	48 b8 50 48 41 00 00 	movabs rax,0x414850
  403a14:	00 00 00 
  403a17:	ff d0                	call   rax
	if (unlikely(!t)) t = &g->idle_thd;
  403a19:	48 85 c0             	test   rax,rax
  403a1c:	49 89 c4             	mov    r12,rax
  403a1f:	48 b8 40 5f 5a 00 00 	movabs rax,0x5a5f40
  403a26:	00 00 00 
  403a29:	4c 0f 44 e0          	cmove  r12,rax
{ return s == SLM_THD_RUNNABLE || s == SLM_THD_WOKEN; }
  403a2d:	41 8b 44 24 04       	mov    eax,DWORD PTR [r12+0x4]
  403a32:	83 e8 02             	sub    eax,0x2
	assert(slm_state_is_runnable(t->state));
  403a35:	83 f8 01             	cmp    eax,0x1
  403a38:	76 12                	jbe    403a4c <sched_thd_wakeup+0x18c>
  403a3a:	e9 2d 01 00 00       	jmp    403b6c <sched_thd_wakeup+0x2ac>
  403a3f:	90                   	nop
  403a40:	f0 49 0f b1 17       	lock cmpxchg QWORD PTR [r15],rdx
  403a45:	0f 94 c0             	sete   al
	while (ret != 0) {
  403a48:	84 c0                	test   al,al
  403a4a:	75 2c                	jne    403a78 <sched_thd_wakeup+0x1b8>
		tok    = cos_sched_sync();
  403a4c:	ff d3                	call   rbx
  403a4e:	89 c1                	mov    ecx,eax
	unsigned long oc = ps_load(&cs->owner_contention);
  403a50:	49 8b 07             	mov    rax,QWORD PTR [r15]
		if (unlikely(contention)) {
  403a53:	48 89 c2             	mov    rdx,rax
  403a56:	83 e2 01             	and    edx,0x1
  403a59:	74 e5                	je     403a40 <sched_thd_wakeup+0x180>
	*thd        = (struct slm_thd *)(oc & (~0UL << 1));
  403a5b:	48 89 c6             	mov    rsi,rax
			if (!slm_cs_exit_contention(cs, current, cached, tok)) return;
  403a5e:	48 89 c2             	mov    rdx,rax
  403a61:	4c 89 ff             	mov    rdi,r15
  403a64:	48 b8 b0 5f 41 00 00 	movabs rax,0x415fb0
  403a6b:	00 00 00 
  403a6e:	48 83 e6 fe          	and    rsi,0xfffffffffffffffe
  403a72:	ff d0                	call   rax
  403a74:	85 c0                	test   eax,eax
  403a76:	75 d4                	jne    403a4c <sched_thd_wakeup+0x18c>
	struct cos_defcompinfo *dci = cos_defcompinfo_curr_get();
  403a78:	48 b8 10 ce 40 00 00 	movabs rax,0x40ce10
  403a7f:	00 00 00 
  403a82:	ff d0                	call   rax
	prio = inherit_prio ? curr->priority : t->priority;
  403a84:	49 8b 74 24 30       	mov    rsi,QWORD PTR [r12+0x30]
	timeout = g->timeout_next;
  403a89:	48 b8 c8 5f 5a 00 00 	movabs rax,0x5a5fc8
  403a90:	00 00 00 
  403a93:	4c 8b 00             	mov    r8,QWORD PTR [rax]
	if (unlikely(t->properties & (SLM_THD_PROPERTY_SEND | SLM_THD_PROPERTY_OWN_TCAP | SLM_THD_PROPERTY_SPECIAL))) {
  403a96:	41 8b 04 24          	mov    eax,DWORD PTR [r12]
  403a9a:	a8 0b                	test   al,0xb
  403a9c:	0f 85 f2 00 00 00    	jne    403b94 <sched_thd_wakeup+0x2d4>
	ret = cos_defswitch(t->thd, prio, timeout, tok);
  403aa2:	49 8b 7c 24 10       	mov    rdi,QWORD PTR [r12+0x10]
  403aa7:	44 89 f1             	mov    ecx,r14d
  403aaa:	4c 89 c2             	mov    rdx,r8
  403aad:	48 b8 70 e1 40 00 00 	movabs rax,0x40e170
  403ab4:	00 00 00 
  403ab7:	ff d0                	call   rax
	if (unlikely(ret == -EPERM && !slm_thd_normal(t))) {
  403ab9:	83 f8 ff             	cmp    eax,0xffffffff
  403abc:	0f 84 86 01 00 00    	je     403c48 <sched_thd_wakeup+0x388>
	if (unlikely(ret != 0)) {
  403ac2:	85 c0                	test   eax,eax
  403ac4:	0f 85 2c 01 00 00    	jne    403bf6 <sched_thd_wakeup+0x336>
	if (!t) return -1;
  403aca:	45 31 f6             	xor    r14d,r14d
  403acd:	e9 2e fe ff ff       	jmp    403900 <sched_thd_wakeup+0x40>
  403ad2:	66 0f 1f 44 00 00    	nop    WORD PTR [rax+rax*1+0x0]
  403ad8:	49 bc b0 5f 41 00 00 	movabs r12,0x415fb0
  403adf:	00 00 00 
  403ae2:	eb 14                	jmp    403af8 <sched_thd_wakeup+0x238>
  403ae4:	0f 1f 40 00          	nop    DWORD PTR [rax+0x0]
  403ae8:	f0 49 0f b1 17       	lock cmpxchg QWORD PTR [r15],rdx
  403aed:	0f 94 c0             	sete   al
	while (ret != 0) {
  403af0:	84 c0                	test   al,al
  403af2:	0f 85 08 fe ff ff    	jne    403900 <sched_thd_wakeup+0x40>
		tok    = cos_sched_sync();
  403af8:	ff d3                	call   rbx
  403afa:	89 c1                	mov    ecx,eax
	unsigned long oc = ps_load(&cs->owner_contention);
  403afc:	49 8b 07             	mov    rax,QWORD PTR [r15]
		if (unlikely(contention)) {
  403aff:	48 89 c2             	mov    rdx,rax
  403b02:	83 e2 01             	and    edx,0x1
  403b05:	74 e1                	je     403ae8 <sched_thd_wakeup+0x228>
	*thd        = (struct slm_thd *)(oc & (~0UL << 1));
  403b07:	48 89 c6             	mov    rsi,rax
			if (!slm_cs_exit_contention(cs, current, cached, tok)) return;
  403b0a:	48 89 c2             	mov    rdx,rax
  403b0d:	4c 89 ff             	mov    rdi,r15
  403b10:	48 83 e6 fe          	and    rsi,0xfffffffffffffffe
  403b14:	41 ff d4             	call   r12
  403b17:	85 c0                	test   eax,eax
  403b19:	0f 84 e1 fd ff ff    	je     403900 <sched_thd_wakeup+0x40>
  403b1f:	eb d7                	jmp    403af8 <sched_thd_wakeup+0x238>
  403b21:	0f 1f 80 00 00 00 00 	nop    DWORD PTR [rax+0x0]
			ret = slm_cs_enter_contention(cs, cached, current, owner, contended, tok);
  403b28:	41 89 c0             	mov    r8d,eax
  403b2b:	4c 89 ea             	mov    rdx,r13
  403b2e:	48 89 c6             	mov    rsi,rax
  403b31:	4c 89 ff             	mov    rdi,r15
  403b34:	41 83 e0 01          	and    r8d,0x1
  403b38:	41 ff d6             	call   r14
			assert(ret != -EBUSY);
  403b3b:	83 f8 f0             	cmp    eax,0xfffffff0
  403b3e:	0f 85 7b fe ff ff    	jne    4039bf <sched_thd_wakeup+0xff>
  403b44:	48 bf 80 f2 41 00 00 	movabs rdi,0x41f280
  403b4b:	00 00 00 
  403b4e:	be 59 00 00 00       	mov    esi,0x59
  403b53:	48 b8 10 b3 40 00 00 	movabs rax,0x40b310
  403b5a:	00 00 00 
  403b5d:	ff d0                	call   rax
  403b5f:	c7 04 25 00 00 00 00 	mov    DWORD PTR ds:0x0,0x0
  403b66:	00 00 00 00 
  403b6a:	0f 0b                	ud2    
  403b6c:	48 bf 08 f3 41 00 00 	movabs rdi,0x41f308
  403b73:	00 00 00 
  403b76:	be 61 00 00 00       	mov    esi,0x61
  403b7b:	48 b8 10 b3 40 00 00 	movabs rax,0x40b310
  403b82:	00 00 00 
  403b85:	ff d0                	call   rax
	assert(slm_state_is_runnable(t->state));
  403b87:	c7 04 25 00 00 00 00 	mov    DWORD PTR ds:0x0,0x0
  403b8e:	00 00 00 00 
  403b92:	0f 0b                	ud2    
		if (t == &g->sched_thd) {
  403b94:	48 ba c8 5e 5a 00 00 	movabs rdx,0x5a5ec8
  403b9b:	00 00 00 
	timeout = g->timeout_next;
  403b9e:	4c 89 c1             	mov    rcx,r8
		if (t == &g->sched_thd) {
  403ba1:	49 39 d4             	cmp    r12,rdx
  403ba4:	0f 84 de 00 00 00    	je     403c88 <sched_thd_wakeup+0x3c8>
		if (t->properties & SLM_THD_PROPERTY_SEND) {
  403baa:	a8 02                	test   al,0x2
  403bac:	0f 85 0e 01 00 00    	jne    403cc0 <sched_thd_wakeup+0x400>
		} else if (t->properties & SLM_THD_PROPERTY_OWN_TCAP) {
  403bb2:	49 89 c8             	mov    r8,rcx
  403bb5:	a8 01                	test   al,0x1
  403bb7:	0f 84 e5 fe ff ff    	je     403aa2 <sched_thd_wakeup+0x1e2>
			return cos_switch(t->thd, t->tc, prio, timeout, g->sched_thd.rcv, tok);
  403bbd:	4d 8b 54 24 08       	mov    r10,QWORD PTR [r12+0x8]
  403bc2:	48 89 f2             	mov    rdx,rsi
  403bc5:	49 8b 7c 24 10       	mov    rdi,QWORD PTR [r12+0x10]
  403bca:	45 89 f1             	mov    r9d,r14d
  403bcd:	48 b8 e8 5e 5a 00 00 	movabs rax,0x5a5ee8
  403bd4:	00 00 00 
  403bd7:	4c 8b 00             	mov    r8,QWORD PTR [rax]
  403bda:	48 b8 f0 35 41 00 00 	movabs rax,0x4135f0
  403be1:	00 00 00 
  403be4:	4c 89 d6             	mov    rsi,r10
  403be7:	ff d0                	call   rax
	if (unlikely(ret != 0)) {
  403be9:	85 c0                	test   eax,eax
  403beb:	0f 84 d9 fe ff ff    	je     403aca <sched_thd_wakeup+0x20a>
		assert(ret != -EPERM);
  403bf1:	83 f8 ff             	cmp    eax,0xffffffff
  403bf4:	74 6a                	je     403c60 <sched_thd_wakeup+0x3a0>
		assert(ret != -EINVAL);
  403bf6:	83 f8 ea             	cmp    eax,0xffffffea
  403bf9:	0f 84 ea 00 00 00    	je     403ce9 <sched_thd_wakeup+0x429>
		if (ret == -EBUSY) return ret;
  403bff:	83 f8 f0             	cmp    eax,0xfffffff0
  403c02:	0f 84 58 01 00 00    	je     403d60 <sched_thd_wakeup+0x4a0>
		assert(ret == -EAGAIN);
  403c08:	83 f8 f5             	cmp    eax,0xfffffff5
  403c0b:	0f 85 27 01 00 00    	jne    403d38 <sched_thd_wakeup+0x478>
			ret = slm_cs_enter_contention(cs, cached, current, owner, contended, tok);
  403c11:	49 bc 50 5f 41 00 00 	movabs r12,0x415f50
  403c18:	00 00 00 
		tok    = cos_sched_sync();
  403c1b:	ff d3                	call   rbx
  403c1d:	41 89 c1             	mov    r9d,eax
	unsigned long oc = ps_load(&cs->owner_contention);
  403c20:	49 8b 07             	mov    rax,QWORD PTR [r15]
		if (unlikely(owner)) {
  403c23:	48 89 c1             	mov    rcx,rax
  403c26:	48 83 e1 fe          	and    rcx,0xfffffffffffffffe
  403c2a:	0f 85 e1 00 00 00    	jne    403d11 <sched_thd_wakeup+0x451>
  403c30:	f0 4d 0f b1 2f       	lock cmpxchg QWORD PTR [r15],r13
  403c35:	0f 94 c0             	sete   al
		if (likely(!__slm_cs_cas(cs, cached, current, 0))) return 0;
  403c38:	84 c0                	test   al,al
  403c3a:	0f 85 c8 fd ff ff    	jne    403a08 <sched_thd_wakeup+0x148>
  403c40:	eb d9                	jmp    403c1b <sched_thd_wakeup+0x35b>
  403c42:	66 0f 1f 44 00 00    	nop    WORD PTR [rax+rax*1+0x0]
	return t != &g->idle_thd && t != &g->sched_thd;
  403c48:	48 b8 40 5f 5a 00 00 	movabs rax,0x5a5f40
  403c4f:	00 00 00 
  403c52:	49 39 c4             	cmp    r12,rax
  403c55:	74 3c                	je     403c93 <sched_thd_wakeup+0x3d3>
  403c57:	48 83 e8 78          	sub    rax,0x78
  403c5b:	49 39 c4             	cmp    r12,rax
  403c5e:	74 33                	je     403c93 <sched_thd_wakeup+0x3d3>
  403c60:	48 bf 70 f3 41 00 00 	movabs rdi,0x41f370
  403c67:	00 00 00 
  403c6a:	be 61 00 00 00       	mov    esi,0x61
  403c6f:	48 b8 10 b3 40 00 00 	movabs rax,0x40b310
  403c76:	00 00 00 
  403c79:	ff d0                	call   rax
		assert(ret != -EPERM);
  403c7b:	c7 04 25 00 00 00 00 	mov    DWORD PTR ds:0x0,0x0
  403c82:	00 00 00 00 
  403c86:	0f 0b                	ud2    
			prio    = curr->priority;
  403c88:	49 8b 75 30          	mov    rsi,QWORD PTR [r13+0x30]
			timeout = TCAP_TIME_NIL;
  403c8c:	31 c9                	xor    ecx,ecx
  403c8e:	e9 17 ff ff ff       	jmp    403baa <sched_thd_wakeup+0x2ea>
		ret = cos_switch(g->sched_thd.thd, 0, curr->priority, TCAP_TIME_NIL, g->sched_thd.rcv, tok);
  403c93:	49 8b 55 30          	mov    rdx,QWORD PTR [r13+0x30]
  403c97:	45 89 f1             	mov    r9d,r14d
  403c9a:	31 c9                	xor    ecx,ecx
  403c9c:	31 f6                	xor    esi,esi
  403c9e:	48 b8 e8 5e 5a 00 00 	movabs rax,0x5a5ee8
  403ca5:	00 00 00 
  403ca8:	4c 8b 00             	mov    r8,QWORD PTR [rax]
  403cab:	48 8b 78 f0          	mov    rdi,QWORD PTR [rax-0x10]
  403caf:	48 b8 f0 35 41 00 00 	movabs rax,0x4135f0
  403cb6:	00 00 00 
  403cb9:	ff d0                	call   rax
  403cbb:	e9 29 ff ff ff       	jmp    403be9 <sched_thd_wakeup+0x329>
			return cos_sched_asnd(t->asnd, g->timeout_next, g->sched_thd.rcv, tok);
  403cc0:	48 b8 e8 5e 5a 00 00 	movabs rax,0x5a5ee8
  403cc7:	00 00 00 
  403cca:	49 8b 7c 24 28       	mov    rdi,QWORD PTR [r12+0x28]
  403ccf:	48 8b 10             	mov    rdx,QWORD PTR [rax]
  403cd2:	44 89 f1             	mov    ecx,r14d
  403cd5:	48 b8 60 36 41 00 00 	movabs rax,0x413660
  403cdc:	00 00 00 
  403cdf:	4c 89 c6             	mov    rsi,r8
  403ce2:	ff d0                	call   rax
  403ce4:	e9 00 ff ff ff       	jmp    403be9 <sched_thd_wakeup+0x329>
  403ce9:	48 bf d8 f3 41 00 00 	movabs rdi,0x41f3d8
  403cf0:	00 00 00 
  403cf3:	be 61 00 00 00       	mov    esi,0x61
  403cf8:	48 b8 10 b3 40 00 00 	movabs rax,0x40b310
  403cff:	00 00 00 
  403d02:	ff d0                	call   rax
		assert(ret != -EINVAL);
  403d04:	c7 04 25 00 00 00 00 	mov    DWORD PTR ds:0x0,0x0
  403d0b:	00 00 00 00 
  403d0f:	0f 0b                	ud2    
			ret = slm_cs_enter_contention(cs, cached, current, owner, contended, tok);
  403d11:	41 89 c0             	mov    r8d,eax
  403d14:	4c 89 ea             	mov    rdx,r13
  403d17:	48 89 c6             	mov    rsi,rax
  403d1a:	4c 89 ff             	mov    rdi,r15
  403d1d:	41 83 e0 01          	and    r8d,0x1
  403d21:	41 ff d4             	call   r12
			assert(ret != -EBUSY);
  403d24:	83 f8 f0             	cmp    eax,0xfffffff0
  403d27:	0f 85 ee fe ff ff    	jne    403c1b <sched_thd_wakeup+0x35b>
  403d2d:	e9 12 fe ff ff       	jmp    403b44 <sched_thd_wakeup+0x284>
  403d32:	66 0f 1f 44 00 00    	nop    WORD PTR [rax+rax*1+0x0]
  403d38:	48 bf 40 f4 41 00 00 	movabs rdi,0x41f440
  403d3f:	00 00 00 
  403d42:	be 61 00 00 00       	mov    esi,0x61
  403d47:	48 b8 10 b3 40 00 00 	movabs rax,0x40b310
  403d4e:	00 00 00 
  403d51:	ff d0                	call   rax
		assert(ret == -EAGAIN);
  403d53:	c7 04 25 00 00 00 00 	mov    DWORD PTR ds:0x0,0x0
  403d5a:	00 00 00 00 
  403d5e:	0f 0b                	ud2    
  403d60:	41 89 c6             	mov    r14d,eax
  403d63:	e9 98 fb ff ff       	jmp    403900 <sched_thd_wakeup+0x40>
  403d68:	0f 1f 84 00 00 00 00 	nop    DWORD PTR [rax+rax*1+0x0]
  403d6f:	00 

0000000000403d70 <sched_debug_thd_state>:
{
  403d70:	f3 0f 1e fa          	endbr64 
SS_STATIC_SLAB(thd, struct slm_thd_container, MAX_NUM_THREADS);
  403d74:	85 ff                	test   edi,edi
  403d76:	0f 84 ae 3b 01 00    	je     41792a <sched_debug_thd_state.cold>
  403d7c:	83 ef 01             	sub    edi,0x1
  403d7f:	83 ff 18             	cmp    edi,0x18
  403d82:	0f 87 a2 3b 01 00    	ja     41792a <sched_debug_thd_state.cold>
  403d88:	48 b8 00 27 46 00 00 	movabs rax,0x462700
  403d8f:	00 00 00 
  403d92:	48 8b 04 f8          	mov    rax,QWORD PTR [rax+rdi*8]
  403d96:	48 a9 fe ff ff ff    	test   rax,0xfffffffffffffffe
  403d9c:	0f 84 88 3b 01 00    	je     41792a <sched_debug_thd_state.cold>
  403da2:	a8 01                	test   al,0x1
  403da4:	0f 85 80 3b 01 00    	jne    41792a <sched_debug_thd_state.cold>
	return t->state;
  403daa:	48 ba c8 27 46 00 00 	movabs rdx,0x4627c8
  403db1:	00 00 00 
  403db4:	48 8d 04 bf          	lea    rax,[rdi+rdi*4]
  403db8:	48 8d 04 47          	lea    rax,[rdi+rax*2]
  403dbc:	48 c1 e0 04          	shl    rax,0x4
  403dc0:	8b 44 02 04          	mov    eax,DWORD PTR [rdx+rax*1+0x4]
}
  403dc4:	c3                   	ret    
  403dc5:	66 66 2e 0f 1f 84 00 	data16 cs nop WORD PTR [rax+rax*1+0x0]
  403dcc:	00 00 00 00 

0000000000403dd0 <sched_thd_block_timeout>:
{
  403dd0:	f3 0f 1e fa          	endbr64 
	if (dep_id) return 0;
  403dd4:	48 85 ff             	test   rdi,rdi
  403dd7:	74 07                	je     403de0 <sched_thd_block_timeout+0x10>
  403dd9:	31 c0                	xor    eax,eax
}
  403ddb:	c3                   	ret    
  403ddc:	0f 1f 40 00          	nop    DWORD PTR [rax+0x0]
{
  403de0:	55                   	push   rbp
	__asm__("mov %%rsp, %0;" : "=r"(curr_stk_pointer));
  403de1:	48 89 e0             	mov    rax,rsp
	return *(long *)((curr_stk_pointer & ~(COS_STACK_SZ - 1)) + COS_STACK_SZ - offset * sizeof(unsigned long));
  403de4:	48 25 00 e0 ff ff    	and    rax,0xffffffffffffe000
  403dea:	48 89 e5             	mov    rbp,rsp
  403ded:	41 57                	push   r15
  403def:	41 56                	push   r14
  403df1:	49 89 f6             	mov    r14,rsi
  403df4:	41 55                	push   r13
  403df6:	41 54                	push   r12
  403df8:	53                   	push   rbx
  403df9:	48 83 ec 18          	sub    rsp,0x18
  403dfd:	0f b7 80 f0 1f 00 00 	movzx  eax,WORD PTR [rax+0x1ff0]
SS_STATIC_SLAB(thd, struct slm_thd_container, MAX_NUM_THREADS);
  403e04:	48 85 c0             	test   rax,rax
  403e07:	0f 84 0b 02 00 00    	je     404018 <sched_thd_block_timeout+0x248>
  403e0d:	83 e8 01             	sub    eax,0x1
  403e10:	83 f8 18             	cmp    eax,0x18
  403e13:	0f 87 ff 01 00 00    	ja     404018 <sched_thd_block_timeout+0x248>
  403e19:	48 b9 00 27 46 00 00 	movabs rcx,0x462700
  403e20:	00 00 00 
  403e23:	45 31 ed             	xor    r13d,r13d
  403e26:	48 8b 14 c1          	mov    rdx,QWORD PTR [rcx+rax*8]
  403e2a:	48 f7 c2 fe ff ff ff 	test   rdx,0xfffffffffffffffe
  403e31:	0f 85 a1 01 00 00    	jne    403fd8 <sched_thd_block_timeout+0x208>
static inline ps_tsc_t
ps_tsc(void)
{
	unsigned long a, d, c;

	__asm__ __volatile__("rdtsc" : "=a" (a), "=d" (d), "=c" (c) : : );
  403e37:	0f 31                	rdtsc  

	return ((u64_t)d << 32) | (u64_t)a;
  403e39:	48 c1 e2 20          	shl    rdx,0x20
  403e3d:	48 09 c2             	or     rdx,rax
 * more than 2^63 into the future.
 */
static inline int
cycles_greater_than(cycles_t g, cycles_t l)
{
	return (s64_t)(g - l) > 0;
  403e40:	4c 89 f0             	mov    rax,r14
  403e43:	48 29 d0             	sub    rax,rdx
	while (cycles_greater_than(timeout, slm_now())) {
  403e46:	48 85 c0             	test   rax,rax
  403e49:	0f 8e 19 03 00 00    	jle    404168 <sched_thd_block_timeout+0x398>
	assert(current);
  403e4f:	49 bc d0 35 41 00 00 	movabs r12,0x4135d0
  403e56:	00 00 00 
  403e59:	49 bf c0 5e 5a 00 00 	movabs r15,0x5a5ec0
  403e60:	00 00 00 
  403e63:	4d 85 ed             	test   r13,r13
  403e66:	0f 84 01 02 00 00    	je     40406d <sched_thd_block_timeout+0x29d>
		tok    = cos_sched_sync();
  403e6c:	41 ff d4             	call   r12
  403e6f:	41 89 c1             	mov    r9d,eax
	unsigned long oc = ps_load(&cs->owner_contention);
  403e72:	49 8b 07             	mov    rax,QWORD PTR [r15]
		if (unlikely(owner)) {
  403e75:	48 89 c1             	mov    rcx,rax
  403e78:	48 83 e1 fe          	and    rcx,0xfffffffffffffffe
  403e7c:	0f 85 9e 01 00 00    	jne    404020 <sched_thd_block_timeout+0x250>
        __asm__ __volatile__("lock " PS_CAS_STR
  403e82:	f0 4d 0f b1 2f       	lock cmpxchg QWORD PTR [r15],r13
  403e87:	0f 94 c0             	sete   al
		if (likely(!__slm_cs_cas(cs, cached, current, 0))) return 0;
  403e8a:	84 c0                	test   al,al
  403e8c:	74 de                	je     403e6c <sched_thd_block_timeout+0x9c>
SLM_MODULES_COMPOSE_FNS(quantum, fprr, static_cm);
  403e8e:	48 b8 50 51 41 00 00 	movabs rax,0x415150
  403e95:	00 00 00 
  403e98:	4c 89 f6             	mov    rsi,r14
