
sched.pfprr_quantum_static.global.sched:     file format elf64-x86-64


Disassembly of section .text:

0000000000400000 <printc>:
	return cos_print_str(s, strlen(s));
}

static int  __attribute__((format(printf, 1, 2)))
printc(char *fmt, ...)
{
  400000:	55                   	push   rbp
  400001:	49 89 fa             	mov    r10,rdi
  400004:	48 89 e5             	mov    rbp,rsp
  400007:	48 81 ec 90 01 00 00 	sub    rsp,0x190
  40000e:	48 89 b5 58 ff ff ff 	mov    QWORD PTR [rbp-0xa8],rsi
  400015:	48 89 95 60 ff ff ff 	mov    QWORD PTR [rbp-0xa0],rdx
  40001c:	48 89 8d 68 ff ff ff 	mov    QWORD PTR [rbp-0x98],rcx
  400023:	4c 89 85 70 ff ff ff 	mov    QWORD PTR [rbp-0x90],r8
  40002a:	4c 89 8d 78 ff ff ff 	mov    QWORD PTR [rbp-0x88],r9
  400031:	84 c0                	test   al,al
  400033:	74 20                	je     400055 <printc+0x55>
  400035:	0f 29 45 80          	movaps XMMWORD PTR [rbp-0x80],xmm0
  400039:	0f 29 4d 90          	movaps XMMWORD PTR [rbp-0x70],xmm1
  40003d:	0f 29 55 a0          	movaps XMMWORD PTR [rbp-0x60],xmm2
  400041:	0f 29 5d b0          	movaps XMMWORD PTR [rbp-0x50],xmm3
  400045:	0f 29 65 c0          	movaps XMMWORD PTR [rbp-0x40],xmm4
  400049:	0f 29 6d d0          	movaps XMMWORD PTR [rbp-0x30],xmm5
  40004d:	0f 29 75 e0          	movaps XMMWORD PTR [rbp-0x20],xmm6
  400051:	0f 29 7d f0          	movaps XMMWORD PTR [rbp-0x10],xmm7
	char    s[180];
	va_list arg_ptr;
	size_t  ret;

	va_start(arg_ptr, fmt);
  400055:	48 8d 45 10          	lea    rax,[rbp+0x10]
	ret = vsnprintf(s, 180, fmt, arg_ptr);
  400059:	48 8d 8d 78 fe ff ff 	lea    rcx,[rbp-0x188]
  400060:	4c 89 d2             	mov    rdx,r10
  400063:	be b4 00 00 00       	mov    esi,0xb4
	va_start(arg_ptr, fmt);
  400068:	48 89 85 80 fe ff ff 	mov    QWORD PTR [rbp-0x180],rax
	ret = vsnprintf(s, 180, fmt, arg_ptr);
  40006f:	48 8d bd 90 fe ff ff 	lea    rdi,[rbp-0x170]
	va_start(arg_ptr, fmt);
  400076:	48 8d 85 50 ff ff ff 	lea    rax,[rbp-0xb0]
  40007d:	c7 85 78 fe ff ff 08 	mov    DWORD PTR [rbp-0x188],0x8
  400084:	00 00 00 
  400087:	c7 85 7c fe ff ff 30 	mov    DWORD PTR [rbp-0x184],0x30
  40008e:	00 00 00 
  400091:	48 89 85 88 fe ff ff 	mov    QWORD PTR [rbp-0x178],rax
	ret = vsnprintf(s, 180, fmt, arg_ptr);
  400098:	e8 d3 6d 01 00       	call   416e70 <vsnprintf>
	va_end(arg_ptr);
	ret = cos_print_str(s, ret);
  40009d:	48 8d bd 90 fe ff ff 	lea    rdi,[rbp-0x170]
	ret = vsnprintf(s, 180, fmt, arg_ptr);
  4000a4:	89 c6                	mov    esi,eax
	ret = cos_print_str(s, ret);
  4000a6:	e8 d5 ab 00 00       	call   40ac80 <cos_print_str>

	return ret;
}
  4000ab:	c9                   	leave  
  4000ac:	c3                   	ret    
  4000ad:	0f 1f 00             	nop    DWORD PTR [rax]

00000000004000b0 <exit_init_thd>:

struct slm_thd *slm_thd_current_extern(void);

static __attribute__((noreturn)) void
exit_init_thd(void)
{
  4000b0:	55                   	push   rbp
  4000b1:	48 89 e5             	mov    rbp,rsp
  4000b4:	41 54                	push   r12
  4000b6:	53                   	push   rbx
	struct slm_thd *current = slm_thd_current_extern();
  4000b7:	e8 c4 1b 00 00       	call   401c80 <slm_thd_current_extern>
  4000bc:	49 89 c4             	mov    r12,rax
static inline u64_t
cos_rdtscp(coreid_t *coreid, u16_t *numaid)
{
	unsigned long a, d, c;

	__asm__ __volatile__("rdtscp" : "=a"(a), "=d"(d), "=c"(c) : : );
  4000bf:	0f 01 f9             	rdtscp 

	if (cos_coreid() == 0) printc("\tScheduler %ld: Exiting thread %ld from component %ld\n", cos_compid(), cos_thdid(), (compid_t)cos_inv_token());
  4000c2:	f7 c1 ff 0f 00 00    	test   ecx,0xfff
  4000c8:	0f 84 e7 00 00 00    	je     4001b5 <exit_init_thd+0x105>
	slm_cs_cached_t cached;
	sched_tok_t     tok;
	struct slm_thd  *owner;
	int             contended;

	assert(current);
  4000ce:	4d 85 e4             	test   r12,r12
  4000d1:	0f 84 5e 01 00 00    	je     400235 <exit_init_thd+0x185>
  4000d7:	0f 01 f9             	rdtscp 
	cs = &(slm_global()->lock);
  4000da:	81 e1 ff 0f 00 00    	and    ecx,0xfff
  4000e0:	48 8d 1c 89          	lea    rbx,[rcx+rcx*4]
  4000e4:	48 c1 e3 06          	shl    rbx,0x6
  4000e8:	48 81 c3 00 65 71 00 	add    rbx,0x716500

	while (1) {
		tok    = cos_sched_sync();
  4000ef:	e8 1c 1a 01 00       	call   411b10 <cos_sched_sync>
  4000f4:	41 89 c1             	mov    r9d,eax
 * - @ret - a *cached* version of the critical section metadata to be passed into `__slm_cs_cas`.
 */
static inline slm_cs_cached_t
__slm_cs_data(struct slm_cs *cs, struct slm_thd **thd, int *contention)
{
	unsigned long oc = ps_load(&cs->owner_contention);
  4000f7:	48 8b 03             	mov    rax,QWORD PTR [rbx]
		cached = __slm_cs_data(cs, &owner, &contended);

		if (unlikely(owner)) {
  4000fa:	48 89 c1             	mov    rcx,rax
  4000fd:	48 83 e1 fe          	and    rcx,0xfffffffffffffffe
  400101:	0f 85 f4 00 00 00    	jne    4001fb <exit_init_thd+0x14b>
 */
static inline int
ps_cas(unsigned long *target, unsigned long old, unsigned long updated)
{
        char z;
        __asm__ __volatile__("lock " PS_CAS_STR
  400107:	f0 4c 0f b1 23       	lock cmpxchg QWORD PTR [rbx],r12
  40010c:	0f 94 c0             	sete   al

			continue;
		}

		/* success! common case */
		if (likely(!__slm_cs_cas(cs, cached, current, 0))) return 0;
  40010f:	84 c0                	test   al,al
  400111:	74 dc                	je     4000ef <exit_init_thd+0x3f>

	slm_cs_enter(current, SLM_CS_NONE);
	slm_thd_deinit(current);		/* I'm out! */
  400113:	4c 89 e7             	mov    rdi,r12
  400116:	e8 f5 4e 01 00       	call   415010 <slm_thd_deinit>
  40011b:	0f 01 f9             	rdtscp 
 */
static inline void
slm_cs_exit(struct slm_thd *switchto, slm_cs_flags_t flags)
{
	int ret = 1;
	struct slm_cs *cs = &(slm_global()->lock);
  40011e:	81 e1 ff 0f 00 00    	and    ecx,0xfff
  400124:	48 8d 1c 89          	lea    rbx,[rcx+rcx*4]
  400128:	48 c1 e3 06          	shl    rbx,0x6
  40012c:	48 81 c3 00 65 71 00 	add    rbx,0x716500

	while (ret != 0) {
  400133:	eb 0f                	jmp    400144 <exit_init_thd+0x94>
  400135:	0f 1f 00             	nop    DWORD PTR [rax]
  400138:	f0 48 0f b1 13       	lock cmpxchg QWORD PTR [rbx],rdx
  40013d:	0f 94 c0             	sete   al
  400140:	84 c0                	test   al,al
  400142:	75 28                	jne    40016c <exit_init_thd+0xbc>
		int             contention;
		sched_tok_t     tok;
		slm_cs_cached_t cached;
		struct slm_thd *current;

		tok    = cos_sched_sync();
  400144:	e8 c7 19 01 00       	call   411b10 <cos_sched_sync>
  400149:	89 c1                	mov    ecx,eax
  40014b:	48 8b 03             	mov    rax,QWORD PTR [rbx]
		cached = __slm_cs_data(cs, &current, &contention);
		/* Another thread attempted to enter the critical section */
		if (unlikely(contention)) {
  40014e:	48 89 c2             	mov    rdx,rax
  400151:	83 e2 01             	and    edx,0x1
  400154:	74 e2                	je     400138 <exit_init_thd+0x88>
	/* least significant bit signifies contention */
	*thd        = (struct slm_thd *)(oc & (~0UL << 1));
  400156:	48 89 c6             	mov    rsi,rax
			if (!slm_cs_exit_contention(cs, current, cached, tok)) return;
  400159:	48 89 c2             	mov    rdx,rax
  40015c:	48 89 df             	mov    rdi,rbx
  40015f:	48 83 e6 fe          	and    rsi,0xfffffffffffffffe
  400163:	e8 38 4f 01 00       	call   4150a0 <slm_cs_exit_contention>
  400168:	85 c0                	test   eax,eax
  40016a:	75 d8                	jne    400144 <exit_init_thd+0x94>
	slm_cs_exit(NULL, SLM_CS_NONE);

	/* Switch to the scheduler thread */
	if (cos_defswitch(BOOT_CAPTBL_SELF_INITTHD_CPU_BASE, TCAP_PRIO_MAX, TCAP_RES_INF, cos_sched_sync())) BUG();
  40016c:	e8 9f 19 01 00       	call   411b10 <cos_sched_sync>
  400171:	41 89 c0             	mov    r8d,eax
  400174:	0f 01 f9             	rdtscp 
  400177:	81 e1 ff 0f 00 00    	and    ecx,0xfff
  40017d:	be 01 00 00 00       	mov    esi,0x1
  400182:	48 c7 c2 ff ff ff ff 	mov    rdx,0xffffffffffffffff
  400189:	48 8d 79 28          	lea    rdi,[rcx+0x28]
  40018d:	44 89 c1             	mov    ecx,r8d
  400190:	e8 0b c5 00 00       	call   40c6a0 <cos_defswitch>
	return cos_print_str(s, strlen(s));
  400195:	be 11 00 00 00       	mov    esi,0x11
  40019a:	85 c0                	test   eax,eax
  40019c:	75 46                	jne    4001e4 <exit_init_thd+0x134>
  40019e:	bf 84 cc 41 00       	mov    edi,0x41cc84
  4001a3:	e8 d8 aa 00 00       	call   40ac80 <cos_print_str>

	BUG();
  4001a8:	c7 04 25 00 00 00 00 	mov    DWORD PTR ds:0x0,0x0
  4001af:	00 00 00 00 
  4001b3:	0f 0b                	ud2    
	__asm__("mov %%rsp, %0;" : "=r"(curr_stk_pointer));
  4001b5:	48 89 e0             	mov    rax,rsp
	return *(long *)((curr_stk_pointer & ~(COS_STACK_SZ - 1)) + COS_STACK_SZ - offset * sizeof(unsigned long));
  4001b8:	48 25 00 e0 ff ff    	and    rax,0xffffffffffffe000
	if (cos_coreid() == 0) printc("\tScheduler %ld: Exiting thread %ld from component %ld\n", cos_compid(), cos_thdid(), (compid_t)cos_inv_token());
  4001be:	48 8b 35 7b 8e 02 00 	mov    rsi,QWORD PTR [rip+0x28e7b]        # 429040 <__cosrt_comp_info+0x40>
  4001c5:	bf 80 cb 41 00       	mov    edi,0x41cb80
  4001ca:	48 8b 88 e8 1f 00 00 	mov    rcx,QWORD PTR [rax+0x1fe8]
typedef u16_t cos_thdid_t;

static thdid_t
cos_thdid(void)
{
	return cos_get_thd_id();
  4001d1:	0f b7 90 f0 1f 00 00 	movzx  edx,WORD PTR [rax+0x1ff0]
  4001d8:	31 c0                	xor    eax,eax
  4001da:	e8 21 fe ff ff       	call   400000 <printc>
  4001df:	e9 ea fe ff ff       	jmp    4000ce <exit_init_thd+0x1e>
  4001e4:	bf 72 cc 41 00       	mov    edi,0x41cc72
  4001e9:	e8 92 aa 00 00       	call   40ac80 <cos_print_str>
	if (cos_defswitch(BOOT_CAPTBL_SELF_INITTHD_CPU_BASE, TCAP_PRIO_MAX, TCAP_RES_INF, cos_sched_sync())) BUG();
  4001ee:	c7 04 25 00 00 00 00 	mov    DWORD PTR ds:0x0,0x0
  4001f5:	00 00 00 00 
  4001f9:	0f 0b                	ud2    
			ret = slm_cs_enter_contention(cs, cached, current, owner, contended, tok);
  4001fb:	41 89 c0             	mov    r8d,eax
  4001fe:	4c 89 e2             	mov    rdx,r12
  400201:	48 89 c6             	mov    rsi,rax
  400204:	48 89 df             	mov    rdi,rbx
  400207:	41 83 e0 01          	and    r8d,0x1
  40020b:	e8 30 4e 01 00       	call   415040 <slm_cs_enter_contention>
			assert(ret != -EBUSY);
  400210:	83 f8 f0             	cmp    eax,0xfffffff0
  400213:	0f 85 d6 fe ff ff    	jne    4000ef <exit_init_thd+0x3f>
  400219:	be 59 00 00 00       	mov    esi,0x59
  40021e:	bf 18 cc 41 00       	mov    edi,0x41cc18
  400223:	e8 58 aa 00 00       	call   40ac80 <cos_print_str>
  400228:	c7 04 25 00 00 00 00 	mov    DWORD PTR ds:0x0,0x0
  40022f:	00 00 00 00 
  400233:	0f 0b                	ud2    
  400235:	be 59 00 00 00       	mov    esi,0x59
  40023a:	bf b8 cb 41 00       	mov    edi,0x41cbb8
  40023f:	e8 3c aa 00 00       	call   40ac80 <cos_print_str>
	assert(current);
  400244:	c7 04 25 00 00 00 00 	mov    DWORD PTR ds:0x0,0x0
  40024b:	00 00 00 00 
  40024f:	0f 0b                	ud2    
  400251:	66 66 2e 0f 1f 84 00 	data16 cs nop WORD PTR [rax+rax*1+0x0]
  400258:	00 00 00 00 
  40025c:	0f 1f 40 00          	nop    DWORD PTR [rax+0x0]

0000000000400260 <calculate_initialization_schedule>:
{
  400260:	f3 0f 1e fa          	endbr64 
  400264:	55                   	push   rbp
	ret = args_get_entry("execute", &exec_entries);
  400265:	bf 96 cc 41 00       	mov    edi,0x41cc96
{
  40026a:	48 89 e5             	mov    rbp,rsp
  40026d:	41 55                	push   r13
  40026f:	41 54                	push   r12
	ret = args_get_entry("execute", &exec_entries);
  400271:	48 8d 75 80          	lea    rsi,[rbp-0x80]
{
  400275:	53                   	push   rbx
  400276:	48 83 ec 78          	sub    rsp,0x78
	ret = args_get_entry("execute", &exec_entries);
  40027a:	e8 71 31 01 00       	call   4133f0 <args_get_entry>
	assert(!ret);
  40027f:	85 c0                	test   eax,eax
  400281:	0f 85 a1 01 00 00    	jne    400428 <calculate_initialization_schedule+0x1c8>
	printc("\tSched %ld: %d components that need execution\n", cos_compid(), args_len(&exec_entries));
  400287:	48 8d 7d 80          	lea    rdi,[rbp-0x80]
	*s = (struct schedinit_status) {
  40028b:	45 31 e4             	xor    r12d,r12d
	printc("\tSched %ld: %d components that need execution\n", cos_compid(), args_len(&exec_entries));
  40028e:	e8 5d 2b 01 00       	call   412df0 <args_len>
  400293:	48 8b 35 a6 8d 02 00 	mov    rsi,QWORD PTR [rip+0x28da6]        # 429040 <__cosrt_comp_info+0x40>
  40029a:	bf c8 cc 41 00       	mov    edi,0x41ccc8
  40029f:	89 c2                	mov    edx,eax
  4002a1:	31 c0                	xor    eax,eax
  4002a3:	e8 58 fd ff ff       	call   400000 <printc>
	for (cont = args_iter(&exec_entries, &i, &curr) ; cont ; cont = args_iter_next(&i, &curr)) {
  4002a8:	48 8d 55 a0          	lea    rdx,[rbp-0x60]
  4002ac:	48 8d 75 c0          	lea    rsi,[rbp-0x40]
  4002b0:	48 8d 7d 80          	lea    rdi,[rbp-0x80]
  4002b4:	e8 f7 2b 01 00       	call   412eb0 <args_iter>
  4002b9:	85 c0                	test   eax,eax
  4002bb:	0f 84 e9 00 00 00    	je     4003aa <calculate_initialization_schedule+0x14a>
		compid_t id        = atoi(args_key(&curr, &keylen));
  4002c1:	48 8d b5 7c ff ff ff 	lea    rsi,[rbp-0x84]
  4002c8:	48 8d 7d a0          	lea    rdi,[rbp-0x60]
  4002cc:	e8 7f 2a 01 00       	call   412d50 <args_key>
  4002d1:	48 89 c7             	mov    rdi,rax
  4002d4:	e8 a7 6c 01 00       	call   416f80 <atoi>
		char    *exec_type = args_value(&curr);
  4002d9:	48 8d 7d a0          	lea    rdi,[rbp-0x60]
		compid_t id        = atoi(args_key(&curr, &keylen));
  4002dd:	48 63 d8             	movsxd rbx,eax
		char    *exec_type = args_value(&curr);
  4002e0:	e8 cb 2a 01 00       	call   412db0 <args_value>
  4002e5:	48 89 c7             	mov    rdi,rax
		assert(exec_type);
  4002e8:	48 85 c0             	test   rax,rax
  4002eb:	0f 84 e3 00 00 00    	je     4003d4 <calculate_initialization_schedule+0x174>
	} while (0)

static inline long
cos_spd_id(void)
{
	return __cosrt_comp_info.cos_this_spd_id;
  4002f1:	4c 8b 2d 48 8d 02 00 	mov    r13,QWORD PTR [rip+0x28d48]        # 429040 <__cosrt_comp_info+0x40>
		assert(id != cos_compid());
  4002f8:	4c 39 eb             	cmp    rbx,r13
  4002fb:	0f 84 ef 00 00 00    	je     4003f0 <calculate_initialization_schedule+0x190>
		if (strcmp(exec_type, "init")) BUG();	/* TODO: no support for hierarchical scheduling yet */
  400301:	be 45 cd 41 00       	mov    esi,0x41cd45
  400306:	e8 f5 6e 01 00       	call   417200 <strcmp>
  40030b:	85 c0                	test   eax,eax
  40030d:	0f 85 a5 00 00 00    	jne    4003b8 <calculate_initialization_schedule+0x158>
	printc("\tSched %ld: %ld is the %ldth component to initialize\n", cos_compid(), cid, init_schedule_off);
  400313:	48 8b 0d a6 ea 1b 00 	mov    rcx,QWORD PTR [rip+0x1beaa6]        # 5bedc0 <init_schedule_off>
  40031a:	48 89 da             	mov    rdx,rbx
  40031d:	4c 89 ee             	mov    rsi,r13
  400320:	31 c0                	xor    eax,eax
  400322:	bf 60 cd 41 00       	mov    edi,0x41cd60
  400327:	e8 d4 fc ff ff       	call   400000 <printc>
	init_schedule[init_schedule_off] = cid;
  40032c:	48 8b 05 8d ea 1b 00 	mov    rax,QWORD PTR [rip+0x1bea8d]        # 5bedc0 <init_schedule_off>
  400333:	48 89 1c c5 c0 eb 5b 	mov    QWORD PTR [rax*8+0x5bebc0],rbx
  40033a:	00 
	assert(s->status == SCHEDINIT_FREE);
  40033b:	48 8d 1c 5b          	lea    rbx,[rbx+rbx*2]
	init_schedule_off++;
  40033f:	48 83 c0 01          	add    rax,0x1
	assert(s->status == SCHEDINIT_FREE);
  400343:	48 c1 e3 05          	shl    rbx,0x5
	init_schedule_off++;
  400347:	48 89 05 72 ea 1b 00 	mov    QWORD PTR [rip+0x1bea72],rax        # 5bedc0 <init_schedule_off>
	assert(s->status == SCHEDINIT_FREE);
  40034e:	8b 83 d0 d3 5b 00    	mov    eax,DWORD PTR [rbx+0x5bd3d0]
  400354:	4c 8d ab c0 d3 5b 00 	lea    r13,[rbx+0x5bd3c0]
  40035b:	85 c0                	test   eax,eax
  40035d:	0f 85 a9 00 00 00    	jne    40040c <calculate_initialization_schedule+0x1ac>
	*s = (struct schedinit_status) {
  400363:	4c 89 e0             	mov    rax,r12
  400366:	b9 0c 00 00 00       	mov    ecx,0xc
  40036b:	4c 89 ef             	mov    rdi,r13
  40036e:	f3 48 ab             	rep stos QWORD PTR es:[rdi],rax
  400371:	41 c7 45 10 01 00 00 	mov    DWORD PTR [r13+0x10],0x1
  400378:	00 
  400379:	49 c7 45 18 ff ff ff 	mov    QWORD PTR [r13+0x18],0xffffffffffffffff
  400380:	ff 
	simple_barrier_init(&s->barrier, init_parallelism());
  400381:	e8 4a a5 00 00       	call   40a8d0 <init_parallelism>
	for (cont = args_iter(&exec_entries, &i, &curr) ; cont ; cont = args_iter_next(&i, &curr)) {
  400386:	48 8d 75 a0          	lea    rsi,[rbp-0x60]
  40038a:	48 8d 7d c0          	lea    rdi,[rbp-0x40]
}

static inline void
simple_barrier_init(struct simple_barrier *b, unsigned int ncores)
{
	*b = (struct simple_barrier) {
  40038e:	48 c7 83 c0 d3 5b 00 	mov    QWORD PTR [rbx+0x5bd3c0],0x0
  400395:	00 00 00 00 
  400399:	41 89 45 08          	mov    DWORD PTR [r13+0x8],eax
  40039d:	e8 9e 2a 01 00       	call   412e40 <args_iter_next>
  4003a2:	85 c0                	test   eax,eax
  4003a4:	0f 85 17 ff ff ff    	jne    4002c1 <calculate_initialization_schedule+0x61>
}
  4003aa:	48 83 c4 78          	add    rsp,0x78
  4003ae:	5b                   	pop    rbx
  4003af:	41 5c                	pop    r12
  4003b1:	41 5d                	pop    r13
  4003b3:	5d                   	pop    rbp
  4003b4:	c3                   	ret    
  4003b5:	0f 1f 00             	nop    DWORD PTR [rax]
  4003b8:	be 11 00 00 00       	mov    esi,0x11
  4003bd:	bf 4a cd 41 00       	mov    edi,0x41cd4a
  4003c2:	e8 b9 a8 00 00       	call   40ac80 <cos_print_str>
		if (strcmp(exec_type, "init")) BUG();	/* TODO: no support for hierarchical scheduling yet */
  4003c7:	c7 04 25 00 00 00 00 	mov    DWORD PTR ds:0x0,0x0
  4003ce:	00 00 00 00 
  4003d2:	0f 0b                	ud2    
  4003d4:	be 24 00 00 00       	mov    esi,0x24
  4003d9:	bf f8 cc 41 00       	mov    edi,0x41ccf8
  4003de:	e8 9d a8 00 00       	call   40ac80 <cos_print_str>
		assert(exec_type);
  4003e3:	c7 04 25 00 00 00 00 	mov    DWORD PTR ds:0x0,0x0
  4003ea:	00 00 00 00 
  4003ee:	0f 0b                	ud2    
  4003f0:	be 24 00 00 00       	mov    esi,0x24
  4003f5:	bf 20 cd 41 00       	mov    edi,0x41cd20
  4003fa:	e8 81 a8 00 00       	call   40ac80 <cos_print_str>
		assert(id != cos_compid());
  4003ff:	c7 04 25 00 00 00 00 	mov    DWORD PTR ds:0x0,0x0
  400406:	00 00 00 00 
  40040a:	0f 0b                	ud2    
  40040c:	be 23 00 00 00       	mov    esi,0x23
  400411:	bf 98 cd 41 00       	mov    edi,0x41cd98
  400416:	e8 65 a8 00 00       	call   40ac80 <cos_print_str>
	assert(s->status == SCHEDINIT_FREE);
  40041b:	c7 04 25 00 00 00 00 	mov    DWORD PTR ds:0x0,0x0
  400422:	00 00 00 00 
  400426:	0f 0b                	ud2    
  400428:	be 23 00 00 00       	mov    esi,0x23
  40042d:	bf a0 cc 41 00       	mov    edi,0x41cca0
  400432:	e8 49 a8 00 00       	call   40ac80 <cos_print_str>
	assert(!ret);
  400437:	c7 04 25 00 00 00 00 	mov    DWORD PTR ds:0x0,0x0
  40043e:	00 00 00 00 
  400442:	0f 0b                	ud2    
  400444:	66 66 2e 0f 1f 84 00 	data16 cs nop WORD PTR [rax+rax*1+0x0]
  40044b:	00 00 00 00 
  40044f:	90                   	nop

0000000000400450 <init_done>:
	while (1) ;
}

void
init_done(int parallel_init, init_main_t cont)
{
  400450:	f3 0f 1e fa          	endbr64 
  400454:	55                   	push   rbp
	__asm__("mov %%rsp, %0;" : "=r"(curr_stk_pointer));
  400455:	48 89 e0             	mov    rax,rsp
	return *(long *)((curr_stk_pointer & ~(COS_STACK_SZ - 1)) + COS_STACK_SZ - offset * sizeof(unsigned long));
  400458:	48 25 00 e0 ff ff    	and    rax,0xffffffffffffe000
  40045e:	48 89 e5             	mov    rbp,rsp
  400461:	41 56                	push   r14
  400463:	41 55                	push   r13
  400465:	41 54                	push   r12
  400467:	53                   	push   rbx
	return get_stk_data(INVTOKEN_OFFSET);
  400468:	4c 8b 80 e8 1f 00 00 	mov    r8,QWORD PTR [rax+0x1fe8]
  40046f:	89 f3                	mov    ebx,esi
	compid_t client = (compid_t)cos_inv_token();
	struct schedinit_status *s;

	s = &initialization_state[client];
	assert(s->status != SCHEDINIT_FREE);
  400471:	4b 8d 34 40          	lea    rsi,[r8+r8*2]
  400475:	48 c1 e6 05          	shl    rsi,0x5
  400479:	8b 86 d0 d3 5b 00    	mov    eax,DWORD PTR [rsi+0x5bd3d0]
  40047f:	85 c0                	test   eax,eax
  400481:	0f 84 d9 00 00 00    	je     400560 <init_done+0x110>
  400487:	48 8d be c0 d3 5b 00 	lea    rdi,[rsi+0x5bd3c0]
	__asm__ __volatile__("rdtscp" : "=a"(a), "=d"(d), "=c"(c) : : );
  40048e:	0f 01 f9             	rdtscp 
  400491:	48 c7 c0 ff ff ff ff 	mov    rax,0xffffffffffffffff
	 * `cos_init`, thus call `init_done` first. This is a little
	 * obtuse, but we're simply trying to set the `s->init_core`
	 * only if it is still set to `-1`. Thus the first core to try
	 * (and only the first core to try), should succeed.
	 */
	ps_cas(&s->init_core, ~0, cos_coreid());
  400498:	81 e1 ff 0f 00 00    	and    ecx,0xfff
  40049e:	f0 48 0f b1 8e d8 d3 	lock cmpxchg QWORD PTR [rsi+0x5bd3d8],rcx
  4004a5:	5b 00 
  4004a7:	0f 94 c0             	sete   al

	/*
	 * `init_done` should not be called once initialization is
	 * completed. This is an error.
	 */
	if (s->status == SCHEDINIT_MAIN) {
  4004aa:	8b 47 10             	mov    eax,DWORD PTR [rdi+0x10]
  4004ad:	83 f8 03             	cmp    eax,0x3
  4004b0:	0f 84 e2 00 00 00    	je     400598 <init_done+0x148>

	/*
	 * This should *ONLY* happen for the initialization thread
	 * *after* it executes `cos_init`.
	 */
	if (s->status == SCHEDINIT_INITING) {
  4004b6:	83 f8 01             	cmp    eax,0x1
  4004b9:	0f 84 91 00 00 00    	je     400550 <init_done+0x100>
	assert(*barrier <= ncore);
  4004bf:	8b 57 08             	mov    edx,DWORD PTR [rdi+0x8]
  4004c2:	48 39 96 c0 d3 5b 00 	cmp    QWORD PTR [rsi+0x5bd3c0],rdx
  4004c9:	0f 87 ad 00 00 00    	ja     40057c <init_done+0x12c>
ps_faa(unsigned long *target, long inc)
{
#pragma GCC diagnostic push
#pragma GCC diagnostic ignored "-Warray-bounds"
/* GCC has bug of processing a warning(-Warray-bounds) and not get fixed, thus close the warning in this function */
        __asm__ __volatile__("lock " PS_FAA_STR
  4004cf:	b8 01 00 00 00       	mov    eax,0x1
  4004d4:	f0 48 0f c1 86 c0 d3 	lock xadd QWORD PTR [rsi+0x5bd3c0],rax
  4004db:	5b 00 
                             : "+m" (*target), "+q" (inc)
                             : : "memory", "cc");
        return inc;
  4004dd:	0f 1f 00             	nop    DWORD PTR [rax]
	while (ps_load(barrier) < ncore) ;
  4004e0:	48 8b 07             	mov    rax,QWORD PTR [rdi]
  4004e3:	48 39 c2             	cmp    rdx,rax
  4004e6:	77 f8                	ja     4004e0 <init_done+0x90>
 	 * If this barrier is hit *after* the parallel initialization
	 * has finished, no blocking will occur as its count has
	 * already been hit.
	 */
	simple_barrier(&s->barrier);
	s->status = SCHEDINIT_MAIN;
  4004e8:	4f 8d 2c 40          	lea    r13,[r8+r8*2]
  4004ec:	4d 89 ec             	mov    r12,r13
  4004ef:	49 c1 e4 05          	shl    r12,0x5
  4004f3:	49 81 c4 c0 d3 5b 00 	add    r12,0x5bd3c0
  4004fa:	41 c7 44 24 10 03 00 	mov    DWORD PTR [r12+0x10],0x3
  400501:	00 00 
  400503:	0f 01 f9             	rdtscp 
  400506:	49 89 ce             	mov    r14,rcx

	s->initialization_thds[cos_coreid()] = slm_thd_current_extern();
  400509:	e8 72 17 00 00       	call   401c80 <slm_thd_current_extern>
  40050e:	4c 89 f1             	mov    rcx,r14
  400511:	81 e1 ff 0f 00 00    	and    ecx,0xfff
  400517:	49 89 c0             	mov    r8,rax
  40051a:	4a 8d 44 a9 04       	lea    rax,[rcx+r13*4+0x4]
  40051f:	4c 89 04 c5 c0 d3 5b 	mov    QWORD PTR [rax*8+0x5bd3c0],r8
  400526:	00 
	extern int thd_block(void);
	thd_block(); 		/* block until initialization is completed */
  400527:	e8 44 23 00 00       	call   402870 <thd_block>
  40052c:	0f 01 f9             	rdtscp 

 	/*
	 * After initialization, we're done with the parallel threads
	 * in some cases.
	 */
	if ((cos_coreid() != s->init_core && cont == INIT_MAIN_SINGLE) || cont == INIT_MAIN_NONE) {
  40052f:	81 e1 ff 0f 00 00    	and    ecx,0xfff
  400535:	49 3b 4c 24 18       	cmp    rcx,QWORD PTR [r12+0x18]
  40053a:	74 05                	je     400541 <init_done+0xf1>
  40053c:	83 fb 01             	cmp    ebx,0x1
  40053f:	74 57                	je     400598 <init_done+0x148>
  400541:	85 db                	test   ebx,ebx
  400543:	74 53                	je     400598 <init_done+0x148>
	 * main execution. We'd expect the next API call here to be
	 * `init_exit`.
	 */

	return;
}
  400545:	5b                   	pop    rbx
  400546:	41 5c                	pop    r12
  400548:	41 5d                	pop    r13
  40054a:	41 5e                	pop    r14
  40054c:	5d                   	pop    rbp
  40054d:	c3                   	ret    
  40054e:	66 90                	xchg   ax,ax
		ps_store(&s->status, SCHEDINIT_PARINIT);
  400550:	c7 47 10 02 00 00 00 	mov    DWORD PTR [rdi+0x10],0x2
}
  400557:	5b                   	pop    rbx
  400558:	41 5c                	pop    r12
  40055a:	41 5d                	pop    r13
  40055c:	41 5e                	pop    r14
  40055e:	5d                   	pop    rbp
  40055f:	c3                   	ret    
  400560:	be 24 00 00 00       	mov    esi,0x24
  400565:	bf c0 cd 41 00       	mov    edi,0x41cdc0
  40056a:	e8 11 a7 00 00       	call   40ac80 <cos_print_str>
	assert(s->status != SCHEDINIT_FREE);
  40056f:	c7 04 25 00 00 00 00 	mov    DWORD PTR ds:0x0,0x0
  400576:	00 00 00 00 
  40057a:	0f 0b                	ud2    
  40057c:	be 5d 00 00 00       	mov    esi,0x5d
  400581:	bf e8 cd 41 00       	mov    edi,0x41cde8
  400586:	e8 f5 a6 00 00       	call   40ac80 <cos_print_str>
	assert(*barrier <= ncore);
  40058b:	c7 04 25 00 00 00 00 	mov    DWORD PTR ds:0x0,0x0
  400592:	00 00 00 00 
  400596:	0f 0b                	ud2    
		exit_init_thd();
  400598:	e8 13 fb ff ff       	call   4000b0 <exit_init_thd>
  40059d:	0f 1f 00             	nop    DWORD PTR [rax]

00000000004005a0 <init_exit>:

void
init_exit(int retval)
{
  4005a0:	f3 0f 1e fa          	endbr64 
  4005a4:	55                   	push   rbp
  4005a5:	48 89 e5             	mov    rbp,rsp
	exit_init_thd();
  4005a8:	e8 03 fb ff ff       	call   4000b0 <exit_init_thd>
  4005ad:	0f 1f 00             	nop    DWORD PTR [rax]

00000000004005b0 <slm_idle_comp_initialization>:
	return;
}

void
slm_idle_comp_initialization(void)
{
  4005b0:	f3 0f 1e fa          	endbr64 
  4005b4:	55                   	push   rbp
  4005b5:	48 89 e5             	mov    rbp,rsp
  4005b8:	41 57                	push   r15
  4005ba:	41 56                	push   r14
  4005bc:	41 55                	push   r13
  4005be:	41 54                	push   r12
  4005c0:	53                   	push   rbx
  4005c1:	48 83 ec 18          	sub    rsp,0x18
  4005c5:	0f 01 f9             	rdtscp 
	if (cos_coreid() == 0) printc("Scheduler %ld: Running initialization thread.\n", cos_compid());
  4005c8:	f7 c1 ff 0f 00 00    	test   ecx,0xfff
  4005ce:	0f 84 a7 01 00 00    	je     40077b <slm_idle_comp_initialization+0x1cb>
	while (init_schedule_current != ps_load(&init_schedule_off)) {
  4005d4:	48 8b 05 e5 e7 1b 00 	mov    rax,QWORD PTR [rip+0x1be7e5]        # 5bedc0 <init_schedule_off>
  4005db:	48 8b 1d f6 ca 01 00 	mov    rbx,QWORD PTR [rip+0x1caf6]        # 41d0d8 <__unlock+0x5d8>
  4005e2:	45 31 e4             	xor    r12d,r12d
  4005e5:	48 85 c0             	test   rax,rax
  4005e8:	74 7d                	je     400667 <slm_idle_comp_initialization+0xb7>
  4005ea:	66 0f 1f 44 00 00    	nop    WORD PTR [rax+rax*1+0x0]
		t = thd_alloc_in(client, 0, param, 1);
  4005f0:	31 f6                	xor    esi,esi
  4005f2:	b9 01 00 00 00       	mov    ecx,0x1
  4005f7:	48 8d 55 c8          	lea    rdx,[rbp-0x38]
		param[0] = sched_param_pack(SCHEDP_INIT, 0);
  4005fb:	48 89 5d c8          	mov    QWORD PTR [rbp-0x38],rbx
		compid_t client = init_schedule[init_schedule_current];
  4005ff:	4e 8b 2c e5 c0 eb 5b 	mov    r13,QWORD PTR [r12*8+0x5bebc0]
  400606:	00 
		t = thd_alloc_in(client, 0, param, 1);
  400607:	4c 89 ef             	mov    rdi,r13
  40060a:	e8 41 52 00 00       	call   405850 <thd_alloc_in>
  40060f:	48 89 c6             	mov    rsi,rax
		assert(t);
  400612:	48 85 c0             	test   rax,rax
  400615:	0f 84 44 01 00 00    	je     40075f <slm_idle_comp_initialization+0x1af>
		init_schedule_current++;
  40061b:	49 83 c4 01          	add    r12,0x1
  40061f:	0f 01 f9             	rdtscp 
		if (cos_coreid() == 0)	printc("\tScheduler %ld: initializing component %ld with thread %ld.\n", cos_compid(), client, t->tid);
  400622:	f7 c1 ff 0f 00 00    	test   ecx,0xfff
  400628:	0f 84 12 01 00 00    	je     400740 <slm_idle_comp_initialization+0x190>
		while (ps_load(&n->initialization_thds[cos_coreid()]) == NULL) ;
  40062e:	4b 8d 74 6d 00       	lea    rsi,[r13+r13*2+0x0]
  400633:	48 c1 e6 02          	shl    rsi,0x2
  400637:	66 0f 1f 84 00 00 00 	nop    WORD PTR [rax+rax*1+0x0]
  40063e:	00 00 
  400640:	0f 01 f9             	rdtscp 
  400643:	81 e1 ff 0f 00 00    	and    ecx,0xfff
  400649:	48 8d 44 31 04       	lea    rax,[rcx+rsi*1+0x4]
  40064e:	48 8b 04 c5 c0 d3 5b 	mov    rax,QWORD PTR [rax*8+0x5bd3c0]
  400655:	00 
  400656:	48 85 c0             	test   rax,rax
  400659:	74 e5                	je     400640 <slm_idle_comp_initialization+0x90>
	while (init_schedule_current != ps_load(&init_schedule_off)) {
  40065b:	48 8b 05 5e e7 1b 00 	mov    rax,QWORD PTR [rip+0x1be75e]        # 5bedc0 <init_schedule_off>
  400662:	49 39 c4             	cmp    r12,rax
  400665:	75 89                	jne    4005f0 <slm_idle_comp_initialization+0x40>
  400667:	0f 01 f9             	rdtscp 
	if (cos_coreid() == 0) printc("Scheduler %ld, initialization completed.\n", cos_compid());
  40066a:	f7 c1 ff 0f 00 00    	test   ecx,0xfff
  400670:	0f 84 1d 01 00 00    	je     400793 <slm_idle_comp_initialization+0x1e3>
	slm_cs_enter(slm_thd_special(), SLM_CS_NONE);
  400676:	e8 35 48 01 00       	call   414eb0 <slm_thd_special>
  40067b:	49 89 c4             	mov    r12,rax
  40067e:	48 85 c0             	test   rax,rax
  400681:	0f 84 63 02 00 00    	je     4008ea <slm_idle_comp_initialization+0x33a>
  400687:	0f 01 f9             	rdtscp 
	cs = &(slm_global()->lock);
  40068a:	81 e1 ff 0f 00 00    	and    ecx,0xfff
  400690:	48 8d 1c 89          	lea    rbx,[rcx+rcx*4]
  400694:	48 c1 e3 06          	shl    rbx,0x6
  400698:	48 81 c3 00 65 71 00 	add    rbx,0x716500
		tok    = cos_sched_sync();
  40069f:	e8 6c 14 01 00       	call   411b10 <cos_sched_sync>
  4006a4:	41 89 c1             	mov    r9d,eax
	unsigned long oc = ps_load(&cs->owner_contention);
  4006a7:	48 8b 03             	mov    rax,QWORD PTR [rbx]
		if (unlikely(owner)) {
  4006aa:	48 89 c1             	mov    rcx,rax
  4006ad:	48 83 e1 fe          	and    rcx,0xfffffffffffffffe
  4006b1:	0f 85 f9 01 00 00    	jne    4008b0 <slm_idle_comp_initialization+0x300>
        __asm__ __volatile__("lock " PS_CAS_STR
  4006b7:	f0 4c 0f b1 23       	lock cmpxchg QWORD PTR [rbx],r12
  4006bc:	0f 94 c0             	sete   al
		if (likely(!__slm_cs_cas(cs, cached, current, 0))) return 0;
  4006bf:	84 c0                	test   al,al
  4006c1:	74 dc                	je     40069f <slm_idle_comp_initialization+0xef>
	for (i = 0; i < ps_load(&init_schedule_off); i++) {
  4006c3:	48 8b 05 f6 e6 1b 00 	mov    rax,QWORD PTR [rip+0x1be6f6]        # 5bedc0 <init_schedule_off>
  4006ca:	31 db                	xor    ebx,ebx
  4006cc:	48 85 c0             	test   rax,rax
  4006cf:	75 2a                	jne    4006fb <slm_idle_comp_initialization+0x14b>
  4006d1:	e9 d5 00 00 00       	jmp    4007ab <slm_idle_comp_initialization+0x1fb>
  4006d6:	66 2e 0f 1f 84 00 00 	cs nop WORD PTR [rax+rax*1+0x0]
  4006dd:	00 00 00 
		slm_thd_wakeup(t, 0);
  4006e0:	31 f6                	xor    esi,esi
	for (i = 0; i < ps_load(&init_schedule_off); i++) {
  4006e2:	48 83 c3 01          	add    rbx,0x1
		slm_thd_wakeup(t, 0);
  4006e6:	e8 b5 50 01 00       	call   4157a0 <slm_thd_wakeup>
	for (i = 0; i < ps_load(&init_schedule_off); i++) {
  4006eb:	48 8b 05 ce e6 1b 00 	mov    rax,QWORD PTR [rip+0x1be6ce]        # 5bedc0 <init_schedule_off>
  4006f2:	48 39 c3             	cmp    rbx,rax
  4006f5:	0f 83 b0 00 00 00    	jae    4007ab <slm_idle_comp_initialization+0x1fb>
  4006fb:	0f 01 f9             	rdtscp 
		t = initialization_state[client].initialization_thds[cos_coreid()];
  4006fe:	48 8b 04 dd c0 eb 5b 	mov    rax,QWORD PTR [rbx*8+0x5bebc0]
  400705:	00 
  400706:	81 e1 ff 0f 00 00    	and    ecx,0xfff
  40070c:	48 8d 04 40          	lea    rax,[rax+rax*2]
  400710:	48 8d 44 81 04       	lea    rax,[rcx+rax*4+0x4]
  400715:	48 8b 3c c5 c0 d3 5b 	mov    rdi,QWORD PTR [rax*8+0x5bd3c0]
  40071c:	00 
		assert(t != NULL);
  40071d:	48 85 ff             	test   rdi,rdi
  400720:	75 be                	jne    4006e0 <slm_idle_comp_initialization+0x130>
  400722:	be 24 00 00 00       	mov    esi,0x24
  400727:	bf 10 cf 41 00       	mov    edi,0x41cf10
  40072c:	e8 4f a5 00 00       	call   40ac80 <cos_print_str>
  400731:	c7 04 25 00 00 00 00 	mov    DWORD PTR ds:0x0,0x0
  400738:	00 00 00 00 
  40073c:	0f 0b                	ud2    
  40073e:	66 90                	xchg   ax,ax
		if (cos_coreid() == 0)	printc("\tScheduler %ld: initializing component %ld with thread %ld.\n", cos_compid(), client, t->tid);
  400740:	48 8b 4e 18          	mov    rcx,QWORD PTR [rsi+0x18]
  400744:	48 8b 35 f5 88 02 00 	mov    rsi,QWORD PTR [rip+0x288f5]        # 429040 <__cosrt_comp_info+0x40>
  40074b:	4c 89 ea             	mov    rdx,r13
  40074e:	31 c0                	xor    eax,eax
  400750:	bf a0 ce 41 00       	mov    edi,0x41cea0
  400755:	e8 a6 f8 ff ff       	call   400000 <printc>
  40075a:	e9 cf fe ff ff       	jmp    40062e <slm_idle_comp_initialization+0x7e>
  40075f:	be 24 00 00 00       	mov    esi,0x24
  400764:	bf 78 ce 41 00       	mov    edi,0x41ce78
  400769:	e8 12 a5 00 00       	call   40ac80 <cos_print_str>
		assert(t);
  40076e:	c7 04 25 00 00 00 00 	mov    DWORD PTR ds:0x0,0x0
  400775:	00 00 00 00 
  400779:	0f 0b                	ud2    
	if (cos_coreid() == 0) printc("Scheduler %ld: Running initialization thread.\n", cos_compid());
  40077b:	48 8b 35 be 88 02 00 	mov    rsi,QWORD PTR [rip+0x288be]        # 429040 <__cosrt_comp_info+0x40>
  400782:	bf 48 ce 41 00       	mov    edi,0x41ce48
  400787:	31 c0                	xor    eax,eax
  400789:	e8 72 f8 ff ff       	call   400000 <printc>
  40078e:	e9 41 fe ff ff       	jmp    4005d4 <slm_idle_comp_initialization+0x24>
	if (cos_coreid() == 0) printc("Scheduler %ld, initialization completed.\n", cos_compid());
  400793:	48 8b 35 a6 88 02 00 	mov    rsi,QWORD PTR [rip+0x288a6]        # 429040 <__cosrt_comp_info+0x40>
  40079a:	bf e0 ce 41 00       	mov    edi,0x41cee0
  40079f:	31 c0                	xor    eax,eax
  4007a1:	e8 5a f8 ff ff       	call   400000 <printc>
  4007a6:	e9 cb fe ff ff       	jmp    400676 <slm_idle_comp_initialization+0xc6>
	slm_cs_exit_reschedule(slm_thd_special(), SLM_CS_NONE);
  4007ab:	e8 00 47 01 00       	call   414eb0 <slm_thd_special>
  4007b0:	49 89 c5             	mov    r13,rax
 * dispatch.
 */
static inline int
slm_cs_exit_reschedule(struct slm_thd *curr, slm_cs_flags_t flags)
{
	struct cos_compinfo    *ci  = &cos_defcompinfo_curr_get()->ci;
  4007b3:	e8 98 ad 00 00       	call   40b550 <cos_defcompinfo_curr_get>
  4007b8:	0f 01 f9             	rdtscp 
		}
	}

	/* Make a policy decision! */
	t = slm_sched_schedule();
	if (unlikely(!t)) t = &g->idle_thd;
  4007bb:	48 89 c8             	mov    rax,rcx
  4007be:	25 ff 0f 00 00       	and    eax,0xfff
  4007c3:	4c 8d 34 80          	lea    r14,[rax+rax*4]
  4007c7:	49 c1 e6 06          	shl    r14,0x6
  4007cb:	49 81 c6 80 65 71 00 	add    r14,0x716580
	tok  = cos_sched_sync();
  4007d2:	e8 39 13 01 00       	call   411b10 <cos_sched_sync>
  4007d7:	41 89 c4             	mov    r12d,eax
	t = slm_sched_schedule();
  4007da:	e8 01 13 00 00       	call   401ae0 <slm_sched_schedule>
	if (unlikely(!t)) t = &g->idle_thd;
  4007df:	48 85 c0             	test   rax,rax
	t = slm_sched_schedule();
  4007e2:	48 89 c3             	mov    rbx,rax
	if (unlikely(!t)) t = &g->idle_thd;
  4007e5:	49 0f 44 de          	cmove  rbx,r14
{ return s == SLM_THD_RUNNABLE || s == SLM_THD_WOKEN; }
  4007e9:	8b 43 04             	mov    eax,DWORD PTR [rbx+0x4]
  4007ec:	83 e8 02             	sub    eax,0x2

	assert(slm_state_is_runnable(t->state));
  4007ef:	83 f8 01             	cmp    eax,0x1
  4007f2:	0f 87 0e 01 00 00    	ja     400906 <slm_idle_comp_initialization+0x356>
  4007f8:	0f 01 f9             	rdtscp 
	struct slm_cs *cs = &(slm_global()->lock);
  4007fb:	48 89 c8             	mov    rax,rcx
  4007fe:	25 ff 0f 00 00       	and    eax,0xfff
  400803:	4c 8d 3c 80          	lea    r15,[rax+rax*4]
  400807:	49 c1 e7 06          	shl    r15,0x6
  40080b:	49 81 c7 00 65 71 00 	add    r15,0x716500
	while (ret != 0) {
  400812:	eb 10                	jmp    400824 <slm_idle_comp_initialization+0x274>
  400814:	0f 1f 40 00          	nop    DWORD PTR [rax+0x0]
  400818:	f0 49 0f b1 17       	lock cmpxchg QWORD PTR [r15],rdx
  40081d:	0f 94 c0             	sete   al
  400820:	84 c0                	test   al,al
  400822:	75 28                	jne    40084c <slm_idle_comp_initialization+0x29c>
		tok    = cos_sched_sync();
  400824:	e8 e7 12 01 00       	call   411b10 <cos_sched_sync>
  400829:	89 c1                	mov    ecx,eax
	unsigned long oc = ps_load(&cs->owner_contention);
  40082b:	49 8b 07             	mov    rax,QWORD PTR [r15]
		if (unlikely(contention)) {
  40082e:	48 89 c2             	mov    rdx,rax
  400831:	83 e2 01             	and    edx,0x1
  400834:	74 e2                	je     400818 <slm_idle_comp_initialization+0x268>
	*thd        = (struct slm_thd *)(oc & (~0UL << 1));
  400836:	48 89 c6             	mov    rsi,rax
			if (!slm_cs_exit_contention(cs, current, cached, tok)) return;
  400839:	48 89 c2             	mov    rdx,rax
  40083c:	4c 89 ff             	mov    rdi,r15
  40083f:	48 83 e6 fe          	and    rsi,0xfffffffffffffffe
  400843:	e8 58 48 01 00       	call   4150a0 <slm_cs_exit_contention>
  400848:	85 c0                	test   eax,eax
  40084a:	75 d8                	jne    400824 <slm_idle_comp_initialization+0x274>
	struct cos_defcompinfo *dci = cos_defcompinfo_curr_get();
  40084c:	e8 ff ac 00 00       	call   40b550 <cos_defcompinfo_curr_get>
  400851:	0f 01 f9             	rdtscp 
	*coreid = c & 0xFFF;
  400854:	89 c8                	mov    eax,ecx
	timeout = g->timeout_next;
  400856:	81 e1 ff 0f 00 00    	and    ecx,0xfff
	prio = inherit_prio ? curr->priority : t->priority;
  40085c:	48 8b 73 30          	mov    rsi,QWORD PTR [rbx+0x30]
	timeout = g->timeout_next;
  400860:	48 8d 14 89          	lea    rdx,[rcx+rcx*4]
  400864:	66 25 ff 0f          	and    ax,0xfff
  400868:	49 89 cf             	mov    r15,rcx
  40086b:	48 c1 e2 06          	shl    rdx,0x6
  40086f:	4c 8b 82 08 66 71 00 	mov    r8,QWORD PTR [rdx+0x716608]
	if (unlikely(t->properties & (SLM_THD_PROPERTY_SEND | SLM_THD_PROPERTY_OWN_TCAP | SLM_THD_PROPERTY_SPECIAL))) {
  400876:	8b 13                	mov    edx,DWORD PTR [rbx]
  400878:	f6 c2 0b             	test   dl,0xb
  40087b:	0f 85 ef 00 00 00    	jne    400970 <slm_idle_comp_initialization+0x3c0>
	ret = cos_defswitch(t->thd, prio, timeout, tok);
  400881:	48 8b 7b 10          	mov    rdi,QWORD PTR [rbx+0x10]
  400885:	44 89 e1             	mov    ecx,r12d
  400888:	4c 89 c2             	mov    rdx,r8
  40088b:	e8 10 be 00 00       	call   40c6a0 <cos_defswitch>
	if (unlikely(ret == -EPERM && !slm_thd_normal(t))) {
  400890:	83 f8 ff             	cmp    eax,0xffffffff
  400893:	0f 84 89 00 00 00    	je     400922 <slm_idle_comp_initialization+0x372>
	slm_cs_exit(NULL, flags);

	ret = slm_thd_activate(curr, t, tok, 0);
	
	if (unlikely(ret != 0)) {
  400899:	85 c0                	test   eax,eax
  40089b:	0f 85 33 01 00 00    	jne    4009d4 <slm_idle_comp_initialization+0x424>
	slm_comp_init_loop();
}
  4008a1:	48 83 c4 18          	add    rsp,0x18
  4008a5:	5b                   	pop    rbx
  4008a6:	41 5c                	pop    r12
  4008a8:	41 5d                	pop    r13
  4008aa:	41 5e                	pop    r14
  4008ac:	41 5f                	pop    r15
  4008ae:	5d                   	pop    rbp
  4008af:	c3                   	ret    
			ret = slm_cs_enter_contention(cs, cached, current, owner, contended, tok);
  4008b0:	41 89 c0             	mov    r8d,eax
  4008b3:	4c 89 e2             	mov    rdx,r12
  4008b6:	48 89 c6             	mov    rsi,rax
  4008b9:	48 89 df             	mov    rdi,rbx
  4008bc:	41 83 e0 01          	and    r8d,0x1
  4008c0:	e8 7b 47 01 00       	call   415040 <slm_cs_enter_contention>
			assert(ret != -EBUSY);
  4008c5:	83 f8 f0             	cmp    eax,0xfffffff0
  4008c8:	0f 85 d1 fd ff ff    	jne    40069f <slm_idle_comp_initialization+0xef>
  4008ce:	be 59 00 00 00       	mov    esi,0x59
  4008d3:	bf 18 cc 41 00       	mov    edi,0x41cc18
  4008d8:	e8 a3 a3 00 00       	call   40ac80 <cos_print_str>
  4008dd:	c7 04 25 00 00 00 00 	mov    DWORD PTR ds:0x0,0x0
  4008e4:	00 00 00 00 
  4008e8:	0f 0b                	ud2    
  4008ea:	be 59 00 00 00       	mov    esi,0x59
  4008ef:	bf b8 cb 41 00       	mov    edi,0x41cbb8
  4008f4:	e8 87 a3 00 00       	call   40ac80 <cos_print_str>
	assert(current);
  4008f9:	c7 04 25 00 00 00 00 	mov    DWORD PTR ds:0x0,0x0
  400900:	00 00 00 00 
  400904:	0f 0b                	ud2    
  400906:	be 61 00 00 00       	mov    esi,0x61
  40090b:	bf 38 cf 41 00       	mov    edi,0x41cf38
  400910:	e8 6b a3 00 00       	call   40ac80 <cos_print_str>
	assert(slm_state_is_runnable(t->state));
  400915:	c7 04 25 00 00 00 00 	mov    DWORD PTR ds:0x0,0x0
  40091c:	00 00 00 00 
  400920:	0f 0b                	ud2    
	__asm__ __volatile__("rdtscp" : "=a"(a), "=d"(d), "=c"(c) : : );
  400922:	0f 01 f9             	rdtscp 
	return t != &g->idle_thd && t != &g->sched_thd;
  400925:	48 89 c8             	mov    rax,rcx
  400928:	25 ff 0f 00 00       	and    eax,0xfff
  40092d:	48 8d 04 80          	lea    rax,[rax+rax*4]
  400931:	48 c1 e0 06          	shl    rax,0x6
  400935:	48 8d 90 80 65 71 00 	lea    rdx,[rax+0x716580]
  40093c:	48 39 d3             	cmp    rbx,rdx
  40093f:	0f 84 01 01 00 00    	je     400a46 <slm_idle_comp_initialization+0x496>
  400945:	48 05 08 65 71 00    	add    rax,0x716508
  40094b:	48 39 c3             	cmp    rbx,rax
  40094e:	0f 84 f2 00 00 00    	je     400a46 <slm_idle_comp_initialization+0x496>
  400954:	be 61 00 00 00       	mov    esi,0x61
  400959:	bf a0 cf 41 00       	mov    edi,0x41cfa0
  40095e:	e8 1d a3 00 00       	call   40ac80 <cos_print_str>
		/* Assuming only the single tcap with infinite budget...should not get EPERM */
		assert(ret != -EPERM);
  400963:	c7 04 25 00 00 00 00 	mov    DWORD PTR ds:0x0,0x0
  40096a:	00 00 00 00 
  40096e:	0f 0b                	ud2    
		if (t == &g->sched_thd) {
  400970:	0f b7 c0             	movzx  eax,ax
	timeout = g->timeout_next;
  400973:	4c 89 c1             	mov    rcx,r8
		if (t == &g->sched_thd) {
  400976:	48 8d 04 80          	lea    rax,[rax+rax*4]
  40097a:	48 c1 e0 06          	shl    rax,0x6
  40097e:	48 05 08 65 71 00    	add    rax,0x716508
  400984:	48 39 c3             	cmp    rbx,rax
  400987:	0f 84 ae 00 00 00    	je     400a3b <slm_idle_comp_initialization+0x48b>
		if (t->properties & SLM_THD_PROPERTY_SEND) {
  40098d:	f6 c2 02             	test   dl,0x2
  400990:	0f 85 db 00 00 00    	jne    400a71 <slm_idle_comp_initialization+0x4c1>
		} else if (t->properties & SLM_THD_PROPERTY_OWN_TCAP) {
  400996:	83 e2 01             	and    edx,0x1
  400999:	49 89 c8             	mov    r8,rcx
  40099c:	0f 84 df fe ff ff    	je     400881 <slm_idle_comp_initialization+0x2d1>
			return cos_switch(t->thd, t->tc, prio, timeout, g->sched_thd.rcv, tok);
  4009a2:	4b 8d 04 bf          	lea    rax,[r15+r15*4]
  4009a6:	4c 8b 53 08          	mov    r10,QWORD PTR [rbx+0x8]
  4009aa:	48 8b 7b 10          	mov    rdi,QWORD PTR [rbx+0x10]
  4009ae:	48 89 f2             	mov    rdx,rsi
  4009b1:	48 c1 e0 06          	shl    rax,0x6
  4009b5:	45 89 e1             	mov    r9d,r12d
  4009b8:	4c 8b 80 28 65 71 00 	mov    r8,QWORD PTR [rax+0x716528]
  4009bf:	4c 89 d6             	mov    rsi,r10
  4009c2:	e8 69 11 01 00       	call   411b30 <cos_switch>
	if (unlikely(ret != 0)) {
  4009c7:	85 c0                	test   eax,eax
  4009c9:	0f 84 d2 fe ff ff    	je     4008a1 <slm_idle_comp_initialization+0x2f1>
		assert(ret != -EPERM);
  4009cf:	83 f8 ff             	cmp    eax,0xffffffff
  4009d2:	74 80                	je     400954 <slm_idle_comp_initialization+0x3a4>
		assert(ret != -EINVAL);
  4009d4:	83 f8 ea             	cmp    eax,0xffffffea
  4009d7:	0f 84 f3 00 00 00    	je     400ad0 <slm_idle_comp_initialization+0x520>

		/*
		 * If the slm_thd_activate returns -EBUSY, this means we are trying to switch to the scheduler thread,
		 * and scheduler thread still has pending events. Directly return to process pending events.
		 */
		if (ret == -EBUSY) return ret;
  4009dd:	83 f8 f0             	cmp    eax,0xfffffff0
  4009e0:	0f 84 bb fe ff ff    	je     4008a1 <slm_idle_comp_initialization+0x2f1>
		/* If the slm_thd_activate returns -EAGAIN, this means this scheduling token is outdated, try again */
		assert(ret == -EAGAIN);
  4009e6:	83 f8 f5             	cmp    eax,0xfffffff5
  4009e9:	0f 85 c5 00 00 00    	jne    400ab4 <slm_idle_comp_initialization+0x504>
  4009ef:	4d 85 ed             	test   r13,r13
  4009f2:	0f 84 f2 fe ff ff    	je     4008ea <slm_idle_comp_initialization+0x33a>
  4009f8:	0f 01 f9             	rdtscp 
	cs = &(slm_global()->lock);
  4009fb:	48 89 c8             	mov    rax,rcx
  4009fe:	25 ff 0f 00 00       	and    eax,0xfff
  400a03:	48 8d 04 80          	lea    rax,[rax+rax*4]
  400a07:	48 c1 e0 06          	shl    rax,0x6
  400a0b:	48 8d 98 00 65 71 00 	lea    rbx,[rax+0x716500]
		tok    = cos_sched_sync();
  400a12:	e8 f9 10 01 00       	call   411b10 <cos_sched_sync>
	unsigned long oc = ps_load(&cs->owner_contention);
  400a17:	48 8b 33             	mov    rsi,QWORD PTR [rbx]
  400a1a:	41 89 c1             	mov    r9d,eax
		if (unlikely(owner)) {
  400a1d:	48 89 f1             	mov    rcx,rsi
  400a20:	48 83 e1 fe          	and    rcx,0xfffffffffffffffe
  400a24:	75 6e                	jne    400a94 <slm_idle_comp_initialization+0x4e4>
  400a26:	48 89 f0             	mov    rax,rsi
  400a29:	f0 4c 0f b1 2b       	lock cmpxchg QWORD PTR [rbx],r13
  400a2e:	0f 94 c0             	sete   al
		if (likely(!__slm_cs_cas(cs, cached, current, 0))) return 0;
  400a31:	84 c0                	test   al,al
  400a33:	0f 85 99 fd ff ff    	jne    4007d2 <slm_idle_comp_initialization+0x222>
  400a39:	eb d7                	jmp    400a12 <slm_idle_comp_initialization+0x462>
			prio    = curr->priority;
  400a3b:	49 8b 75 30          	mov    rsi,QWORD PTR [r13+0x30]
			timeout = TCAP_TIME_NIL;
  400a3f:	31 c9                	xor    ecx,ecx
  400a41:	e9 47 ff ff ff       	jmp    40098d <slm_idle_comp_initialization+0x3dd>
		ret = cos_switch(g->sched_thd.thd, 0, curr->priority, TCAP_TIME_NIL, g->sched_thd.rcv, tok);
  400a46:	4b 8d 04 bf          	lea    rax,[r15+r15*4]
  400a4a:	49 8b 55 30          	mov    rdx,QWORD PTR [r13+0x30]
  400a4e:	45 89 e1             	mov    r9d,r12d
  400a51:	31 c9                	xor    ecx,ecx
  400a53:	48 c1 e0 06          	shl    rax,0x6
  400a57:	31 f6                	xor    esi,esi
  400a59:	4c 8b 80 28 65 71 00 	mov    r8,QWORD PTR [rax+0x716528]
  400a60:	48 8b b8 18 65 71 00 	mov    rdi,QWORD PTR [rax+0x716518]
  400a67:	e8 c4 10 01 00       	call   411b30 <cos_switch>
  400a6c:	e9 56 ff ff ff       	jmp    4009c7 <slm_idle_comp_initialization+0x417>
			return cos_sched_asnd(t->asnd, g->timeout_next, g->sched_thd.rcv, tok);
  400a71:	4b 8d 04 bf          	lea    rax,[r15+r15*4]
  400a75:	48 8b 7b 28          	mov    rdi,QWORD PTR [rbx+0x28]
  400a79:	44 89 e1             	mov    ecx,r12d
  400a7c:	4c 89 c6             	mov    rsi,r8
  400a7f:	48 c1 e0 06          	shl    rax,0x6
  400a83:	48 8b 90 28 65 71 00 	mov    rdx,QWORD PTR [rax+0x716528]
  400a8a:	e8 11 11 01 00       	call   411ba0 <cos_sched_asnd>
  400a8f:	e9 33 ff ff ff       	jmp    4009c7 <slm_idle_comp_initialization+0x417>
			ret = slm_cs_enter_contention(cs, cached, current, owner, contended, tok);
  400a94:	41 89 f0             	mov    r8d,esi
  400a97:	4c 89 ea             	mov    rdx,r13
  400a9a:	48 89 df             	mov    rdi,rbx
  400a9d:	41 83 e0 01          	and    r8d,0x1
  400aa1:	e8 9a 45 01 00       	call   415040 <slm_cs_enter_contention>
			assert(ret != -EBUSY);
  400aa6:	83 f8 f0             	cmp    eax,0xfffffff0
  400aa9:	0f 85 63 ff ff ff    	jne    400a12 <slm_idle_comp_initialization+0x462>
  400aaf:	e9 1a fe ff ff       	jmp    4008ce <slm_idle_comp_initialization+0x31e>
  400ab4:	be 61 00 00 00       	mov    esi,0x61
  400ab9:	bf 70 d0 41 00       	mov    edi,0x41d070
  400abe:	e8 bd a1 00 00       	call   40ac80 <cos_print_str>
		assert(ret == -EAGAIN);
  400ac3:	c7 04 25 00 00 00 00 	mov    DWORD PTR ds:0x0,0x0
  400aca:	00 00 00 00 
  400ace:	0f 0b                	ud2    
  400ad0:	be 61 00 00 00       	mov    esi,0x61
  400ad5:	bf 08 d0 41 00       	mov    edi,0x41d008
  400ada:	e8 a1 a1 00 00       	call   40ac80 <cos_print_str>
		assert(ret != -EINVAL);
  400adf:	c7 04 25 00 00 00 00 	mov    DWORD PTR ds:0x0,0x0
  400ae6:	00 00 00 00 
  400aea:	0f 0b                	ud2    
  400aec:	0f 1f 40 00          	nop    DWORD PTR [rax+0x0]

0000000000400af0 <printc.constprop.0>:
printc(char *fmt, ...)
  400af0:	55                   	push   rbp
  400af1:	48 89 e5             	mov    rbp,rsp
  400af4:	48 81 ec 90 01 00 00 	sub    rsp,0x190
  400afb:	48 89 b5 58 ff ff ff 	mov    QWORD PTR [rbp-0xa8],rsi
  400b02:	48 89 95 60 ff ff ff 	mov    QWORD PTR [rbp-0xa0],rdx
  400b09:	48 89 8d 68 ff ff ff 	mov    QWORD PTR [rbp-0x98],rcx
  400b10:	4c 89 85 70 ff ff ff 	mov    QWORD PTR [rbp-0x90],r8
  400b17:	4c 89 8d 78 ff ff ff 	mov    QWORD PTR [rbp-0x88],r9
  400b1e:	84 c0                	test   al,al
  400b20:	74 20                	je     400b42 <printc.constprop.0+0x52>
  400b22:	0f 29 45 80          	movaps XMMWORD PTR [rbp-0x80],xmm0
  400b26:	0f 29 4d 90          	movaps XMMWORD PTR [rbp-0x70],xmm1
  400b2a:	0f 29 55 a0          	movaps XMMWORD PTR [rbp-0x60],xmm2
  400b2e:	0f 29 5d b0          	movaps XMMWORD PTR [rbp-0x50],xmm3
  400b32:	0f 29 65 c0          	movaps XMMWORD PTR [rbp-0x40],xmm4
  400b36:	0f 29 6d d0          	movaps XMMWORD PTR [rbp-0x30],xmm5
  400b3a:	0f 29 75 e0          	movaps XMMWORD PTR [rbp-0x20],xmm6
  400b3e:	0f 29 7d f0          	movaps XMMWORD PTR [rbp-0x10],xmm7
	va_start(arg_ptr, fmt);
  400b42:	48 8d 45 10          	lea    rax,[rbp+0x10]
	ret = vsnprintf(s, 180, fmt, arg_ptr);
  400b46:	ba e0 d0 41 00       	mov    edx,0x41d0e0
  400b4b:	be b4 00 00 00       	mov    esi,0xb4
	va_start(arg_ptr, fmt);
  400b50:	c7 85 78 fe ff ff 08 	mov    DWORD PTR [rbp-0x188],0x8
  400b57:	00 00 00 
  400b5a:	48 89 85 80 fe ff ff 	mov    QWORD PTR [rbp-0x180],rax
	ret = vsnprintf(s, 180, fmt, arg_ptr);
  400b61:	48 8d 8d 78 fe ff ff 	lea    rcx,[rbp-0x188]
	va_start(arg_ptr, fmt);
  400b68:	48 8d 85 50 ff ff ff 	lea    rax,[rbp-0xb0]
	ret = vsnprintf(s, 180, fmt, arg_ptr);
  400b6f:	48 8d bd 90 fe ff ff 	lea    rdi,[rbp-0x170]
	va_start(arg_ptr, fmt);
  400b76:	48 89 85 88 fe ff ff 	mov    QWORD PTR [rbp-0x178],rax
  400b7d:	c7 85 7c fe ff ff 30 	mov    DWORD PTR [rbp-0x184],0x30
  400b84:	00 00 00 
	ret = vsnprintf(s, 180, fmt, arg_ptr);
  400b87:	e8 e4 62 01 00       	call   416e70 <vsnprintf>
	ret = cos_print_str(s, ret);
  400b8c:	48 8d bd 90 fe ff ff 	lea    rdi,[rbp-0x170]
  400b93:	be 1b 00 00 00       	mov    esi,0x1b
  400b98:	e8 e3 a0 00 00       	call   40ac80 <cos_print_str>
}
  400b9d:	c9                   	leave  
  400b9e:	c3                   	ret    
  400b9f:	90                   	nop

0000000000400ba0 <slm_ipi_process>:
	goto done;
}

void
slm_ipi_process(void *d)
{
  400ba0:	f3 0f 1e fa          	endbr64 
  400ba4:	55                   	push   rbp
  400ba5:	48 89 e5             	mov    rbp,rsp
  400ba8:	41 56                	push   r14
  400baa:	41 55                	push   r13
  400bac:	41 54                	push   r12
  400bae:	53                   	push   rbx
  400baf:	48 83 ec 10          	sub    rsp,0x10
  400bb3:	0f 01 f9             	rdtscp 
	int rcvd, ret;
	struct slm_ipi_percore *ipi_data = slm_ipi_percore_get(cos_cpuid());
  400bb6:	89 cf                	mov    edi,ecx
  400bb8:	81 e7 ff 0f 00 00    	and    edi,0xfff
  400bbe:	e8 cd 42 01 00       	call   414e90 <slm_ipi_percore_get>
	struct slm_ipi_thd     *r        = &ipi_data->ipi_thd;
	struct slm_ipi_event    event    = { 0 };
  400bc3:	48 c7 45 d8 00 00 00 	mov    QWORD PTR [rbp-0x28],0x0
  400bca:	00 
	struct slm_ipi_percore *ipi_data = slm_ipi_percore_get(cos_cpuid());
  400bcb:	49 89 c4             	mov    r12,rax
	__asm__("mov %%rsp, %0;" : "=r"(curr_stk_pointer));
  400bce:	48 89 e0             	mov    rax,rsp
	return *(long *)((curr_stk_pointer & ~(COS_STACK_SZ - 1)) + COS_STACK_SZ - offset * sizeof(unsigned long));
  400bd1:	48 25 00 e0 ff ff    	and    rax,0xffffffffffffe000
  400bd7:	0f b7 80 f0 1f 00 00 	movzx  eax,WORD PTR [rax+0x1ff0]
SS_STATIC_SLAB(thd, struct slm_thd_container, MAX_NUM_THREADS);
  400bde:	48 85 c0             	test   rax,rax
  400be1:	0f 84 03 02 00 00    	je     400dea <slm_ipi_process+0x24a>
  400be7:	83 e8 01             	sub    eax,0x1
  400bea:	3d c7 00 00 00       	cmp    eax,0xc7
  400bef:	0f 87 f5 01 00 00    	ja     400dea <slm_ipi_process+0x24a>
  400bf5:	48 8b 14 c5 20 f7 5b 	mov    rdx,QWORD PTR [rax*8+0x5bf720]
  400bfc:	00 
  400bfd:	31 db                	xor    ebx,ebx
}

static inline int
ss_state_is_allocated(ss_state_t state)
{
	return ((state & ~1) != 0) && ((state & 1) == SS_STATE_ALLOC);
  400bff:	48 f7 c2 fe ff ff ff 	test   rdx,0xfffffffffffffffe
  400c06:	0f 85 a6 01 00 00    	jne    400db2 <slm_ipi_process+0x212>
  400c0c:	0f 1f 40 00          	nop    DWORD PTR [rax+0x0]
	struct slm_thd         *current  = slm_thd_current();
	struct slm_thd         *thd;

	while (1) {
		cos_rcv(r->rcv, RCV_ALL_PENDING, &rcvd);
  400c10:	49 8b 3c 24          	mov    rdi,QWORD PTR [r12]
  400c14:	48 8d 55 d4          	lea    rdx,[rbp-0x2c]
  400c18:	be 02 00 00 00       	mov    esi,0x2
  400c1d:	e8 ee 10 01 00       	call   411d10 <cos_rcv>
	__asm__ __volatile__("rdtscp" : "=a"(a), "=d"(d), "=c"(c) : : );
  400c22:	0f 01 f9             	rdtscp 

		while (!slm_ipi_event_empty(cos_cpuid())) {
  400c25:	89 cf                	mov    edi,ecx
  400c27:	81 e7 ff 0f 00 00    	and    edi,0xfff
  400c2d:	e8 2e 42 01 00       	call   414e60 <slm_ipi_event_empty>
  400c32:	85 c0                	test   eax,eax
  400c34:	75 da                	jne    400c10 <slm_ipi_process+0x70>
  400c36:	0f 01 f9             	rdtscp 
			slm_ipi_event_dequeue(&event, cos_cpuid());
  400c39:	89 ce                	mov    esi,ecx
  400c3b:	48 8d 7d d8          	lea    rdi,[rbp-0x28]
  400c3f:	81 e6 ff 0f 00 00    	and    esi,0xfff
  400c45:	e8 b6 41 01 00       	call   414e00 <slm_ipi_event_dequeue>
	return &ss_thd_get(id)->thd;
  400c4a:	48 8b 45 d8          	mov    rax,QWORD PTR [rbp-0x28]
SS_STATIC_SLAB(thd, struct slm_thd_container, MAX_NUM_THREADS);
  400c4e:	85 c0                	test   eax,eax
  400c50:	0f 84 fa 00 00 00    	je     400d50 <slm_ipi_process+0x1b0>
  400c56:	83 e8 01             	sub    eax,0x1
  400c59:	3d c7 00 00 00       	cmp    eax,0xc7
  400c5e:	0f 87 ec 00 00 00    	ja     400d50 <slm_ipi_process+0x1b0>
  400c64:	48 8b 14 c5 20 f7 5b 	mov    rdx,QWORD PTR [rax*8+0x5bf720]
  400c6b:	00 
  400c6c:	45 31 f6             	xor    r14d,r14d
  400c6f:	48 f7 c2 fe ff ff ff 	test   rdx,0xfffffffffffffffe
  400c76:	74 18                	je     400c90 <slm_ipi_process+0xf0>
  400c78:	83 e2 01             	and    edx,0x1
  400c7b:	75 13                	jne    400c90 <slm_ipi_process+0xf0>
  400c7d:	48 8d 14 80          	lea    rdx,[rax+rax*4]
  400c81:	4c 8d 34 50          	lea    r14,[rax+rdx*2]
  400c85:	49 c1 e6 04          	shl    r14,0x4
  400c89:	49 81 c6 60 fd 5b 00 	add    r14,0x5bfd60
	assert(current);
  400c90:	48 85 db             	test   rbx,rbx
  400c93:	0f 84 c3 00 00 00    	je     400d5c <slm_ipi_process+0x1bc>
  400c99:	0f 01 f9             	rdtscp 
	cs = &(slm_global()->lock);
  400c9c:	81 e1 ff 0f 00 00    	and    ecx,0xfff
  400ca2:	4c 8d 2c 89          	lea    r13,[rcx+rcx*4]
  400ca6:	49 c1 e5 06          	shl    r13,0x6
  400caa:	49 81 c5 00 65 71 00 	add    r13,0x716500
		tok    = cos_sched_sync();
  400cb1:	e8 5a 0e 01 00       	call   411b10 <cos_sched_sync>
  400cb6:	41 89 c1             	mov    r9d,eax
	unsigned long oc = ps_load(&cs->owner_contention);
  400cb9:	49 8b 45 00          	mov    rax,QWORD PTR [r13+0x0]
		if (unlikely(owner)) {
  400cbd:	48 89 c1             	mov    rcx,rax
  400cc0:	48 83 e1 fe          	and    rcx,0xfffffffffffffffe
  400cc4:	0f 85 ae 00 00 00    	jne    400d78 <slm_ipi_process+0x1d8>
  400cca:	f0 49 0f b1 5d 00    	lock cmpxchg QWORD PTR [r13+0x0],rbx
  400cd0:	0f 94 c0             	sete   al
		if (likely(!__slm_cs_cas(cs, cached, current, 0))) return 0;
  400cd3:	84 c0                	test   al,al
  400cd5:	74 da                	je     400cb1 <slm_ipi_process+0x111>

			thd = slm_thd_static_cm_lookup(event.tid);
			slm_cs_enter(current, SLM_CS_NONE);
			ret = slm_thd_wakeup(thd, 0);
  400cd7:	31 f6                	xor    esi,esi
  400cd9:	4c 89 f7             	mov    rdi,r14
  400cdc:	e8 bf 4a 01 00       	call   4157a0 <slm_thd_wakeup>
			/*
			 * Return "0" means the thread is woken up in this call.
			 * Return "1" means the thread is already `RUNNABLE`.
			 */
			assert(ret == 0 || ret == 1);
  400ce1:	83 f8 01             	cmp    eax,0x1
  400ce4:	0f 87 e4 00 00 00    	ja     400dce <slm_ipi_process+0x22e>
  400cea:	0f 01 f9             	rdtscp 
	struct slm_cs *cs = &(slm_global()->lock);
  400ced:	81 e1 ff 0f 00 00    	and    ecx,0xfff
  400cf3:	4c 8d 2c 89          	lea    r13,[rcx+rcx*4]
  400cf7:	49 c1 e5 06          	shl    r13,0x6
  400cfb:	49 81 c5 00 65 71 00 	add    r13,0x716500
	while (ret != 0) {
  400d02:	eb 15                	jmp    400d19 <slm_ipi_process+0x179>
  400d04:	0f 1f 40 00          	nop    DWORD PTR [rax+0x0]
  400d08:	f0 49 0f b1 55 00    	lock cmpxchg QWORD PTR [r13+0x0],rdx
  400d0e:	0f 94 c0             	sete   al
  400d11:	84 c0                	test   al,al
  400d13:	0f 85 09 ff ff ff    	jne    400c22 <slm_ipi_process+0x82>
		tok    = cos_sched_sync();
  400d19:	e8 f2 0d 01 00       	call   411b10 <cos_sched_sync>
  400d1e:	89 c1                	mov    ecx,eax
  400d20:	49 8b 45 00          	mov    rax,QWORD PTR [r13+0x0]
		if (unlikely(contention)) {
  400d24:	48 89 c2             	mov    rdx,rax
  400d27:	83 e2 01             	and    edx,0x1
  400d2a:	74 dc                	je     400d08 <slm_ipi_process+0x168>
	*thd        = (struct slm_thd *)(oc & (~0UL << 1));
  400d2c:	48 89 c6             	mov    rsi,rax
			if (!slm_cs_exit_contention(cs, current, cached, tok)) return;
  400d2f:	48 89 c2             	mov    rdx,rax
  400d32:	4c 89 ef             	mov    rdi,r13
  400d35:	48 83 e6 fe          	and    rsi,0xfffffffffffffffe
  400d39:	e8 62 43 01 00       	call   4150a0 <slm_cs_exit_contention>
  400d3e:	85 c0                	test   eax,eax
  400d40:	0f 84 dc fe ff ff    	je     400c22 <slm_ipi_process+0x82>
  400d46:	eb d1                	jmp    400d19 <slm_ipi_process+0x179>
  400d48:	0f 1f 84 00 00 00 00 	nop    DWORD PTR [rax+rax*1+0x0]
  400d4f:	00 
SS_STATIC_SLAB(thd, struct slm_thd_container, MAX_NUM_THREADS);
  400d50:	45 31 f6             	xor    r14d,r14d
	assert(current);
  400d53:	48 85 db             	test   rbx,rbx
  400d56:	0f 85 3d ff ff ff    	jne    400c99 <slm_ipi_process+0xf9>
	return cos_print_str(s, strlen(s));
  400d5c:	be 59 00 00 00       	mov    esi,0x59
  400d61:	bf 00 d1 41 00       	mov    edi,0x41d100
  400d66:	e8 15 9f 00 00       	call   40ac80 <cos_print_str>
  400d6b:	c7 04 25 00 00 00 00 	mov    DWORD PTR ds:0x0,0x0
  400d72:	00 00 00 00 
  400d76:	0f 0b                	ud2    
			ret = slm_cs_enter_contention(cs, cached, current, owner, contended, tok);
  400d78:	41 89 c0             	mov    r8d,eax
  400d7b:	48 89 da             	mov    rdx,rbx
  400d7e:	48 89 c6             	mov    rsi,rax
  400d81:	4c 89 ef             	mov    rdi,r13
  400d84:	41 83 e0 01          	and    r8d,0x1
  400d88:	e8 b3 42 01 00       	call   415040 <slm_cs_enter_contention>
			assert(ret != -EBUSY);
  400d8d:	83 f8 f0             	cmp    eax,0xfffffff0
  400d90:	0f 85 1b ff ff ff    	jne    400cb1 <slm_ipi_process+0x111>
  400d96:	be 59 00 00 00       	mov    esi,0x59
  400d9b:	bf 60 d1 41 00       	mov    edi,0x41d160
  400da0:	e8 db 9e 00 00       	call   40ac80 <cos_print_str>
  400da5:	c7 04 25 00 00 00 00 	mov    DWORD PTR ds:0x0,0x0
  400dac:	00 00 00 00 
  400db0:	0f 0b                	ud2    
  400db2:	80 e2 01             	and    dl,0x1
  400db5:	0f 85 55 fe ff ff    	jne    400c10 <slm_ipi_process+0x70>
  400dbb:	48 69 c0 b0 00 00 00 	imul   rax,rax,0xb0
  400dc2:	48 8d 98 60 fd 5b 00 	lea    rbx,[rax+0x5bfd60]
  400dc9:	e9 42 fe ff ff       	jmp    400c10 <slm_ipi_process+0x70>
  400dce:	be 24 00 00 00       	mov    esi,0x24
  400dd3:	bf c0 d1 41 00       	mov    edi,0x41d1c0
  400dd8:	e8 a3 9e 00 00       	call   40ac80 <cos_print_str>
			assert(ret == 0 || ret == 1);
  400ddd:	c7 04 25 00 00 00 00 	mov    DWORD PTR ds:0x0,0x0
  400de4:	00 00 00 00 
  400de8:	0f 0b                	ud2    
SS_STATIC_SLAB(thd, struct slm_thd_container, MAX_NUM_THREADS);
  400dea:	31 db                	xor    ebx,ebx
  400dec:	e9 1f fe ff ff       	jmp    400c10 <slm_ipi_process+0x70>
  400df1:	66 66 2e 0f 1f 84 00 	data16 cs nop WORD PTR [rax+rax*1+0x0]
  400df8:	00 00 00 00 
  400dfc:	0f 1f 40 00          	nop    DWORD PTR [rax+0x0]

0000000000400e00 <slm_blkpt_alloc>:
	return &__blkpts[id-1];
}

sched_blkpt_id_t
slm_blkpt_alloc(struct slm_thd *current)
{
  400e00:	f3 0f 1e fa          	endbr64 
  400e04:	55                   	push   rbp
  400e05:	48 89 e5             	mov    rbp,rsp
  400e08:	41 54                	push   r12
  400e0a:	53                   	push   rbx
	assert(current);
  400e0b:	48 85 ff             	test   rdi,rdi
  400e0e:	0f 84 26 01 00 00    	je     400f3a <slm_blkpt_alloc+0x13a>
  400e14:	49 89 fc             	mov    r12,rdi
  400e17:	0f 01 f9             	rdtscp 
	cs = &(slm_global()->lock);
  400e1a:	81 e1 ff 0f 00 00    	and    ecx,0xfff
  400e20:	48 8d 1c 89          	lea    rbx,[rcx+rcx*4]
  400e24:	48 c1 e3 06          	shl    rbx,0x6
  400e28:	48 81 c3 00 65 71 00 	add    rbx,0x716500
		tok    = cos_sched_sync();
  400e2f:	e8 dc 0c 01 00       	call   411b10 <cos_sched_sync>
  400e34:	41 89 c1             	mov    r9d,eax
	unsigned long oc = ps_load(&cs->owner_contention);
  400e37:	48 8b 03             	mov    rax,QWORD PTR [rbx]
		if (unlikely(owner)) {
  400e3a:	48 89 c1             	mov    rcx,rax
  400e3d:	48 83 e1 fe          	and    rcx,0xfffffffffffffffe
  400e41:	0f 85 b9 00 00 00    	jne    400f00 <slm_blkpt_alloc+0x100>
  400e47:	f0 4c 0f b1 23       	lock cmpxchg QWORD PTR [rbx],r12
  400e4c:	0f 94 c0             	sete   al
		if (likely(!__slm_cs_cas(cs, cached, current, 0))) return 0;
  400e4f:	84 c0                	test   al,al
  400e51:	74 dc                	je     400e2f <slm_blkpt_alloc+0x2f>
	struct blkpt_mem *m;
	sched_blkpt_id_t ret = SCHED_BLKPT_NULL;

	slm_cs_enter(current, SLM_CS_NONE);

	id = (sched_blkpt_id_t)__blkpt_offset;
  400e53:	44 8b 25 a6 51 02 00 	mov    r12d,DWORD PTR [rip+0x251a6]        # 426000 <__blkpt_offset>
	if (id - 1 == NBLKPTS) return NULL;
  400e5a:	41 81 fc 01 a0 00 00 	cmp    r12d,0xa001
  400e61:	0f 84 ef 00 00 00    	je     400f56 <slm_blkpt_alloc+0x156>
	return &__blkpts[id-1];
  400e67:	41 8d 44 24 ff       	lea    eax,[r12-0x1]
  400e6c:	48 c1 e0 05          	shl    rax,0x5
	m  = blkpt_get(id);
	if (!m) ERR_THROW(SCHED_BLKPT_NULL, unlock);

	m->id    = id;
  400e70:	44 89 a0 e0 86 5c 00 	mov    DWORD PTR [rax+0x5c86e0],r12d
	ret      = id;
	m->epoch = 0;
  400e77:	48 c7 80 e8 86 5c 00 	mov    QWORD PTR [rax+0x5c86e8],0x0
  400e7e:	00 00 00 00 
};

static inline void
stacklist_init(struct stacklist_head *h)
{
	h->head = NULL;
  400e82:	48 c7 80 f0 86 5c 00 	mov    QWORD PTR [rax+0x5c86f0],0x0
  400e89:	00 00 00 00 
ps_lock_release(struct ps_lock *l)
{ l->o = 0; }

static inline void
ps_lock_init(struct ps_lock *l)
{ l->o = 0; }
  400e8d:	48 c7 80 f8 86 5c 00 	mov    QWORD PTR [rax+0x5c86f8],0x0
  400e94:	00 00 00 00 
	stacklist_init(&m->blocked);
	ps_lock_init(&m->lock);
	__blkpt_offset++;
  400e98:	41 8d 44 24 01       	lea    eax,[r12+0x1]
  400e9d:	89 05 5d 51 02 00    	mov    DWORD PTR [rip+0x2515d],eax        # 426000 <__blkpt_offset>
  400ea3:	0f 01 f9             	rdtscp 
	struct slm_cs *cs = &(slm_global()->lock);
  400ea6:	81 e1 ff 0f 00 00    	and    ecx,0xfff
  400eac:	48 8d 1c 89          	lea    rbx,[rcx+rcx*4]
  400eb0:	48 c1 e3 06          	shl    rbx,0x6
  400eb4:	48 81 c3 00 65 71 00 	add    rbx,0x716500
	while (ret != 0) {
  400ebb:	eb 0f                	jmp    400ecc <slm_blkpt_alloc+0xcc>
  400ebd:	0f 1f 00             	nop    DWORD PTR [rax]
        __asm__ __volatile__("lock " PS_CAS_STR
  400ec0:	f0 48 0f b1 13       	lock cmpxchg QWORD PTR [rbx],rdx
  400ec5:	0f 94 c0             	sete   al
  400ec8:	84 c0                	test   al,al
  400eca:	75 28                	jne    400ef4 <slm_blkpt_alloc+0xf4>
		tok    = cos_sched_sync();
  400ecc:	e8 3f 0c 01 00       	call   411b10 <cos_sched_sync>
  400ed1:	89 c1                	mov    ecx,eax
  400ed3:	48 8b 03             	mov    rax,QWORD PTR [rbx]
		if (unlikely(contention)) {
  400ed6:	48 89 c2             	mov    rdx,rax
  400ed9:	83 e2 01             	and    edx,0x1
  400edc:	74 e2                	je     400ec0 <slm_blkpt_alloc+0xc0>
	*thd        = (struct slm_thd *)(oc & (~0UL << 1));
  400ede:	48 89 c6             	mov    rsi,rax
			if (!slm_cs_exit_contention(cs, current, cached, tok)) return;
  400ee1:	48 89 c2             	mov    rdx,rax
  400ee4:	48 89 df             	mov    rdi,rbx
  400ee7:	48 83 e6 fe          	and    rsi,0xfffffffffffffffe
  400eeb:	e8 b0 41 01 00       	call   4150a0 <slm_cs_exit_contention>
  400ef0:	85 c0                	test   eax,eax
  400ef2:	75 d8                	jne    400ecc <slm_blkpt_alloc+0xcc>
unlock:
	slm_cs_exit(NULL, SLM_CS_NONE);

	return ret;
}
  400ef4:	44 89 e0             	mov    eax,r12d
  400ef7:	5b                   	pop    rbx
  400ef8:	41 5c                	pop    r12
  400efa:	5d                   	pop    rbp
  400efb:	c3                   	ret    
  400efc:	0f 1f 40 00          	nop    DWORD PTR [rax+0x0]
			ret = slm_cs_enter_contention(cs, cached, current, owner, contended, tok);
  400f00:	41 89 c0             	mov    r8d,eax
  400f03:	4c 89 e2             	mov    rdx,r12
  400f06:	48 89 c6             	mov    rsi,rax
  400f09:	48 89 df             	mov    rdi,rbx
  400f0c:	41 83 e0 01          	and    r8d,0x1
  400f10:	e8 2b 41 01 00       	call   415040 <slm_cs_enter_contention>
			assert(ret != -EBUSY);
  400f15:	83 f8 f0             	cmp    eax,0xfffffff0
  400f18:	0f 85 11 ff ff ff    	jne    400e2f <slm_blkpt_alloc+0x2f>
  400f1e:	be 59 00 00 00       	mov    esi,0x59
  400f23:	bf 60 d1 41 00       	mov    edi,0x41d160
  400f28:	e8 53 9d 00 00       	call   40ac80 <cos_print_str>
  400f2d:	c7 04 25 00 00 00 00 	mov    DWORD PTR ds:0x0,0x0
  400f34:	00 00 00 00 
  400f38:	0f 0b                	ud2    
  400f3a:	be 59 00 00 00       	mov    esi,0x59
  400f3f:	bf 00 d1 41 00       	mov    edi,0x41d100
  400f44:	e8 37 9d 00 00       	call   40ac80 <cos_print_str>
	assert(current);
  400f49:	c7 04 25 00 00 00 00 	mov    DWORD PTR ds:0x0,0x0
  400f50:	00 00 00 00 
  400f54:	0f 0b                	ud2    
	if (!m) ERR_THROW(SCHED_BLKPT_NULL, unlock);
  400f56:	45 31 e4             	xor    r12d,r12d
  400f59:	e9 45 ff ff ff       	jmp    400ea3 <slm_blkpt_alloc+0xa3>
  400f5e:	66 90                	xchg   ax,ax

0000000000400f60 <slm_blkpt_free>:

int
slm_blkpt_free(sched_blkpt_id_t id)
{
  400f60:	f3 0f 1e fa          	endbr64 
	/* alloc only for now */
	return 0;
}
  400f64:	31 c0                	xor    eax,eax
  400f66:	c3                   	ret    
  400f67:	66 0f 1f 84 00 00 00 	nop    WORD PTR [rax+rax*1+0x0]
  400f6e:	00 00 

0000000000400f70 <slm_blkpt_trigger>:

int
slm_blkpt_trigger(sched_blkpt_id_t blkpt, struct slm_thd *current, sched_blkpt_epoch_t epoch, int single)
{
  400f70:	f3 0f 1e fa          	endbr64 
  400f74:	55                   	push   rbp
  400f75:	48 89 e5             	mov    rbp,rsp
  400f78:	41 57                	push   r15
  400f7a:	41 56                	push   r14
  400f7c:	41 55                	push   r13
  400f7e:	41 54                	push   r12
  400f80:	53                   	push   rbx
  400f81:	48 83 ec 08          	sub    rsp,0x8
  400f85:	48 85 f6             	test   rsi,rsi
  400f88:	0f 84 bc 02 00 00    	je     40124a <slm_blkpt_trigger+0x2da>
  400f8e:	41 89 ff             	mov    r15d,edi
  400f91:	48 89 f3             	mov    rbx,rsi
  400f94:	49 89 d5             	mov    r13,rdx
  400f97:	41 89 cc             	mov    r12d,ecx
  400f9a:	0f 01 f9             	rdtscp 
	cs = &(slm_global()->lock);
  400f9d:	81 e1 ff 0f 00 00    	and    ecx,0xfff
  400fa3:	4c 8d 34 89          	lea    r14,[rcx+rcx*4]
  400fa7:	49 c1 e6 06          	shl    r14,0x6
  400fab:	49 81 c6 00 65 71 00 	add    r14,0x716500
		tok    = cos_sched_sync();
  400fb2:	e8 59 0b 01 00       	call   411b10 <cos_sched_sync>
  400fb7:	41 89 c1             	mov    r9d,eax
	unsigned long oc = ps_load(&cs->owner_contention);
  400fba:	49 8b 06             	mov    rax,QWORD PTR [r14]
		if (unlikely(owner)) {
  400fbd:	48 89 c1             	mov    rcx,rax
  400fc0:	48 83 e1 fe          	and    rcx,0xfffffffffffffffe
  400fc4:	0f 85 46 02 00 00    	jne    401210 <slm_blkpt_trigger+0x2a0>
  400fca:	f0 49 0f b1 1e       	lock cmpxchg QWORD PTR [r14],rbx
  400fcf:	0f 94 c0             	sete   al
		if (likely(!__slm_cs_cas(cs, cached, current, 0))) return 0;
  400fd2:	84 c0                	test   al,al
  400fd4:	74 dc                	je     400fb2 <slm_blkpt_trigger+0x42>
	if (id - 1 == NBLKPTS) return NULL;
  400fd6:	41 81 ff 01 a0 00 00 	cmp    r15d,0xa001
  400fdd:	0f 84 83 02 00 00    	je     401266 <slm_blkpt_trigger+0x2f6>
	return &__blkpts[id-1];
  400fe3:	41 8d 7f ff          	lea    edi,[r15-0x1]
  400fe7:	be 01 00 00 00       	mov    esi,0x1
  400fec:	31 c9                	xor    ecx,ecx
  400fee:	49 89 fe             	mov    r14,rdi
  400ff1:	49 c1 e6 05          	shl    r14,0x5
  400ff5:	4d 8d be e0 86 5c 00 	lea    r15,[r14+0x5c86e0]
{ while (!ps_cas(&l->o, 0, 1)) ; }
  400ffc:	49 8d 96 f8 86 5c 00 	lea    rdx,[r14+0x5c86f8]
  401003:	0f 1f 44 00 00       	nop    DWORD PTR [rax+rax*1+0x0]
        __asm__ __volatile__("lock " PS_CAS_STR
  401008:	48 89 c8             	mov    rax,rcx
  40100b:	f0 48 0f b1 32       	lock cmpxchg QWORD PTR [rdx],rsi
  401010:	0f 94 c0             	sete   al
{ while (!ps_cas(&l->o, 0, 1)) ; }
  401013:	84 c0                	test   al,al
  401015:	74 f1                	je     401008 <slm_blkpt_trigger+0x98>

		if (!blkpt_epoch_is_higher(pre, epoch)) {
			ps_lock_release(&m->lock);
			ERR_THROW(0, unlock); 
		}
		if (ps_cas(&m->epoch, pre, epoch)) break;
  401017:	49 8d 96 e8 86 5c 00 	lea    rdx,[r14+0x5c86e8]
  40101e:	eb 10                	jmp    401030 <slm_blkpt_trigger+0xc0>
        __asm__ __volatile__("lock " PS_CAS_STR
  401020:	f0 4c 0f b1 2a       	lock cmpxchg QWORD PTR [rdx],r13
  401025:	0f 94 c0             	sete   al
  401028:	84 c0                	test   al,al
  40102a:	0f 85 80 00 00 00    	jne    4010b0 <slm_blkpt_trigger+0x140>
		sched_blkpt_epoch_t pre = ps_load(&m->epoch);
  401030:	49 8b 47 08          	mov    rax,QWORD PTR [r15+0x8]
		if (!blkpt_epoch_is_higher(pre, epoch)) {
  401034:	4c 39 e8             	cmp    rax,r13
  401037:	76 e7                	jbe    401020 <slm_blkpt_trigger+0xb0>
{ l->o = 0; }
  401039:	49 c7 47 18 00 00 00 	mov    QWORD PTR [r15+0x18],0x0
  401040:	00 
			ERR_THROW(0, unlock); 
  401041:	45 31 e4             	xor    r12d,r12d
  401044:	0f 01 f9             	rdtscp 
	struct slm_cs *cs = &(slm_global()->lock);
  401047:	81 e1 ff 0f 00 00    	and    ecx,0xfff
  40104d:	48 8d 1c 89          	lea    rbx,[rcx+rcx*4]
  401051:	48 c1 e3 06          	shl    rbx,0x6
  401055:	48 81 c3 00 65 71 00 	add    rbx,0x716500
	while (ret != 0) {
  40105c:	eb 0e                	jmp    40106c <slm_blkpt_trigger+0xfc>
  40105e:	66 90                	xchg   ax,ax
        __asm__ __volatile__("lock " PS_CAS_STR
  401060:	f0 48 0f b1 13       	lock cmpxchg QWORD PTR [rbx],rdx
  401065:	0f 94 c0             	sete   al
  401068:	84 c0                	test   al,al
  40106a:	75 28                	jne    401094 <slm_blkpt_trigger+0x124>
		tok    = cos_sched_sync();
  40106c:	e8 9f 0a 01 00       	call   411b10 <cos_sched_sync>
  401071:	89 c1                	mov    ecx,eax
  401073:	48 8b 03             	mov    rax,QWORD PTR [rbx]
		if (unlikely(contention)) {
  401076:	48 89 c2             	mov    rdx,rax
  401079:	83 e2 01             	and    edx,0x1
  40107c:	74 e2                	je     401060 <slm_blkpt_trigger+0xf0>
	*thd        = (struct slm_thd *)(oc & (~0UL << 1));
  40107e:	48 89 c6             	mov    rsi,rax
			if (!slm_cs_exit_contention(cs, current, cached, tok)) return;
  401081:	48 89 c2             	mov    rdx,rax
  401084:	48 89 df             	mov    rdi,rbx
  401087:	48 83 e6 fe          	and    rsi,0xfffffffffffffffe
  40108b:	e8 10 40 01 00       	call   4150a0 <slm_cs_exit_contention>
  401090:	85 c0                	test   eax,eax
  401092:	75 d8                	jne    40106c <slm_blkpt_trigger+0xfc>
	return 0;
unlock:
	slm_cs_exit(NULL, SLM_CS_NONE);

	return ret;
}
  401094:	48 83 c4 08          	add    rsp,0x8
  401098:	44 89 e0             	mov    eax,r12d
  40109b:	5b                   	pop    rbx
  40109c:	41 5c                	pop    r12
  40109e:	41 5d                	pop    r13
  4010a0:	41 5e                	pop    r14
  4010a2:	41 5f                	pop    r15
  4010a4:	5d                   	pop    rbp
  4010a5:	c3                   	ret    
  4010a6:	66 2e 0f 1f 84 00 00 	cs nop WORD PTR [rax+rax*1+0x0]
  4010ad:	00 00 00 
	 * threads, but we'll implement this conservatively. Given
	 * this, please note that this should *not* iterate more than
	 * once.
	 */
	while (1) {
		sl = ps_load(&h->head);
  4010b0:	48 c1 e7 05          	shl    rdi,0x5
		/*
		 * Check sl again in case other thread updating the head,
		 * which might causes dereferencing a NULL pointer.
		 */
		if (!sl) return NULL;
		if (ps_cas((unsigned long *)&h->head, (unsigned long)sl, (unsigned long)sl->next)) break;
  4010b4:	49 81 c6 f0 86 5c 00 	add    r14,0x5c86f0
		sl = ps_load(&h->head);
  4010bb:	49 89 fd             	mov    r13,rdi
  4010be:	66 90                	xchg   ax,ax
	if (!h->head) return NULL;
  4010c0:	49 83 7f 10 00       	cmp    QWORD PTR [r15+0x10],0x0
  4010c5:	74 28                	je     4010ef <slm_blkpt_trigger+0x17f>
		sl = ps_load(&h->head);
  4010c7:	49 8d b5 e0 86 5c 00 	lea    rsi,[r13+0x5c86e0]
  4010ce:	eb 16                	jmp    4010e6 <slm_blkpt_trigger+0x176>
  4010d0:	48 8b 0a             	mov    rcx,QWORD PTR [rdx]
  4010d3:	48 89 d0             	mov    rax,rdx
  4010d6:	f0 49 0f b1 0e       	lock cmpxchg QWORD PTR [r14],rcx
  4010db:	0f 94 c0             	sete   al
		if (ps_cas((unsigned long *)&h->head, (unsigned long)sl, (unsigned long)sl->next)) break;
  4010de:	84 c0                	test   al,al
  4010e0:	0f 85 0a 01 00 00    	jne    4011f0 <slm_blkpt_trigger+0x280>
		sl = ps_load(&h->head);
  4010e6:	48 8b 56 10          	mov    rdx,QWORD PTR [rsi+0x10]
		if (!sl) return NULL;
  4010ea:	48 85 d2             	test   rdx,rdx
  4010ed:	75 e1                	jne    4010d0 <slm_blkpt_trigger+0x160>
{ l->o = 0; }
  4010ef:	49 c7 47 18 00 00 00 	mov    QWORD PTR [r15+0x18],0x0
  4010f6:	00 
	struct cos_compinfo    *ci  = &cos_defcompinfo_curr_get()->ci;
  4010f7:	e8 54 a4 00 00       	call   40b550 <cos_defcompinfo_curr_get>
  4010fc:	0f 01 f9             	rdtscp 
	if (unlikely(!t)) t = &g->idle_thd;
  4010ff:	81 e1 ff 0f 00 00    	and    ecx,0xfff
  401105:	4c 8d 24 89          	lea    r12,[rcx+rcx*4]
  401109:	49 c1 e4 06          	shl    r12,0x6
  40110d:	49 81 c4 80 65 71 00 	add    r12,0x716580
	tok  = cos_sched_sync();
  401114:	e8 f7 09 01 00       	call   411b10 <cos_sched_sync>
  401119:	41 89 c6             	mov    r14d,eax
SLM_MODULES_COMPOSE_FNS(quantum, fprr, static_cm);
  40111c:	e8 7f 2a 01 00       	call   413ba0 <slm_sched_fprr_schedule>
	if (unlikely(!t)) t = &g->idle_thd;
  401121:	48 85 c0             	test   rax,rax
  401124:	49 89 c5             	mov    r13,rax
  401127:	4d 0f 44 ec          	cmove  r13,r12
{ return s == SLM_THD_RUNNABLE || s == SLM_THD_WOKEN; }
  40112b:	41 8b 45 04          	mov    eax,DWORD PTR [r13+0x4]
  40112f:	83 e8 02             	sub    eax,0x2
	assert(slm_state_is_runnable(t->state));
  401132:	83 f8 01             	cmp    eax,0x1
  401135:	0f 87 36 01 00 00    	ja     401271 <slm_blkpt_trigger+0x301>
  40113b:	0f 01 f9             	rdtscp 
	struct slm_cs *cs = &(slm_global()->lock);
  40113e:	81 e1 ff 0f 00 00    	and    ecx,0xfff
  401144:	4c 8d 3c 89          	lea    r15,[rcx+rcx*4]
  401148:	49 c1 e7 06          	shl    r15,0x6
  40114c:	49 81 c7 00 65 71 00 	add    r15,0x716500
	while (ret != 0) {
  401153:	eb 0f                	jmp    401164 <slm_blkpt_trigger+0x1f4>
  401155:	0f 1f 00             	nop    DWORD PTR [rax]
        __asm__ __volatile__("lock " PS_CAS_STR
  401158:	f0 49 0f b1 17       	lock cmpxchg QWORD PTR [r15],rdx
  40115d:	0f 94 c0             	sete   al
  401160:	84 c0                	test   al,al
  401162:	75 28                	jne    40118c <slm_blkpt_trigger+0x21c>
		tok    = cos_sched_sync();
  401164:	e8 a7 09 01 00       	call   411b10 <cos_sched_sync>
  401169:	89 c1                	mov    ecx,eax
	unsigned long oc = ps_load(&cs->owner_contention);
  40116b:	49 8b 07             	mov    rax,QWORD PTR [r15]
		if (unlikely(contention)) {
  40116e:	48 89 c2             	mov    rdx,rax
  401171:	83 e2 01             	and    edx,0x1
  401174:	74 e2                	je     401158 <slm_blkpt_trigger+0x1e8>
	*thd        = (struct slm_thd *)(oc & (~0UL << 1));
  401176:	48 89 c6             	mov    rsi,rax
			if (!slm_cs_exit_contention(cs, current, cached, tok)) return;
  401179:	48 89 c2             	mov    rdx,rax
  40117c:	4c 89 ff             	mov    rdi,r15
  40117f:	48 83 e6 fe          	and    rsi,0xfffffffffffffffe
  401183:	e8 18 3f 01 00       	call   4150a0 <slm_cs_exit_contention>
  401188:	85 c0                	test   eax,eax
  40118a:	75 d8                	jne    401164 <slm_blkpt_trigger+0x1f4>
	struct cos_defcompinfo *dci = cos_defcompinfo_curr_get();
  40118c:	e8 bf a3 00 00       	call   40b550 <cos_defcompinfo_curr_get>
  401191:	0f 01 f9             	rdtscp 
	*coreid = c & 0xFFF;
  401194:	89 ca                	mov    edx,ecx
	timeout = g->timeout_next;
  401196:	81 e1 ff 0f 00 00    	and    ecx,0xfff
	prio = inherit_prio ? curr->priority : t->priority;
  40119c:	49 8b 75 30          	mov    rsi,QWORD PTR [r13+0x30]
	timeout = g->timeout_next;
  4011a0:	48 8d 04 89          	lea    rax,[rcx+rcx*4]
  4011a4:	66 81 e2 ff 0f       	and    dx,0xfff
  4011a9:	49 89 cf             	mov    r15,rcx
  4011ac:	48 c1 e0 06          	shl    rax,0x6
  4011b0:	4c 8b 80 08 66 71 00 	mov    r8,QWORD PTR [rax+0x716608]
	if (unlikely(t->properties & (SLM_THD_PROPERTY_SEND | SLM_THD_PROPERTY_OWN_TCAP | SLM_THD_PROPERTY_SPECIAL))) {
  4011b7:	41 8b 45 00          	mov    eax,DWORD PTR [r13+0x0]
  4011bb:	a8 0b                	test   al,0xb
  4011bd:	0f 85 ca 00 00 00    	jne    40128d <slm_blkpt_trigger+0x31d>
	ret = cos_defswitch(t->thd, prio, timeout, tok);
  4011c3:	49 8b 7d 10          	mov    rdi,QWORD PTR [r13+0x10]
  4011c7:	44 89 f1             	mov    ecx,r14d
  4011ca:	4c 89 c2             	mov    rdx,r8
  4011cd:	e8 ce b4 00 00       	call   40c6a0 <cos_defswitch>
	if (unlikely(ret == -EPERM && !slm_thd_normal(t))) {
  4011d2:	83 f8 ff             	cmp    eax,0xffffffff
  4011d5:	0f 84 85 01 00 00    	je     401360 <slm_blkpt_trigger+0x3f0>
	if (unlikely(ret != 0)) {
  4011db:	85 c0                	test   eax,eax
  4011dd:	0f 85 11 01 00 00    	jne    4012f4 <slm_blkpt_trigger+0x384>
	return 0;
  4011e3:	45 31 e4             	xor    r12d,r12d
  4011e6:	e9 a9 fe ff ff       	jmp    401094 <slm_blkpt_trigger+0x124>
  4011eb:	0f 1f 44 00 00       	nop    DWORD PTR [rax+rax*1+0x0]
	}
	sl->next = NULL;
  4011f0:	48 c7 02 00 00 00 00 	mov    QWORD PTR [rdx],0x0
		slm_thd_wakeup(t, 0); /* ignore retval: process next thread */
  4011f7:	48 8b 7a 08          	mov    rdi,QWORD PTR [rdx+0x8]
  4011fb:	31 f6                	xor    esi,esi
  4011fd:	e8 9e 45 01 00       	call   4157a0 <slm_thd_wakeup>
		if (single) break;
  401202:	45 85 e4             	test   r12d,r12d
  401205:	0f 84 b5 fe ff ff    	je     4010c0 <slm_blkpt_trigger+0x150>
  40120b:	e9 df fe ff ff       	jmp    4010ef <slm_blkpt_trigger+0x17f>
			ret = slm_cs_enter_contention(cs, cached, current, owner, contended, tok);
  401210:	41 89 c0             	mov    r8d,eax
  401213:	48 89 da             	mov    rdx,rbx
  401216:	48 89 c6             	mov    rsi,rax
  401219:	4c 89 f7             	mov    rdi,r14
  40121c:	41 83 e0 01          	and    r8d,0x1
  401220:	e8 1b 3e 01 00       	call   415040 <slm_cs_enter_contention>
			assert(ret != -EBUSY);
  401225:	83 f8 f0             	cmp    eax,0xfffffff0
  401228:	0f 85 84 fd ff ff    	jne    400fb2 <slm_blkpt_trigger+0x42>
  40122e:	be 59 00 00 00       	mov    esi,0x59
  401233:	bf 60 d1 41 00       	mov    edi,0x41d160
  401238:	e8 43 9a 00 00       	call   40ac80 <cos_print_str>
  40123d:	c7 04 25 00 00 00 00 	mov    DWORD PTR ds:0x0,0x0
  401244:	00 00 00 00 
  401248:	0f 0b                	ud2    
  40124a:	be 59 00 00 00       	mov    esi,0x59
  40124f:	bf 00 d1 41 00       	mov    edi,0x41d100
  401254:	e8 27 9a 00 00       	call   40ac80 <cos_print_str>
	assert(current);
  401259:	c7 04 25 00 00 00 00 	mov    DWORD PTR ds:0x0,0x0
  401260:	00 00 00 00 
  401264:	0f 0b                	ud2    
	if (!m) ERR_THROW(-1, unlock);
  401266:	41 bc ff ff ff ff    	mov    r12d,0xffffffff
  40126c:	e9 d3 fd ff ff       	jmp    401044 <slm_blkpt_trigger+0xd4>
  401271:	be 61 00 00 00       	mov    esi,0x61
  401276:	bf e8 d1 41 00       	mov    edi,0x41d1e8
  40127b:	e8 00 9a 00 00       	call   40ac80 <cos_print_str>
	assert(slm_state_is_runnable(t->state));
  401280:	c7 04 25 00 00 00 00 	mov    DWORD PTR ds:0x0,0x0
  401287:	00 00 00 00 
  40128b:	0f 0b                	ud2    
		if (t == &g->sched_thd) {
  40128d:	0f b7 d2             	movzx  edx,dx
	timeout = g->timeout_next;
  401290:	4c 89 c1             	mov    rcx,r8
		if (t == &g->sched_thd) {
  401293:	48 8d 14 92          	lea    rdx,[rdx+rdx*4]
  401297:	48 c1 e2 06          	shl    rdx,0x6
  40129b:	48 81 c2 08 65 71 00 	add    rdx,0x716508
  4012a2:	49 39 d5             	cmp    r13,rdx
  4012a5:	0f 84 fb 00 00 00    	je     4013a6 <slm_blkpt_trigger+0x436>
		if (t->properties & SLM_THD_PROPERTY_SEND) {
  4012ab:	a8 02                	test   al,0x2
  4012ad:	0f 85 fe 00 00 00    	jne    4013b1 <slm_blkpt_trigger+0x441>
		} else if (t->properties & SLM_THD_PROPERTY_OWN_TCAP) {
  4012b3:	49 89 c8             	mov    r8,rcx
  4012b6:	a8 01                	test   al,0x1
  4012b8:	0f 84 05 ff ff ff    	je     4011c3 <slm_blkpt_trigger+0x253>
			return cos_switch(t->thd, t->tc, prio, timeout, g->sched_thd.rcv, tok);
  4012be:	4b 8d 04 bf          	lea    rax,[r15+r15*4]
  4012c2:	4d 8b 55 08          	mov    r10,QWORD PTR [r13+0x8]
  4012c6:	49 8b 7d 10          	mov    rdi,QWORD PTR [r13+0x10]
  4012ca:	48 89 f2             	mov    rdx,rsi
  4012cd:	48 c1 e0 06          	shl    rax,0x6
  4012d1:	45 89 f1             	mov    r9d,r14d
  4012d4:	4c 8b 80 28 65 71 00 	mov    r8,QWORD PTR [rax+0x716528]
  4012db:	4c 89 d6             	mov    rsi,r10
  4012de:	e8 4d 08 01 00       	call   411b30 <cos_switch>
	if (unlikely(ret != 0)) {
  4012e3:	85 c0                	test   eax,eax
  4012e5:	0f 84 f8 fe ff ff    	je     4011e3 <slm_blkpt_trigger+0x273>
		assert(ret != -EPERM);
  4012eb:	83 f8 ff             	cmp    eax,0xffffffff
  4012ee:	0f 84 96 00 00 00    	je     40138a <slm_blkpt_trigger+0x41a>
		assert(ret != -EINVAL);
  4012f4:	83 f8 ea             	cmp    eax,0xffffffea
  4012f7:	0f 84 3f 01 00 00    	je     40143c <slm_blkpt_trigger+0x4cc>
		if (ret == -EBUSY) return ret;
  4012fd:	83 f8 f0             	cmp    eax,0xfffffff0
  401300:	0f 84 dd fe ff ff    	je     4011e3 <slm_blkpt_trigger+0x273>
		assert(ret == -EAGAIN);
  401306:	83 f8 f5             	cmp    eax,0xfffffff5
  401309:	0f 85 11 01 00 00    	jne    401420 <slm_blkpt_trigger+0x4b0>
	__asm__ __volatile__("rdtscp" : "=a"(a), "=d"(d), "=c"(c) : : );
  40130f:	0f 01 f9             	rdtscp 
	cs = &(slm_global()->lock);
  401312:	48 89 c8             	mov    rax,rcx
  401315:	25 ff 0f 00 00       	and    eax,0xfff
  40131a:	4c 8d 2c 80          	lea    r13,[rax+rax*4]
  40131e:	49 c1 e5 06          	shl    r13,0x6
  401322:	49 81 c5 00 65 71 00 	add    r13,0x716500
		tok    = cos_sched_sync();
  401329:	e8 e2 07 01 00       	call   411b10 <cos_sched_sync>
	unsigned long oc = ps_load(&cs->owner_contention);
  40132e:	49 8b 75 00          	mov    rsi,QWORD PTR [r13+0x0]
  401332:	41 89 c1             	mov    r9d,eax
		if (unlikely(owner)) {
  401335:	48 89 f1             	mov    rcx,rsi
  401338:	48 83 e1 fe          	and    rcx,0xfffffffffffffffe
  40133c:	0f 85 bd 00 00 00    	jne    4013ff <slm_blkpt_trigger+0x48f>
  401342:	48 89 f0             	mov    rax,rsi
  401345:	f0 49 0f b1 5d 00    	lock cmpxchg QWORD PTR [r13+0x0],rbx
  40134b:	0f 94 c0             	sete   al
		if (likely(!__slm_cs_cas(cs, cached, current, 0))) return 0;
  40134e:	84 c0                	test   al,al
  401350:	0f 85 be fd ff ff    	jne    401114 <slm_blkpt_trigger+0x1a4>
  401356:	eb d1                	jmp    401329 <slm_blkpt_trigger+0x3b9>
  401358:	0f 1f 84 00 00 00 00 	nop    DWORD PTR [rax+rax*1+0x0]
  40135f:	00 
  401360:	0f 01 f9             	rdtscp 
	return t != &g->idle_thd && t != &g->sched_thd;
  401363:	48 89 c8             	mov    rax,rcx
  401366:	25 ff 0f 00 00       	and    eax,0xfff
  40136b:	48 8d 04 80          	lea    rax,[rax+rax*4]
  40136f:	48 c1 e0 06          	shl    rax,0x6
  401373:	48 8d 90 80 65 71 00 	lea    rdx,[rax+0x716580]
  40137a:	49 39 d5             	cmp    r13,rdx
  40137d:	74 55                	je     4013d4 <slm_blkpt_trigger+0x464>
  40137f:	48 05 08 65 71 00    	add    rax,0x716508
  401385:	49 39 c5             	cmp    r13,rax
  401388:	74 4a                	je     4013d4 <slm_blkpt_trigger+0x464>
  40138a:	be 61 00 00 00       	mov    esi,0x61
  40138f:	bf 50 d2 41 00       	mov    edi,0x41d250
  401394:	e8 e7 98 00 00       	call   40ac80 <cos_print_str>
		assert(ret != -EPERM);
  401399:	c7 04 25 00 00 00 00 	mov    DWORD PTR ds:0x0,0x0
  4013a0:	00 00 00 00 
  4013a4:	0f 0b                	ud2    
			prio    = curr->priority;
  4013a6:	48 8b 73 30          	mov    rsi,QWORD PTR [rbx+0x30]
			timeout = TCAP_TIME_NIL;
  4013aa:	31 c9                	xor    ecx,ecx
  4013ac:	e9 fa fe ff ff       	jmp    4012ab <slm_blkpt_trigger+0x33b>
			return cos_sched_asnd(t->asnd, g->timeout_next, g->sched_thd.rcv, tok);
  4013b1:	4b 8d 04 bf          	lea    rax,[r15+r15*4]
  4013b5:	49 8b 7d 28          	mov    rdi,QWORD PTR [r13+0x28]
  4013b9:	44 89 f1             	mov    ecx,r14d
  4013bc:	4c 89 c6             	mov    rsi,r8
  4013bf:	48 c1 e0 06          	shl    rax,0x6
  4013c3:	48 8b 90 28 65 71 00 	mov    rdx,QWORD PTR [rax+0x716528]
  4013ca:	e8 d1 07 01 00       	call   411ba0 <cos_sched_asnd>
  4013cf:	e9 0f ff ff ff       	jmp    4012e3 <slm_blkpt_trigger+0x373>
		ret = cos_switch(g->sched_thd.thd, 0, curr->priority, TCAP_TIME_NIL, g->sched_thd.rcv, tok);
  4013d4:	4b 8d 04 bf          	lea    rax,[r15+r15*4]
  4013d8:	48 8b 53 30          	mov    rdx,QWORD PTR [rbx+0x30]
  4013dc:	45 89 f1             	mov    r9d,r14d
  4013df:	31 c9                	xor    ecx,ecx
  4013e1:	48 c1 e0 06          	shl    rax,0x6
  4013e5:	31 f6                	xor    esi,esi
  4013e7:	4c 8b 80 28 65 71 00 	mov    r8,QWORD PTR [rax+0x716528]
  4013ee:	48 8b b8 18 65 71 00 	mov    rdi,QWORD PTR [rax+0x716518]
  4013f5:	e8 36 07 01 00       	call   411b30 <cos_switch>
  4013fa:	e9 e4 fe ff ff       	jmp    4012e3 <slm_blkpt_trigger+0x373>
			ret = slm_cs_enter_contention(cs, cached, current, owner, contended, tok);
  4013ff:	41 89 f0             	mov    r8d,esi
  401402:	48 89 da             	mov    rdx,rbx
  401405:	4c 89 ef             	mov    rdi,r13
  401408:	41 83 e0 01          	and    r8d,0x1
  40140c:	e8 2f 3c 01 00       	call   415040 <slm_cs_enter_contention>
			assert(ret != -EBUSY);
  401411:	83 f8 f0             	cmp    eax,0xfffffff0
  401414:	0f 85 0f ff ff ff    	jne    401329 <slm_blkpt_trigger+0x3b9>
  40141a:	e9 0f fe ff ff       	jmp    40122e <slm_blkpt_trigger+0x2be>
  40141f:	90                   	nop
  401420:	be 61 00 00 00       	mov    esi,0x61
  401425:	bf 20 d3 41 00       	mov    edi,0x41d320
  40142a:	e8 51 98 00 00       	call   40ac80 <cos_print_str>
		assert(ret == -EAGAIN);
  40142f:	c7 04 25 00 00 00 00 	mov    DWORD PTR ds:0x0,0x0
  401436:	00 00 00 00 
  40143a:	0f 0b                	ud2    
  40143c:	be 61 00 00 00       	mov    esi,0x61
  401441:	bf b8 d2 41 00       	mov    edi,0x41d2b8
  401446:	e8 35 98 00 00       	call   40ac80 <cos_print_str>
		assert(ret != -EINVAL);
  40144b:	c7 04 25 00 00 00 00 	mov    DWORD PTR ds:0x0,0x0
  401452:	00 00 00 00 
  401456:	0f 0b                	ud2    
  401458:	0f 1f 84 00 00 00 00 	nop    DWORD PTR [rax+rax*1+0x0]
  40145f:	00 

0000000000401460 <slm_blkpt_block>:

int
slm_blkpt_block(sched_blkpt_id_t blkpt, struct slm_thd *current, sched_blkpt_epoch_t epoch, thdid_t dependency)
{
  401460:	f3 0f 1e fa          	endbr64 
  401464:	55                   	push   rbp
  401465:	48 89 e5             	mov    rbp,rsp
  401468:	41 57                	push   r15
  40146a:	41 56                	push   r14
  40146c:	41 55                	push   r13
  40146e:	41 54                	push   r12
  401470:	53                   	push   rbx
  401471:	48 83 ec 28          	sub    rsp,0x28
	assert(current);
  401475:	48 85 f6             	test   rsi,rsi
  401478:	0f 84 2c 02 00 00    	je     4016aa <slm_blkpt_block+0x24a>
  40147e:	41 89 fe             	mov    r14d,edi
  401481:	48 89 f3             	mov    rbx,rsi
  401484:	49 89 d4             	mov    r12,rdx
  401487:	0f 01 f9             	rdtscp 
	cs = &(slm_global()->lock);
  40148a:	81 e1 ff 0f 00 00    	and    ecx,0xfff
  401490:	4c 8d 2c 89          	lea    r13,[rcx+rcx*4]
  401494:	49 c1 e5 06          	shl    r13,0x6
  401498:	49 81 c5 00 65 71 00 	add    r13,0x716500
		tok    = cos_sched_sync();
  40149f:	e8 6c 06 01 00       	call   411b10 <cos_sched_sync>
  4014a4:	41 89 c1             	mov    r9d,eax
	unsigned long oc = ps_load(&cs->owner_contention);
  4014a7:	49 8b 45 00          	mov    rax,QWORD PTR [r13+0x0]
		if (unlikely(owner)) {
  4014ab:	48 89 c1             	mov    rcx,rax
  4014ae:	48 83 e1 fe          	and    rcx,0xfffffffffffffffe
  4014b2:	0f 85 b8 01 00 00    	jne    401670 <slm_blkpt_block+0x210>
  4014b8:	f0 49 0f b1 5d 00    	lock cmpxchg QWORD PTR [r13+0x0],rbx
  4014be:	0f 94 c0             	sete   al
		if (likely(!__slm_cs_cas(cs, cached, current, 0))) return 0;
  4014c1:	84 c0                	test   al,al
  4014c3:	74 da                	je     40149f <slm_blkpt_block+0x3f>
	if (id - 1 == NBLKPTS) return NULL;
  4014c5:	41 81 fe 01 a0 00 00 	cmp    r14d,0xa001
  4014cc:	0f 84 f4 01 00 00    	je     4016c6 <slm_blkpt_block+0x266>
	return &__blkpts[id-1];
  4014d2:	45 8d 46 ff          	lea    r8d,[r14-0x1]
  4014d6:	be 01 00 00 00       	mov    esi,0x1
  4014db:	31 c9                	xor    ecx,ecx
  4014dd:	4c 89 c7             	mov    rdi,r8
  4014e0:	48 c1 e7 05          	shl    rdi,0x5
  4014e4:	4c 8d af e0 86 5c 00 	lea    r13,[rdi+0x5c86e0]
{ while (!ps_cas(&l->o, 0, 1)) ; }
  4014eb:	48 8d 97 f8 86 5c 00 	lea    rdx,[rdi+0x5c86f8]
  4014f2:	66 0f 1f 44 00 00    	nop    WORD PTR [rax+rax*1+0x0]
        __asm__ __volatile__("lock " PS_CAS_STR
  4014f8:	48 89 c8             	mov    rax,rcx
  4014fb:	f0 48 0f b1 32       	lock cmpxchg QWORD PTR [rdx],rsi
  401500:	0f 94 c0             	sete   al
{ while (!ps_cas(&l->o, 0, 1)) ; }
  401503:	84 c0                	test   al,al
  401505:	74 f1                	je     4014f8 <slm_blkpt_block+0x98>
		ERR_THROW(-1, unlock);
	}

	ps_lock_take(&m->lock);
	/* Outdated event? don't block! */
	pre = ps_load(&m->epoch);
  401507:	49 8b 75 08          	mov    rsi,QWORD PTR [r13+0x8]
	if (!blkpt_epoch_is_higher(pre, epoch)) {
  40150b:	4c 39 e6             	cmp    rsi,r12
  40150e:	76 70                	jbe    401580 <slm_blkpt_block+0x120>
{ l->o = 0; }
  401510:	49 c7 45 18 00 00 00 	mov    QWORD PTR [r13+0x18],0x0
  401517:	00 
			 */
			assert(_sl == &sl);
		}
		assert(stacklist_is_removed(&sl));
		ps_lock_release(&m->lock);
		ERR_THROW(0, unlock);
  401518:	45 31 e4             	xor    r12d,r12d
  40151b:	0f 01 f9             	rdtscp 
	struct slm_cs *cs = &(slm_global()->lock);
  40151e:	81 e1 ff 0f 00 00    	and    ecx,0xfff
  401524:	48 8d 1c 89          	lea    rbx,[rcx+rcx*4]
  401528:	48 c1 e3 06          	shl    rbx,0x6
  40152c:	48 81 c3 00 65 71 00 	add    rbx,0x716500
	while (ret != 0) {
  401533:	eb 0f                	jmp    401544 <slm_blkpt_block+0xe4>
  401535:	0f 1f 00             	nop    DWORD PTR [rax]
        __asm__ __volatile__("lock " PS_CAS_STR
  401538:	f0 48 0f b1 13       	lock cmpxchg QWORD PTR [rbx],rdx
  40153d:	0f 94 c0             	sete   al
  401540:	84 c0                	test   al,al
  401542:	75 28                	jne    40156c <slm_blkpt_block+0x10c>
		tok    = cos_sched_sync();
  401544:	e8 c7 05 01 00       	call   411b10 <cos_sched_sync>
  401549:	89 c1                	mov    ecx,eax
  40154b:	48 8b 03             	mov    rax,QWORD PTR [rbx]
		if (unlikely(contention)) {
  40154e:	48 89 c2             	mov    rdx,rax
  401551:	83 e2 01             	and    edx,0x1
  401554:	74 e2                	je     401538 <slm_blkpt_block+0xd8>
	*thd        = (struct slm_thd *)(oc & (~0UL << 1));
  401556:	48 89 c6             	mov    rsi,rax
			if (!slm_cs_exit_contention(cs, current, cached, tok)) return;
  401559:	48 89 c2             	mov    rdx,rax
  40155c:	48 89 df             	mov    rdi,rbx
  40155f:	48 83 e6 fe          	and    rsi,0xfffffffffffffffe
  401563:	e8 38 3b 01 00       	call   4150a0 <slm_cs_exit_contention>
  401568:	85 c0                	test   eax,eax
  40156a:	75 d8                	jne    401544 <slm_blkpt_block+0xe4>
	return 0;
unlock:
	slm_cs_exit(NULL, SLM_CS_NONE);

	return ret;
}
  40156c:	48 83 c4 28          	add    rsp,0x28
  401570:	44 89 e0             	mov    eax,r12d
  401573:	5b                   	pop    rbx
  401574:	41 5c                	pop    r12
  401576:	41 5d                	pop    r13
  401578:	41 5e                	pop    r14
  40157a:	41 5f                	pop    r15
  40157c:	5d                   	pop    rbp
  40157d:	c3                   	ret    
  40157e:	66 90                	xchg   ax,ax
		struct stacklist *n = ps_load(&h->head);
  401580:	4c 89 c1             	mov    rcx,r8
	l->data = data;
  401583:	48 89 5d c8          	mov    QWORD PTR [rbp-0x38],rbx
		if (ps_cas((unsigned long *)&h->head, (unsigned long)n, (unsigned long)l)) break;
  401587:	48 8d 97 f0 86 5c 00 	lea    rdx,[rdi+0x5c86f0]
  40158e:	48 8d 7d c0          	lea    rdi,[rbp-0x40]
		struct stacklist *n = ps_load(&h->head);
  401592:	48 c1 e1 05          	shl    rcx,0x5
  401596:	48 81 c1 e0 86 5c 00 	add    rcx,0x5c86e0
  40159d:	0f 1f 00             	nop    DWORD PTR [rax]
  4015a0:	48 8b 41 10          	mov    rax,QWORD PTR [rcx+0x10]
		l->next = n;
  4015a4:	48 89 45 c0          	mov    QWORD PTR [rbp-0x40],rax
  4015a8:	f0 48 0f b1 3a       	lock cmpxchg QWORD PTR [rdx],rdi
  4015ad:	0f 94 c0             	sete   al
		if (ps_cas((unsigned long *)&h->head, (unsigned long)n, (unsigned long)l)) break;
  4015b0:	84 c0                	test   al,al
  4015b2:	74 ec                	je     4015a0 <slm_blkpt_block+0x140>
	if (!blkpt_epoch_is_higher(ps_load(&m->epoch), pre)) {
  4015b4:	49 8b 45 08          	mov    rax,QWORD PTR [r13+0x8]
  4015b8:	48 39 f0             	cmp    rax,rsi
  4015bb:	0f 86 8f 00 00 00    	jbe    401650 <slm_blkpt_block+0x1f0>
	if (!h->head) return NULL;
  4015c1:	49 83 7d 10 00       	cmp    QWORD PTR [r13+0x10],0x0
  4015c6:	74 2b                	je     4015f3 <slm_blkpt_block+0x193>
		sl = ps_load(&h->head);
  4015c8:	49 c1 e0 05          	shl    r8,0x5
  4015cc:	49 81 c0 e0 86 5c 00 	add    r8,0x5c86e0
  4015d3:	eb 15                	jmp    4015ea <slm_blkpt_block+0x18a>
  4015d5:	0f 1f 00             	nop    DWORD PTR [rax]
  4015d8:	48 8b 31             	mov    rsi,QWORD PTR [rcx]
  4015db:	48 89 c8             	mov    rax,rcx
  4015de:	f0 48 0f b1 32       	lock cmpxchg QWORD PTR [rdx],rsi
  4015e3:	0f 94 c0             	sete   al
		if (ps_cas((unsigned long *)&h->head, (unsigned long)sl, (unsigned long)sl->next)) break;
  4015e6:	84 c0                	test   al,al
  4015e8:	75 36                	jne    401620 <slm_blkpt_block+0x1c0>
		sl = ps_load(&h->head);
  4015ea:	49 8b 48 10          	mov    rcx,QWORD PTR [r8+0x10]
		if (!sl) return NULL;
  4015ee:	48 85 c9             	test   rcx,rcx
  4015f1:	75 e5                	jne    4015d8 <slm_blkpt_block+0x178>
		assert(stacklist_is_removed(&sl));
  4015f3:	48 83 7d c0 00       	cmp    QWORD PTR [rbp-0x40],0x0
  4015f8:	0f 84 12 ff ff ff    	je     401510 <slm_blkpt_block+0xb0>
  4015fe:	be 5f 00 00 00       	mov    esi,0x5f
  401603:	bf e8 d3 41 00       	mov    edi,0x41d3e8
  401608:	e8 73 96 00 00       	call   40ac80 <cos_print_str>
  40160d:	c7 04 25 00 00 00 00 	mov    DWORD PTR ds:0x0,0x0
  401614:	00 00 00 00 
  401618:	0f 0b                	ud2    
  40161a:	66 0f 1f 44 00 00    	nop    WORD PTR [rax+rax*1+0x0]
	sl->next = NULL;
  401620:	48 c7 01 00 00 00 00 	mov    QWORD PTR [rcx],0x0
			assert(_sl == &sl);
  401627:	48 39 f9             	cmp    rcx,rdi
  40162a:	74 c7                	je     4015f3 <slm_blkpt_block+0x193>
  40162c:	be 5f 00 00 00       	mov    esi,0x5f
  401631:	bf 88 d3 41 00       	mov    edi,0x41d388
  401636:	e8 45 96 00 00       	call   40ac80 <cos_print_str>
  40163b:	c7 04 25 00 00 00 00 	mov    DWORD PTR ds:0x0,0x0
  401642:	00 00 00 00 
  401646:	0f 0b                	ud2    
  401648:	0f 1f 84 00 00 00 00 	nop    DWORD PTR [rax+rax*1+0x0]
  40164f:	00 
	if (slm_thd_block(current)) {
  401650:	48 89 df             	mov    rdi,rbx
  401653:	e8 c8 3a 01 00       	call   415120 <slm_thd_block>
{ l->o = 0; }
  401658:	49 c7 45 18 00 00 00 	mov    QWORD PTR [r13+0x18],0x0
  40165f:	00 
  401660:	41 89 c4             	mov    r12d,eax
  401663:	85 c0                	test   eax,eax
  401665:	74 6a                	je     4016d1 <slm_blkpt_block+0x271>
		ERR_THROW(0, unlock);
  401667:	45 31 e4             	xor    r12d,r12d
  40166a:	e9 ac fe ff ff       	jmp    40151b <slm_blkpt_block+0xbb>
  40166f:	90                   	nop
			ret = slm_cs_enter_contention(cs, cached, current, owner, contended, tok);
  401670:	41 89 c0             	mov    r8d,eax
  401673:	48 89 da             	mov    rdx,rbx
  401676:	48 89 c6             	mov    rsi,rax
  401679:	4c 89 ef             	mov    rdi,r13
  40167c:	41 83 e0 01          	and    r8d,0x1
  401680:	e8 bb 39 01 00       	call   415040 <slm_cs_enter_contention>
			assert(ret != -EBUSY);
  401685:	83 f8 f0             	cmp    eax,0xfffffff0
  401688:	0f 85 11 fe ff ff    	jne    40149f <slm_blkpt_block+0x3f>
  40168e:	be 59 00 00 00       	mov    esi,0x59
  401693:	bf 60 d1 41 00       	mov    edi,0x41d160
  401698:	e8 e3 95 00 00       	call   40ac80 <cos_print_str>
  40169d:	c7 04 25 00 00 00 00 	mov    DWORD PTR ds:0x0,0x0
  4016a4:	00 00 00 00 
  4016a8:	0f 0b                	ud2    
  4016aa:	be 59 00 00 00       	mov    esi,0x59
  4016af:	bf 00 d1 41 00       	mov    edi,0x41d100
  4016b4:	e8 c7 95 00 00       	call   40ac80 <cos_print_str>
	assert(current);
  4016b9:	c7 04 25 00 00 00 00 	mov    DWORD PTR ds:0x0,0x0
  4016c0:	00 00 00 00 
  4016c4:	0f 0b                	ud2    
		ERR_THROW(-1, unlock);
  4016c6:	41 bc ff ff ff ff    	mov    r12d,0xffffffff
  4016cc:	e9 4a fe ff ff       	jmp    40151b <slm_blkpt_block+0xbb>
	struct cos_compinfo    *ci  = &cos_defcompinfo_curr_get()->ci;
  4016d1:	e8 7a 9e 00 00       	call   40b550 <cos_defcompinfo_curr_get>
  4016d6:	0f 01 f9             	rdtscp 
	if (unlikely(!t)) t = &g->idle_thd;
  4016d9:	81 e1 ff 0f 00 00    	and    ecx,0xfff
  4016df:	4c 8d 34 89          	lea    r14,[rcx+rcx*4]
  4016e3:	49 c1 e6 06          	shl    r14,0x6
  4016e7:	49 8d 86 80 65 71 00 	lea    rax,[r14+0x716580]
  4016ee:	48 89 45 b8          	mov    QWORD PTR [rbp-0x48],rax
	tok  = cos_sched_sync();
  4016f2:	e8 19 04 01 00       	call   411b10 <cos_sched_sync>
  4016f7:	41 89 c7             	mov    r15d,eax
  4016fa:	e8 a1 24 01 00       	call   413ba0 <slm_sched_fprr_schedule>
	if (unlikely(!t)) t = &g->idle_thd;
  4016ff:	48 85 c0             	test   rax,rax
  401702:	49 89 c5             	mov    r13,rax
  401705:	4c 0f 44 6d b8       	cmove  r13,QWORD PTR [rbp-0x48]
{ return s == SLM_THD_RUNNABLE || s == SLM_THD_WOKEN; }
  40170a:	41 8b 45 04          	mov    eax,DWORD PTR [r13+0x4]
  40170e:	83 e8 02             	sub    eax,0x2
	assert(slm_state_is_runnable(t->state));
  401711:	83 f8 01             	cmp    eax,0x1
  401714:	0f 87 e6 01 00 00    	ja     401900 <slm_blkpt_block+0x4a0>
  40171a:	0f 01 f9             	rdtscp 
	struct slm_cs *cs = &(slm_global()->lock);
  40171d:	81 e1 ff 0f 00 00    	and    ecx,0xfff
  401723:	48 8d 3c 89          	lea    rdi,[rcx+rcx*4]
  401727:	48 c1 e7 06          	shl    rdi,0x6
  40172b:	4c 8d b7 00 65 71 00 	lea    r14,[rdi+0x716500]
	while (ret != 0) {
  401732:	eb 10                	jmp    401744 <slm_blkpt_block+0x2e4>
  401734:	0f 1f 40 00          	nop    DWORD PTR [rax+0x0]
        __asm__ __volatile__("lock " PS_CAS_STR
  401738:	f0 49 0f b1 16       	lock cmpxchg QWORD PTR [r14],rdx
  40173d:	0f 94 c0             	sete   al
  401740:	84 c0                	test   al,al
  401742:	75 28                	jne    40176c <slm_blkpt_block+0x30c>
		tok    = cos_sched_sync();
  401744:	e8 c7 03 01 00       	call   411b10 <cos_sched_sync>
  401749:	89 c1                	mov    ecx,eax
	unsigned long oc = ps_load(&cs->owner_contention);
  40174b:	49 8b 06             	mov    rax,QWORD PTR [r14]
		if (unlikely(contention)) {
  40174e:	48 89 c2             	mov    rdx,rax
  401751:	83 e2 01             	and    edx,0x1
  401754:	74 e2                	je     401738 <slm_blkpt_block+0x2d8>
	*thd        = (struct slm_thd *)(oc & (~0UL << 1));
  401756:	48 89 c6             	mov    rsi,rax
			if (!slm_cs_exit_contention(cs, current, cached, tok)) return;
  401759:	48 89 c2             	mov    rdx,rax
  40175c:	4c 89 f7             	mov    rdi,r14
  40175f:	48 83 e6 fe          	and    rsi,0xfffffffffffffffe
  401763:	e8 38 39 01 00       	call   4150a0 <slm_cs_exit_contention>
  401768:	85 c0                	test   eax,eax
  40176a:	75 d8                	jne    401744 <slm_blkpt_block+0x2e4>
	struct cos_defcompinfo *dci = cos_defcompinfo_curr_get();
  40176c:	e8 df 9d 00 00       	call   40b550 <cos_defcompinfo_curr_get>
  401771:	0f 01 f9             	rdtscp 
	*coreid = c & 0xFFF;
  401774:	89 ca                	mov    edx,ecx
	timeout = g->timeout_next;
  401776:	81 e1 ff 0f 00 00    	and    ecx,0xfff
	prio = inherit_prio ? curr->priority : t->priority;
  40177c:	49 8b 75 30          	mov    rsi,QWORD PTR [r13+0x30]
	timeout = g->timeout_next;
  401780:	48 8d 04 89          	lea    rax,[rcx+rcx*4]
  401784:	66 81 e2 ff 0f       	and    dx,0xfff
  401789:	49 89 ce             	mov    r14,rcx
  40178c:	48 c1 e0 06          	shl    rax,0x6
  401790:	4c 8b 88 08 66 71 00 	mov    r9,QWORD PTR [rax+0x716608]
	if (unlikely(t->properties & (SLM_THD_PROPERTY_SEND | SLM_THD_PROPERTY_OWN_TCAP | SLM_THD_PROPERTY_SPECIAL))) {
  401797:	41 8b 45 00          	mov    eax,DWORD PTR [r13+0x0]
  40179b:	a8 0b                	test   al,0xb
  40179d:	0f 85 91 00 00 00    	jne    401834 <slm_blkpt_block+0x3d4>
	ret = cos_defswitch(t->thd, prio, timeout, tok);
  4017a3:	49 8b 7d 10          	mov    rdi,QWORD PTR [r13+0x10]
  4017a7:	44 89 f9             	mov    ecx,r15d
  4017aa:	4c 89 ca             	mov    rdx,r9
  4017ad:	e8 ee ae 00 00       	call   40c6a0 <cos_defswitch>
	if (unlikely(ret == -EPERM && !slm_thd_normal(t))) {
  4017b2:	83 f8 ff             	cmp    eax,0xffffffff
  4017b5:	74 2f                	je     4017e6 <slm_blkpt_block+0x386>
	if (unlikely(ret != 0)) {
  4017b7:	85 c0                	test   eax,eax
  4017b9:	0f 85 d7 00 00 00    	jne    401896 <slm_blkpt_block+0x436>
	assert(stacklist_is_removed(&sl));
  4017bf:	48 83 7d c0 00       	cmp    QWORD PTR [rbp-0x40],0x0
  4017c4:	0f 84 a2 fd ff ff    	je     40156c <slm_blkpt_block+0x10c>
  4017ca:	be 5f 00 00 00       	mov    esi,0x5f
  4017cf:	bf 48 d4 41 00       	mov    edi,0x41d448
  4017d4:	e8 a7 94 00 00       	call   40ac80 <cos_print_str>
  4017d9:	c7 04 25 00 00 00 00 	mov    DWORD PTR ds:0x0,0x0
  4017e0:	00 00 00 00 
  4017e4:	0f 0b                	ud2    
	__asm__ __volatile__("rdtscp" : "=a"(a), "=d"(d), "=c"(c) : : );
  4017e6:	0f 01 f9             	rdtscp 
	return t != &g->idle_thd && t != &g->sched_thd;
  4017e9:	48 89 c8             	mov    rax,rcx
  4017ec:	25 ff 0f 00 00       	and    eax,0xfff
  4017f1:	48 8d 04 80          	lea    rax,[rax+rax*4]
  4017f5:	48 c1 e0 06          	shl    rax,0x6
  4017f9:	48 8d 90 80 65 71 00 	lea    rdx,[rax+0x716580]
  401800:	49 39 d5             	cmp    r13,rdx
  401803:	0f 84 41 01 00 00    	je     40194a <slm_blkpt_block+0x4ea>
  401809:	48 05 08 65 71 00    	add    rax,0x716508
  40180f:	49 39 c5             	cmp    r13,rax
  401812:	0f 84 32 01 00 00    	je     40194a <slm_blkpt_block+0x4ea>
  401818:	be 61 00 00 00       	mov    esi,0x61
  40181d:	bf 50 d2 41 00       	mov    edi,0x41d250
  401822:	e8 59 94 00 00       	call   40ac80 <cos_print_str>
		assert(ret != -EPERM);
  401827:	c7 04 25 00 00 00 00 	mov    DWORD PTR ds:0x0,0x0
  40182e:	00 00 00 00 
  401832:	0f 0b                	ud2    
		if (t == &g->sched_thd) {
  401834:	0f b7 d2             	movzx  edx,dx
	timeout = g->timeout_next;
  401837:	4c 89 c9             	mov    rcx,r9
		if (t == &g->sched_thd) {
  40183a:	48 8d 14 92          	lea    rdx,[rdx+rdx*4]
  40183e:	48 c1 e2 06          	shl    rdx,0x6
  401842:	48 81 c2 08 65 71 00 	add    rdx,0x716508
  401849:	49 39 d5             	cmp    r13,rdx
  40184c:	0f 84 ca 00 00 00    	je     40191c <slm_blkpt_block+0x4bc>
		if (t->properties & SLM_THD_PROPERTY_SEND) {
  401852:	a8 02                	test   al,0x2
  401854:	0f 85 cd 00 00 00    	jne    401927 <slm_blkpt_block+0x4c7>
		} else if (t->properties & SLM_THD_PROPERTY_OWN_TCAP) {
  40185a:	49 89 c9             	mov    r9,rcx
  40185d:	a8 01                	test   al,0x1
  40185f:	0f 84 3e ff ff ff    	je     4017a3 <slm_blkpt_block+0x343>
			return cos_switch(t->thd, t->tc, prio, timeout, g->sched_thd.rcv, tok);
  401865:	4d 8b 55 08          	mov    r10,QWORD PTR [r13+0x8]
  401869:	49 8b 7d 10          	mov    rdi,QWORD PTR [r13+0x10]
  40186d:	48 89 f2             	mov    rdx,rsi
  401870:	45 89 f9             	mov    r9d,r15d
  401873:	4d 69 c6 40 01 00 00 	imul   r8,r14,0x140
  40187a:	4c 89 d6             	mov    rsi,r10
  40187d:	4d 8b 80 28 65 71 00 	mov    r8,QWORD PTR [r8+0x716528]
  401884:	e8 a7 02 01 00       	call   411b30 <cos_switch>
	if (unlikely(ret != 0)) {
  401889:	85 c0                	test   eax,eax
  40188b:	0f 84 2e ff ff ff    	je     4017bf <slm_blkpt_block+0x35f>
		assert(ret != -EPERM);
  401891:	83 f8 ff             	cmp    eax,0xffffffff
  401894:	74 82                	je     401818 <slm_blkpt_block+0x3b8>
		assert(ret != -EINVAL);
  401896:	83 f8 ea             	cmp    eax,0xffffffea
  401899:	0f 84 11 01 00 00    	je     4019b0 <slm_blkpt_block+0x550>
		if (ret == -EBUSY) return ret;
  40189f:	83 f8 f0             	cmp    eax,0xfffffff0
  4018a2:	0f 84 17 ff ff ff    	je     4017bf <slm_blkpt_block+0x35f>
		assert(ret == -EAGAIN);
  4018a8:	83 f8 f5             	cmp    eax,0xfffffff5
  4018ab:	0f 85 e3 00 00 00    	jne    401994 <slm_blkpt_block+0x534>
  4018b1:	0f 01 f9             	rdtscp 
	cs = &(slm_global()->lock);
  4018b4:	48 89 c8             	mov    rax,rcx
  4018b7:	25 ff 0f 00 00       	and    eax,0xfff
  4018bc:	4c 8d 2c 80          	lea    r13,[rax+rax*4]
  4018c0:	49 c1 e5 06          	shl    r13,0x6
  4018c4:	49 81 c5 00 65 71 00 	add    r13,0x716500
		tok    = cos_sched_sync();
  4018cb:	e8 40 02 01 00       	call   411b10 <cos_sched_sync>
	unsigned long oc = ps_load(&cs->owner_contention);
  4018d0:	49 8b 75 00          	mov    rsi,QWORD PTR [r13+0x0]
  4018d4:	41 89 c1             	mov    r9d,eax
		if (unlikely(owner)) {
  4018d7:	48 89 f1             	mov    rcx,rsi
  4018da:	48 83 e1 fe          	and    rcx,0xfffffffffffffffe
  4018de:	0f 85 90 00 00 00    	jne    401974 <slm_blkpt_block+0x514>
  4018e4:	48 89 f0             	mov    rax,rsi
  4018e7:	f0 49 0f b1 5d 00    	lock cmpxchg QWORD PTR [r13+0x0],rbx
  4018ed:	0f 94 c0             	sete   al
		if (likely(!__slm_cs_cas(cs, cached, current, 0))) return 0;
  4018f0:	84 c0                	test   al,al
  4018f2:	0f 85 fa fd ff ff    	jne    4016f2 <slm_blkpt_block+0x292>
  4018f8:	eb d1                	jmp    4018cb <slm_blkpt_block+0x46b>
  4018fa:	66 0f 1f 44 00 00    	nop    WORD PTR [rax+rax*1+0x0]
  401900:	be 61 00 00 00       	mov    esi,0x61
  401905:	bf e8 d1 41 00       	mov    edi,0x41d1e8
  40190a:	e8 71 93 00 00       	call   40ac80 <cos_print_str>
	assert(slm_state_is_runnable(t->state));
  40190f:	c7 04 25 00 00 00 00 	mov    DWORD PTR ds:0x0,0x0
  401916:	00 00 00 00 
  40191a:	0f 0b                	ud2    
			prio    = curr->priority;
  40191c:	48 8b 73 30          	mov    rsi,QWORD PTR [rbx+0x30]
			timeout = TCAP_TIME_NIL;
  401920:	31 c9                	xor    ecx,ecx
  401922:	e9 2b ff ff ff       	jmp    401852 <slm_blkpt_block+0x3f2>
			return cos_sched_asnd(t->asnd, g->timeout_next, g->sched_thd.rcv, tok);
  401927:	4b 8d 04 b6          	lea    rax,[r14+r14*4]
  40192b:	49 8b 7d 28          	mov    rdi,QWORD PTR [r13+0x28]
  40192f:	44 89 f9             	mov    ecx,r15d
  401932:	4c 89 ce             	mov    rsi,r9
  401935:	48 c1 e0 06          	shl    rax,0x6
  401939:	48 8b 90 28 65 71 00 	mov    rdx,QWORD PTR [rax+0x716528]
  401940:	e8 5b 02 01 00       	call   411ba0 <cos_sched_asnd>
  401945:	e9 3f ff ff ff       	jmp    401889 <slm_blkpt_block+0x429>
		ret = cos_switch(g->sched_thd.thd, 0, curr->priority, TCAP_TIME_NIL, g->sched_thd.rcv, tok);
  40194a:	49 69 c6 40 01 00 00 	imul   rax,r14,0x140
  401951:	48 8b 53 30          	mov    rdx,QWORD PTR [rbx+0x30]
  401955:	45 89 f9             	mov    r9d,r15d
  401958:	31 c9                	xor    ecx,ecx
  40195a:	31 f6                	xor    esi,esi
  40195c:	4c 8b 80 28 65 71 00 	mov    r8,QWORD PTR [rax+0x716528]
  401963:	48 8b b8 18 65 71 00 	mov    rdi,QWORD PTR [rax+0x716518]
  40196a:	e8 c1 01 01 00       	call   411b30 <cos_switch>
  40196f:	e9 15 ff ff ff       	jmp    401889 <slm_blkpt_block+0x429>
			ret = slm_cs_enter_contention(cs, cached, current, owner, contended, tok);
  401974:	41 89 f0             	mov    r8d,esi
  401977:	48 89 da             	mov    rdx,rbx
  40197a:	4c 89 ef             	mov    rdi,r13
  40197d:	41 83 e0 01          	and    r8d,0x1
  401981:	e8 ba 36 01 00       	call   415040 <slm_cs_enter_contention>
			assert(ret != -EBUSY);
  401986:	83 f8 f0             	cmp    eax,0xfffffff0
  401989:	0f 85 3c ff ff ff    	jne    4018cb <slm_blkpt_block+0x46b>
  40198f:	e9 fa fc ff ff       	jmp    40168e <slm_blkpt_block+0x22e>
  401994:	be 61 00 00 00       	mov    esi,0x61
  401999:	bf 20 d3 41 00       	mov    edi,0x41d320
  40199e:	e8 dd 92 00 00       	call   40ac80 <cos_print_str>
		assert(ret == -EAGAIN);
  4019a3:	c7 04 25 00 00 00 00 	mov    DWORD PTR ds:0x0,0x0
  4019aa:	00 00 00 00 
  4019ae:	0f 0b                	ud2    
  4019b0:	be 61 00 00 00       	mov    esi,0x61
  4019b5:	bf b8 d2 41 00       	mov    edi,0x41d2b8
  4019ba:	e8 c1 92 00 00       	call   40ac80 <cos_print_str>
		assert(ret != -EINVAL);
  4019bf:	c7 04 25 00 00 00 00 	mov    DWORD PTR ds:0x0,0x0
  4019c6:	00 00 00 00 
  4019ca:	0f 0b                	ud2    
  4019cc:	0f 1f 40 00          	nop    DWORD PTR [rax+0x0]

00000000004019d0 <slm_thd_timer_policy>:
SLM_MODULES_COMPOSE_DATA();
  4019d0:	f3 0f 1e fa          	endbr64 
  4019d4:	48 8d 87 88 00 00 00 	lea    rax,[rdi+0x88]
  4019db:	c3                   	ret    
  4019dc:	0f 1f 40 00          	nop    DWORD PTR [rax+0x0]

00000000004019e0 <slm_thd_sched_policy>:
  4019e0:	f3 0f 1e fa          	endbr64 
  4019e4:	48 8d 47 78          	lea    rax,[rdi+0x78]
  4019e8:	c3                   	ret    
  4019e9:	0f 1f 80 00 00 00 00 	nop    DWORD PTR [rax+0x0]

00000000004019f0 <slm_thd_from_timer>:
  4019f0:	f3 0f 1e fa          	endbr64 
  4019f4:	48 8d 87 78 ff ff ff 	lea    rax,[rdi-0x88]
  4019fb:	c3                   	ret    
  4019fc:	0f 1f 40 00          	nop    DWORD PTR [rax+0x0]

0000000000401a00 <slm_thd_from_sched>:
  401a00:	f3 0f 1e fa          	endbr64 
  401a04:	48 8d 47 88          	lea    rax,[rdi-0x78]
  401a08:	c3                   	ret    
  401a09:	0f 1f 80 00 00 00 00 	nop    DWORD PTR [rax+0x0]

0000000000401a10 <slm_timer_expire>:
SLM_MODULES_COMPOSE_FNS(quantum, fprr, static_cm);
  401a10:	f3 0f 1e fa          	endbr64 
  401a14:	e9 c7 25 01 00       	jmp    413fe0 <slm_timer_quantum_expire>
  401a19:	0f 1f 80 00 00 00 00 	nop    DWORD PTR [rax+0x0]

0000000000401a20 <slm_timer_thd_init>:
  401a20:	f3 0f 1e fa          	endbr64 
  401a24:	e9 d7 28 01 00       	jmp    414300 <slm_timer_quantum_thd_init>
  401a29:	0f 1f 80 00 00 00 00 	nop    DWORD PTR [rax+0x0]

0000000000401a30 <slm_timer_thd_deinit>:
  401a30:	f3 0f 1e fa          	endbr64 
  401a34:	e9 e7 28 01 00       	jmp    414320 <slm_timer_quantum_thd_deinit>
  401a39:	0f 1f 80 00 00 00 00 	nop    DWORD PTR [rax+0x0]

0000000000401a40 <slm_timer_add>:
  401a40:	f3 0f 1e fa          	endbr64 
  401a44:	e9 67 27 01 00       	jmp    4141b0 <slm_timer_quantum_add>
  401a49:	0f 1f 80 00 00 00 00 	nop    DWORD PTR [rax+0x0]

0000000000401a50 <slm_timer_cancel>:
  401a50:	f3 0f 1e fa          	endbr64 
  401a54:	e9 07 28 01 00       	jmp    414260 <slm_timer_quantum_cancel>
  401a59:	0f 1f 80 00 00 00 00 	nop    DWORD PTR [rax+0x0]

0000000000401a60 <slm_timer_init>:
  401a60:	f3 0f 1e fa          	endbr64 
  401a64:	e9 c7 28 01 00       	jmp    414330 <slm_timer_quantum_init>
  401a69:	0f 1f 80 00 00 00 00 	nop    DWORD PTR [rax+0x0]

0000000000401a70 <slm_sched_init>:
  401a70:	f3 0f 1e fa          	endbr64 
  401a74:	e9 87 24 01 00       	jmp    413f00 <slm_sched_fprr_init>
  401a79:	0f 1f 80 00 00 00 00 	nop    DWORD PTR [rax+0x0]

0000000000401a80 <slm_sched_thd_init>:
  401a80:	f3 0f 1e fa          	endbr64 
  401a84:	e9 b7 22 01 00       	jmp    413d40 <slm_sched_fprr_thd_init>
  401a89:	0f 1f 80 00 00 00 00 	nop    DWORD PTR [rax+0x0]

0000000000401a90 <slm_sched_thd_deinit>:
  401a90:	f3 0f 1e fa          	endbr64 
  401a94:	e9 d7 22 01 00       	jmp    413d70 <slm_sched_fprr_thd_deinit>
  401a99:	0f 1f 80 00 00 00 00 	nop    DWORD PTR [rax+0x0]

0000000000401aa0 <slm_sched_thd_update>:
  401aa0:	f3 0f 1e fa          	endbr64 
  401aa4:	e9 f7 22 01 00       	jmp    413da0 <slm_sched_fprr_thd_update>
  401aa9:	0f 1f 80 00 00 00 00 	nop    DWORD PTR [rax+0x0]

0000000000401ab0 <slm_sched_block>:
  401ab0:	f3 0f 1e fa          	endbr64 
  401ab4:	e9 67 21 01 00       	jmp    413c20 <slm_sched_fprr_block>
  401ab9:	0f 1f 80 00 00 00 00 	nop    DWORD PTR [rax+0x0]

0000000000401ac0 <slm_sched_wakeup>:
  401ac0:	f3 0f 1e fa          	endbr64 
  401ac4:	e9 87 21 01 00       	jmp    413c50 <slm_sched_fprr_wakeup>
  401ac9:	0f 1f 80 00 00 00 00 	nop    DWORD PTR [rax+0x0]

0000000000401ad0 <slm_sched_yield>:
  401ad0:	f3 0f 1e fa          	endbr64 
  401ad4:	e9 f7 21 01 00       	jmp    413cd0 <slm_sched_fprr_yield>
  401ad9:	0f 1f 80 00 00 00 00 	nop    DWORD PTR [rax+0x0]

0000000000401ae0 <slm_sched_schedule>:
  401ae0:	f3 0f 1e fa          	endbr64 
  401ae4:	e9 b7 20 01 00       	jmp    413ba0 <slm_sched_fprr_schedule>
  401ae9:	0f 1f 80 00 00 00 00 	nop    DWORD PTR [rax+0x0]

0000000000401af0 <slm_sched_execution>:
  401af0:	f3 0f 1e fa          	endbr64 
  401af4:	e9 97 20 01 00       	jmp    413b90 <slm_sched_fprr_execution>
  401af9:	0f 1f 80 00 00 00 00 	nop    DWORD PTR [rax+0x0]

0000000000401b00 <slm_thd_lookup>:
  401b00:	f3 0f 1e fa          	endbr64 
SS_STATIC_SLAB(thd, struct slm_thd_container, MAX_NUM_THREADS);
  401b04:	85 ff                	test   edi,edi
  401b06:	74 38                	je     401b40 <slm_thd_lookup+0x40>
  401b08:	83 ef 01             	sub    edi,0x1
  401b0b:	81 ff c7 00 00 00    	cmp    edi,0xc7
  401b11:	77 2d                	ja     401b40 <slm_thd_lookup+0x40>
  401b13:	48 8b 14 fd 20 f7 5b 	mov    rdx,QWORD PTR [rdi*8+0x5bf720]
  401b1a:	00 
  401b1b:	31 c0                	xor    eax,eax
  401b1d:	48 f7 c2 fe ff ff ff 	test   rdx,0xfffffffffffffffe
  401b24:	74 1c                	je     401b42 <slm_thd_lookup+0x42>
  401b26:	83 e2 01             	and    edx,0x1
  401b29:	75 17                	jne    401b42 <slm_thd_lookup+0x42>
  401b2b:	48 8d 04 bf          	lea    rax,[rdi+rdi*4]
  401b2f:	48 8d 04 47          	lea    rax,[rdi+rax*2]
  401b33:	48 c1 e0 04          	shl    rax,0x4
  401b37:	48 05 60 fd 5b 00    	add    rax,0x5bfd60
  401b3d:	c3                   	ret    
  401b3e:	66 90                	xchg   ax,ax
  401b40:	31 c0                	xor    eax,eax
SLM_MODULES_COMPOSE_FNS(quantum, fprr, static_cm);
  401b42:	c3                   	ret    
  401b43:	66 66 2e 0f 1f 84 00 	data16 cs nop WORD PTR [rax+rax*1+0x0]
  401b4a:	00 00 00 00 
  401b4e:	66 90                	xchg   ax,ax

0000000000401b50 <ss_thd_intern_is_allocated>:
SS_STATIC_SLAB(thd, struct slm_thd_container, MAX_NUM_THREADS);
  401b50:	f3 0f 1e fa          	endbr64 
  401b54:	48 8d 87 40 06 00 00 	lea    rax,[rdi+0x640]
  401b5b:	48 39 c6             	cmp    rsi,rax
  401b5e:	72 32                	jb     401b92 <ss_thd_intern_is_allocated+0x42>
  401b60:	48 8d 97 10 8f 00 00 	lea    rdx,[rdi+0x8f10]
  401b67:	48 39 d6             	cmp    rsi,rdx
  401b6a:	77 26                	ja     401b92 <ss_thd_intern_is_allocated+0x42>
  401b6c:	48 29 c6             	sub    rsi,rax
  401b6f:	48 c1 fe 04          	sar    rsi,0x4
  401b73:	69 c6 a3 8b 2e ba    	imul   eax,esi,0xba2e8ba3
  401b79:	48 8b 04 c7          	mov    rax,QWORD PTR [rdi+rax*8]
  401b7d:	48 89 c2             	mov    rdx,rax
  401b80:	83 e2 01             	and    edx,0x1
  401b83:	48 a9 fe ff ff ff    	test   rax,0xfffffffffffffffe
  401b89:	b8 01 00 00 00       	mov    eax,0x1
  401b8e:	0f 45 c2             	cmovne eax,edx
  401b91:	c3                   	ret    
  401b92:	55                   	push   rbp
  401b93:	be 23 00 00 00       	mov    esi,0x23
  401b98:	bf a8 d4 41 00       	mov    edi,0x41d4a8
  401b9d:	48 89 e5             	mov    rbp,rsp
  401ba0:	e8 db 90 00 00       	call   40ac80 <cos_print_str>
  401ba5:	c7 04 25 00 00 00 00 	mov    DWORD PTR ds:0x0,0x0
  401bac:	00 00 00 00 
  401bb0:	0f 0b                	ud2    
  401bb2:	66 66 2e 0f 1f 84 00 	data16 cs nop WORD PTR [rax+rax*1+0x0]
  401bb9:	00 00 00 00 
  401bbd:	0f 1f 00             	nop    DWORD PTR [rax]

0000000000401bc0 <ss_thd_is_allocated>:
  401bc0:	f3 0f 1e fa          	endbr64 
  401bc4:	48 81 ff 30 86 5c 00 	cmp    rdi,0x5c8630
  401bcb:	77 37                	ja     401c04 <ss_thd_is_allocated+0x44>
  401bcd:	48 81 ff 60 fd 5b 00 	cmp    rdi,0x5bfd60
  401bd4:	72 2e                	jb     401c04 <ss_thd_is_allocated+0x44>
  401bd6:	48 81 ef 60 fd 5b 00 	sub    rdi,0x5bfd60
  401bdd:	48 c1 ff 04          	sar    rdi,0x4
  401be1:	69 c7 a3 8b 2e ba    	imul   eax,edi,0xba2e8ba3
  401be7:	48 8b 04 c5 20 f7 5b 	mov    rax,QWORD PTR [rax*8+0x5bf720]
  401bee:	00 
  401bef:	48 89 c2             	mov    rdx,rax
  401bf2:	83 e2 01             	and    edx,0x1
  401bf5:	48 a9 fe ff ff ff    	test   rax,0xfffffffffffffffe
  401bfb:	b8 01 00 00 00       	mov    eax,0x1
  401c00:	0f 45 c2             	cmovne eax,edx
  401c03:	c3                   	ret    
  401c04:	55                   	push   rbp
  401c05:	be 23 00 00 00       	mov    esi,0x23
  401c0a:	bf a8 d4 41 00       	mov    edi,0x41d4a8
  401c0f:	48 89 e5             	mov    rbp,rsp
  401c12:	e8 69 90 00 00       	call   40ac80 <cos_print_str>
  401c17:	c7 04 25 00 00 00 00 	mov    DWORD PTR ds:0x0,0x0
  401c1e:	00 00 00 00 
  401c22:	0f 0b                	ud2    
  401c24:	66 66 2e 0f 1f 84 00 	data16 cs nop WORD PTR [rax+rax*1+0x0]
  401c2b:	00 00 00 00 
  401c2f:	90                   	nop

0000000000401c30 <slm_thd_static_cm_lookup>:
  401c30:	f3 0f 1e fa          	endbr64 
  401c34:	85 ff                	test   edi,edi
  401c36:	74 38                	je     401c70 <slm_thd_static_cm_lookup+0x40>
  401c38:	83 ef 01             	sub    edi,0x1
  401c3b:	81 ff c7 00 00 00    	cmp    edi,0xc7
  401c41:	77 2d                	ja     401c70 <slm_thd_static_cm_lookup+0x40>
  401c43:	48 8b 14 fd 20 f7 5b 	mov    rdx,QWORD PTR [rdi*8+0x5bf720]
  401c4a:	00 
  401c4b:	31 c0                	xor    eax,eax
  401c4d:	48 f7 c2 fe ff ff ff 	test   rdx,0xfffffffffffffffe
  401c54:	74 1c                	je     401c72 <slm_thd_static_cm_lookup+0x42>
  401c56:	83 e2 01             	and    edx,0x1
  401c59:	75 17                	jne    401c72 <slm_thd_static_cm_lookup+0x42>
  401c5b:	48 8d 04 bf          	lea    rax,[rdi+rdi*4]
  401c5f:	48 8d 04 47          	lea    rax,[rdi+rax*2]
  401c63:	48 c1 e0 04          	shl    rax,0x4
  401c67:	48 05 60 fd 5b 00    	add    rax,0x5bfd60
  401c6d:	c3                   	ret    
  401c6e:	66 90                	xchg   ax,ax
  401c70:	31 c0                	xor    eax,eax
  401c72:	c3                   	ret    
  401c73:	66 66 2e 0f 1f 84 00 	data16 cs nop WORD PTR [rax+rax*1+0x0]
  401c7a:	00 00 00 00 
  401c7e:	66 90                	xchg   ax,ax

0000000000401c80 <slm_thd_current_extern>:
{
  401c80:	f3 0f 1e fa          	endbr64 
	__asm__("mov %%rsp, %0;" : "=r"(curr_stk_pointer));
  401c84:	48 89 e0             	mov    rax,rsp
	return *(long *)((curr_stk_pointer & ~(COS_STACK_SZ - 1)) + COS_STACK_SZ - offset * sizeof(unsigned long));
  401c87:	48 25 00 e0 ff ff    	and    rax,0xffffffffffffe000
  401c8d:	0f b7 80 f0 1f 00 00 	movzx  eax,WORD PTR [rax+0x1ff0]
SS_STATIC_SLAB(thd, struct slm_thd_container, MAX_NUM_THREADS);
  401c94:	48 85 c0             	test   rax,rax
  401c97:	74 3f                	je     401cd8 <slm_thd_current_extern+0x58>
  401c99:	83 e8 01             	sub    eax,0x1
  401c9c:	3d c7 00 00 00       	cmp    eax,0xc7
  401ca1:	77 35                	ja     401cd8 <slm_thd_current_extern+0x58>
  401ca3:	48 8b 14 c5 20 f7 5b 	mov    rdx,QWORD PTR [rax*8+0x5bf720]
  401caa:	00 
  401cab:	45 31 c0             	xor    r8d,r8d
  401cae:	48 f7 c2 fe ff ff ff 	test   rdx,0xfffffffffffffffe
  401cb5:	74 18                	je     401ccf <slm_thd_current_extern+0x4f>
  401cb7:	83 e2 01             	and    edx,0x1
  401cba:	75 13                	jne    401ccf <slm_thd_current_extern+0x4f>
  401cbc:	48 8d 14 80          	lea    rdx,[rax+rax*4]
  401cc0:	4c 8d 04 50          	lea    r8,[rax+rdx*2]
  401cc4:	49 c1 e0 04          	shl    r8,0x4
  401cc8:	49 81 c0 60 fd 5b 00 	add    r8,0x5bfd60
}
  401ccf:	4c 89 c0             	mov    rax,r8
  401cd2:	c3                   	ret    
  401cd3:	0f 1f 44 00 00       	nop    DWORD PTR [rax+rax*1+0x0]
SS_STATIC_SLAB(thd, struct slm_thd_container, MAX_NUM_THREADS);
  401cd8:	45 31 c0             	xor    r8d,r8d
}
  401cdb:	4c 89 c0             	mov    rax,r8
  401cde:	c3                   	ret    
  401cdf:	90                   	nop

0000000000401ce0 <slm_thd_from_container>:
slm_thd_from_container(struct slm_thd_container *c) {
  401ce0:	f3 0f 1e fa          	endbr64 
  401ce4:	48 89 f8             	mov    rax,rdi
}
  401ce7:	c3                   	ret    
  401ce8:	0f 1f 84 00 00 00 00 	nop    DWORD PTR [rax+rax*1+0x0]
  401cef:	00 

0000000000401cf0 <slm_thd_mem_alloc>:
{
  401cf0:	f3 0f 1e fa          	endbr64 
  401cf4:	55                   	push   rbp
  401cf5:	66 48 0f 6e c7       	movq   xmm0,rdi
  401cfa:	66 48 0f 6e ce       	movq   xmm1,rsi
  401cff:	66 0f 6c c1          	punpcklqdq xmm0,xmm1
  401d03:	48 89 e5             	mov    rbp,rsp
  401d06:	53                   	push   rbx
  401d07:	48 83 ec 08          	sub    rsp,0x8
SS_STATIC_SLAB(thd, struct slm_thd_container, MAX_NUM_THREADS);
  401d0b:	85 f6                	test   esi,esi
  401d0d:	0f 84 8d 00 00 00    	je     401da0 <slm_thd_mem_alloc+0xb0>
  401d13:	49 89 d2             	mov    r10,rdx
  401d16:	8d 56 ff             	lea    edx,[rsi-0x1]
  401d19:	81 fa c7 00 00 00    	cmp    edx,0xc7
  401d1f:	77 7f                	ja     401da0 <slm_thd_mem_alloc+0xb0>
	if (*state != SS_STATE_FREE ||
  401d21:	48 83 3c d5 20 f7 5b 	cmp    QWORD PTR [rdx*8+0x5bf720],0x0
  401d28:	00 00 
  401d2a:	75 74                	jne    401da0 <slm_thd_mem_alloc+0xb0>
  401d2c:	31 db                	xor    ebx,ebx
  401d2e:	49 89 c9             	mov    r9,rcx
  401d31:	b9 01 00 00 00       	mov    ecx,0x1
  401d36:	48 89 d8             	mov    rax,rbx
  401d39:	f0 48 0f b1 0c d5 20 	lock cmpxchg QWORD PTR [rdx*8+0x5bf720],rcx
  401d40:	f7 5b 00 
  401d43:	0f 94 c0             	sete   al
  401d46:	84 c0                	test   al,al
  401d48:	74 56                	je     401da0 <slm_thd_mem_alloc+0xb0>
  401d4a:	48 8d 04 92          	lea    rax,[rdx+rdx*4]
  401d4e:	49 89 f8             	mov    r8,rdi
  401d51:	b9 16 00 00 00       	mov    ecx,0x16
  401d56:	48 8d 14 42          	lea    rdx,[rdx+rax*2]
  401d5a:	48 89 d8             	mov    rax,rbx
  401d5d:	48 c1 e2 04          	shl    rdx,0x4
  401d61:	4c 8d 9a 60 fd 5b 00 	lea    r11,[rdx+0x5bfd60]
  401d68:	4c 89 df             	mov    rdi,r11
  401d6b:	f3 48 ab             	rep stos QWORD PTR es:[rdi],rax
	assert(_cap != 0 && _tid != 0);
  401d6e:	4d 85 c0             	test   r8,r8
  401d71:	74 49                	je     401dbc <slm_thd_mem_alloc+0xcc>
	t->resources = (struct slm_resources_thd) {
  401d73:	48 8b 05 c6 72 02 00 	mov    rax,QWORD PTR [rip+0x272c6]        # 429040 <__cosrt_comp_info+0x40>
  401d7a:	0f 11 82 f8 fd 5b 00 	movups XMMWORD PTR [rdx+0x5bfdf8],xmm0
}
  401d81:	48 8b 5d f8          	mov    rbx,QWORD PTR [rbp-0x8]
	t->resources = (struct slm_resources_thd) {
  401d85:	48 89 82 08 fe 5b 00 	mov    QWORD PTR [rdx+0x5bfe08],rax
}
  401d8c:	4c 89 d8             	mov    rax,r11
	*thd = _cap;
  401d8f:	4d 89 02             	mov    QWORD PTR [r10],r8
	*tid = _tid;
  401d92:	49 89 31             	mov    QWORD PTR [r9],rsi
}
  401d95:	c9                   	leave  
  401d96:	c3                   	ret    
  401d97:	66 0f 1f 84 00 00 00 	nop    WORD PTR [rax+rax*1+0x0]
  401d9e:	00 00 
  401da0:	be 23 00 00 00       	mov    esi,0x23
  401da5:	bf d0 d4 41 00       	mov    edi,0x41d4d0
  401daa:	e8 d1 8e 00 00       	call   40ac80 <cos_print_str>
	if (!t) assert(0);
  401daf:	c7 04 25 00 00 00 00 	mov    DWORD PTR ds:0x0,0x0
  401db6:	00 00 00 00 
  401dba:	0f 0b                	ud2    
  401dbc:	be 23 00 00 00       	mov    esi,0x23
  401dc1:	bf f8 d4 41 00       	mov    edi,0x41d4f8
  401dc6:	e8 b5 8e 00 00       	call   40ac80 <cos_print_str>
	assert(_cap != 0 && _tid != 0);
  401dcb:	c7 04 25 00 00 00 00 	mov    DWORD PTR ds:0x0,0x0
  401dd2:	00 00 00 00 
  401dd6:	0f 0b                	ud2    
  401dd8:	0f 1f 84 00 00 00 00 	nop    DWORD PTR [rax+rax*1+0x0]
  401ddf:	00 

0000000000401de0 <slm_thd_mem_activate>:
void slm_thd_mem_activate(struct slm_thd_container *t) { ss_thd_activate(t); }
  401de0:	f3 0f 1e fa          	endbr64 
  401de4:	55                   	push   rbp
  401de5:	48 89 e5             	mov    rbp,rsp
SS_STATIC_SLAB(thd, struct slm_thd_container, MAX_NUM_THREADS);
  401de8:	48 81 ff 60 fd 5b 00 	cmp    rdi,0x5bfd60
  401def:	72 50                	jb     401e41 <slm_thd_mem_activate+0x61>
  401df1:	48 81 ff 30 86 5c 00 	cmp    rdi,0x5c8630
  401df8:	77 47                	ja     401e41 <slm_thd_mem_activate+0x61>
  401dfa:	48 81 ef 60 fd 5b 00 	sub    rdi,0x5bfd60
  401e01:	48 c1 ff 04          	sar    rdi,0x4
 */
static inline void
ss_state_activate_with(ss_state_t *state, word_t val)
{
	assert(val != 0);
	*state = val | (*state & 1);
  401e05:	69 c7 a3 8b 2e ba    	imul   eax,edi,0xba2e8ba3
  401e0b:	48 8b 14 c5 20 f7 5b 	mov    rdx,QWORD PTR [rax*8+0x5bf720]
  401e12:	00 
  401e13:	48 83 ca fe          	or     rdx,0xfffffffffffffffe
  401e17:	48 89 14 c5 20 f7 5b 	mov    QWORD PTR [rax*8+0x5bf720],rdx
  401e1e:	00 
	assert((*state & 1) == SS_STATE_CONS);
  401e1f:	48 83 fa ff          	cmp    rdx,0xffffffffffffffff
  401e23:	75 38                	jne    401e5d <slm_thd_mem_activate+0x7d>
	*state &= ~SS_STATE_CONS;
  401e25:	48 c7 04 c5 20 f7 5b 	mov    QWORD PTR [rax*8+0x5bf720],0xfffffffffffffffe
  401e2c:	00 fe ff ff ff 
{ __asm__ __volatile__("mfence" ::: "memory"); }
  401e31:	0f ae f0             	mfence 
	assert(*state != 0);
  401e34:	48 83 3c c5 20 f7 5b 	cmp    QWORD PTR [rax*8+0x5bf720],0x0
  401e3b:	00 00 
  401e3d:	74 3a                	je     401e79 <slm_thd_mem_activate+0x99>
void slm_thd_mem_activate(struct slm_thd_container *t) { ss_thd_activate(t); }
  401e3f:	5d                   	pop    rbp
  401e40:	c3                   	ret    
  401e41:	be 23 00 00 00       	mov    esi,0x23
  401e46:	bf a8 d4 41 00       	mov    edi,0x41d4a8
  401e4b:	e8 30 8e 00 00       	call   40ac80 <cos_print_str>
SS_STATIC_SLAB(thd, struct slm_thd_container, MAX_NUM_THREADS);
  401e50:	c7 04 25 00 00 00 00 	mov    DWORD PTR ds:0x0,0x0
  401e57:	00 00 00 00 
  401e5b:	0f 0b                	ud2    
  401e5d:	be 61 00 00 00       	mov    esi,0x61
  401e62:	bf 20 d5 41 00       	mov    edi,0x41d520
  401e67:	e8 14 8e 00 00       	call   40ac80 <cos_print_str>
	assert((*state & 1) == SS_STATE_CONS);
  401e6c:	c7 04 25 00 00 00 00 	mov    DWORD PTR ds:0x0,0x0
  401e73:	00 00 00 00 
  401e77:	0f 0b                	ud2    
  401e79:	be 61 00 00 00       	mov    esi,0x61
  401e7e:	bf 88 d5 41 00       	mov    edi,0x41d588
  401e83:	e8 f8 8d 00 00       	call   40ac80 <cos_print_str>
	assert(*state != 0);
  401e88:	c7 04 25 00 00 00 00 	mov    DWORD PTR ds:0x0,0x0
  401e8f:	00 00 00 00 
  401e93:	0f 0b                	ud2    
  401e95:	66 66 2e 0f 1f 84 00 	data16 cs nop WORD PTR [rax+rax*1+0x0]
  401e9c:	00 00 00 00 

0000000000401ea0 <slm_thd_mem_free>:
void slm_thd_mem_free(struct slm_thd_container *t) { return; }
  401ea0:	f3 0f 1e fa          	endbr64 
  401ea4:	c3                   	ret    
  401ea5:	66 66 2e 0f 1f 84 00 	data16 cs nop WORD PTR [rax+rax*1+0x0]
  401eac:	00 00 00 00 

0000000000401eb0 <sched_thd_create_closure>:
{
  401eb0:	f3 0f 1e fa          	endbr64 
  401eb4:	55                   	push   rbp
  401eb5:	89 fe                	mov    esi,edi
	struct slm_thd *t = thd_alloc_in(cos_inv_token(), idx, &p, 0);
  401eb7:	31 c9                	xor    ecx,ecx
	__asm__("mov %%rsp, %0;" : "=r"(curr_stk_pointer));
  401eb9:	48 89 e0             	mov    rax,rsp
	return *(long *)((curr_stk_pointer & ~(COS_STACK_SZ - 1)) + COS_STACK_SZ - offset * sizeof(unsigned long));
  401ebc:	48 25 00 e0 ff ff    	and    rax,0xffffffffffffe000
{
  401ec2:	48 89 e5             	mov    rbp,rsp
  401ec5:	48 83 ec 10          	sub    rsp,0x10
	struct slm_thd *t = thd_alloc_in(cos_inv_token(), idx, &p, 0);
  401ec9:	48 8b b8 e8 1f 00 00 	mov    rdi,QWORD PTR [rax+0x1fe8]
  401ed0:	48 8d 55 fc          	lea    rdx,[rbp-0x4]
	sched_param_t p = 0;
  401ed4:	c7 45 fc 00 00 00 00 	mov    DWORD PTR [rbp-0x4],0x0
	struct slm_thd *t = thd_alloc_in(cos_inv_token(), idx, &p, 0);
  401edb:	e8 70 39 00 00       	call   405850 <thd_alloc_in>
	if (!t) return 0;
  401ee0:	48 85 c0             	test   rax,rax
  401ee3:	74 0b                	je     401ef0 <sched_thd_create_closure+0x40>
	return t->tid;
  401ee5:	48 8b 40 18          	mov    rax,QWORD PTR [rax+0x18]
}
  401ee9:	c9                   	leave  
  401eea:	c3                   	ret    
  401eeb:	0f 1f 44 00 00       	nop    DWORD PTR [rax+rax*1+0x0]
  401ef0:	c9                   	leave  
	if (!t) return 0;
  401ef1:	31 c0                	xor    eax,eax
}
  401ef3:	c3                   	ret    
  401ef4:	66 66 2e 0f 1f 84 00 	data16 cs nop WORD PTR [rax+rax*1+0x0]
  401efb:	00 00 00 00 
  401eff:	90                   	nop

0000000000401f00 <sched_thd_param_set>:
{
  401f00:	f3 0f 1e fa          	endbr64 

static inline void
sched_param_get(sched_param_t sp, sched_param_type_t *type, unsigned int *value)
{
	if (type)  *type  = (sched_param_type_t)(sp &  SCHED_PARAM_TYPE_MASK);
	if (value) *value = (unsigned int)      (sp >> SCHED_PARAM_TYPE_BITS);
  401f04:	89 f2                	mov    edx,esi
	if (type)  *type  = (sched_param_type_t)(sp &  SCHED_PARAM_TYPE_MASK);
  401f06:	83 e6 3f             	and    esi,0x3f
	if (value) *value = (unsigned int)      (sp >> SCHED_PARAM_TYPE_BITS);
  401f09:	c1 ea 06             	shr    edx,0x6
SS_STATIC_SLAB(thd, struct slm_thd_container, MAX_NUM_THREADS);
  401f0c:	85 ff                	test   edi,edi
  401f0e:	74 40                	je     401f50 <sched_thd_param_set+0x50>
  401f10:	83 ef 01             	sub    edi,0x1
  401f13:	81 ff c7 00 00 00    	cmp    edi,0xc7
  401f19:	77 35                	ja     401f50 <sched_thd_param_set+0x50>
  401f1b:	48 8b 04 fd 20 f7 5b 	mov    rax,QWORD PTR [rdi*8+0x5bf720]
  401f22:	00 
	return ((state & ~1) != 0) && ((state & 1) == SS_STATE_ALLOC);
  401f23:	48 a9 fe ff ff ff    	test   rax,0xfffffffffffffffe
  401f29:	74 25                	je     401f50 <sched_thd_param_set+0x50>
  401f2b:	a8 01                	test   al,0x1
  401f2d:	75 21                	jne    401f50 <sched_thd_param_set+0x50>
	return &ss_thd_get(id)->thd;
  401f2f:	48 8d 04 bf          	lea    rax,[rdi+rdi*4]
  401f33:	48 8d 3c 47          	lea    rdi,[rdi+rax*2]
  401f37:	48 c1 e7 04          	shl    rdi,0x4
  401f3b:	48 81 c7 60 fd 5b 00 	add    rdi,0x5bfd60
SLM_MODULES_COMPOSE_FNS(quantum, fprr, static_cm);
  401f42:	e9 59 1e 01 00       	jmp    413da0 <slm_sched_fprr_thd_update>
  401f47:	66 0f 1f 84 00 00 00 	nop    WORD PTR [rax+rax*1+0x0]
  401f4e:	00 00 
}
  401f50:	b8 ff ff ff ff       	mov    eax,0xffffffff
  401f55:	c3                   	ret    
  401f56:	66 2e 0f 1f 84 00 00 	cs nop WORD PTR [rax+rax*1+0x0]
  401f5d:	00 00 00 

0000000000401f60 <sched_thd_delete>:
{
  401f60:	f3 0f 1e fa          	endbr64 
}
  401f64:	31 c0                	xor    eax,eax
  401f66:	c3                   	ret    
  401f67:	66 0f 1f 84 00 00 00 	nop    WORD PTR [rax+rax*1+0x0]
  401f6e:	00 00 

0000000000401f70 <sched_thd_exit>:
{
  401f70:	f3 0f 1e fa          	endbr64 
  401f74:	55                   	push   rbp
	__asm__("mov %%rsp, %0;" : "=r"(curr_stk_pointer));
  401f75:	48 89 e0             	mov    rax,rsp
	return *(long *)((curr_stk_pointer & ~(COS_STACK_SZ - 1)) + COS_STACK_SZ - offset * sizeof(unsigned long));
  401f78:	48 25 00 e0 ff ff    	and    rax,0xffffffffffffe000
  401f7e:	48 89 e5             	mov    rbp,rsp
  401f81:	41 57                	push   r15
  401f83:	41 56                	push   r14
  401f85:	41 55                	push   r13
  401f87:	41 54                	push   r12
  401f89:	53                   	push   rbx
  401f8a:	48 83 ec 18          	sub    rsp,0x18
  401f8e:	0f b7 80 f0 1f 00 00 	movzx  eax,WORD PTR [rax+0x1ff0]
SS_STATIC_SLAB(thd, struct slm_thd_container, MAX_NUM_THREADS);
  401f95:	48 85 c0             	test   rax,rax
  401f98:	0f 84 bf 02 00 00    	je     40225d <sched_thd_exit+0x2ed>
  401f9e:	83 e8 01             	sub    eax,0x1
  401fa1:	3d c7 00 00 00       	cmp    eax,0xc7
  401fa6:	0f 87 b1 02 00 00    	ja     40225d <sched_thd_exit+0x2ed>
  401fac:	48 8b 14 c5 20 f7 5b 	mov    rdx,QWORD PTR [rax*8+0x5bf720]
  401fb3:	00 
  401fb4:	48 f7 c2 fe ff ff ff 	test   rdx,0xfffffffffffffffe
  401fbb:	0f 84 9c 02 00 00    	je     40225d <sched_thd_exit+0x2ed>
  401fc1:	80 e2 01             	and    dl,0x1
  401fc4:	0f 85 93 02 00 00    	jne    40225d <sched_thd_exit+0x2ed>
  401fca:	48 8d 14 80          	lea    rdx,[rax+rax*4]
  401fce:	4c 8d 3c 50          	lea    r15,[rax+rdx*2]
  401fd2:	49 c1 e7 04          	shl    r15,0x4
  401fd6:	49 8d 87 60 fd 5b 00 	lea    rax,[r15+0x5bfd60]
  401fdd:	48 89 45 c8          	mov    QWORD PTR [rbp-0x38],rax
	__asm__ __volatile__("rdtscp" : "=a"(a), "=d"(d), "=c"(c) : : );
  401fe1:	0f 01 f9             	rdtscp 
	cs = &(slm_global()->lock);
  401fe4:	81 e1 ff 0f 00 00    	and    ecx,0xfff
  401fea:	48 8d 1c 89          	lea    rbx,[rcx+rcx*4]
  401fee:	48 c1 e3 06          	shl    rbx,0x6
  401ff2:	48 81 c3 00 65 71 00 	add    rbx,0x716500
		tok    = cos_sched_sync();
  401ff9:	e8 12 fb 00 00       	call   411b10 <cos_sched_sync>
  401ffe:	41 89 c1             	mov    r9d,eax
	unsigned long oc = ps_load(&cs->owner_contention);
  402001:	48 8b 03             	mov    rax,QWORD PTR [rbx]
		if (unlikely(owner)) {
  402004:	48 89 c1             	mov    rcx,rax
  402007:	48 83 e1 fe          	and    rcx,0xfffffffffffffffe
  40200b:	0f 85 8d 02 00 00    	jne    40229e <sched_thd_exit+0x32e>
        __asm__ __volatile__("lock " PS_CAS_STR
  402011:	48 8b 7d c8          	mov    rdi,QWORD PTR [rbp-0x38]
  402015:	f0 48 0f b1 3b       	lock cmpxchg QWORD PTR [rbx],rdi
  40201a:	0f 94 c0             	sete   al
		if (likely(!__slm_cs_cas(cs, cached, current, 0))) return 0;
  40201d:	84 c0                	test   al,al
  40201f:	74 d8                	je     401ff9 <sched_thd_exit+0x89>
	slm_thd_deinit(current);
  402021:	e8 ea 2f 01 00       	call   415010 <slm_thd_deinit>
	for (i = 0; slm_cs_exit_reschedule(current, SLM_CS_NONE) && i < 16; i++) ;
  402026:	41 be 11 00 00 00    	mov    r14d,0x11
	struct cos_compinfo    *ci  = &cos_defcompinfo_curr_get()->ci;
  40202c:	e8 1f 95 00 00       	call   40b550 <cos_defcompinfo_curr_get>
  402031:	0f 01 f9             	rdtscp 
	if (unlikely(!t)) t = &g->idle_thd;
  402034:	81 e1 ff 0f 00 00    	and    ecx,0xfff
  40203a:	4c 8d 24 89          	lea    r12,[rcx+rcx*4]
  40203e:	49 c1 e4 06          	shl    r12,0x6
  402042:	49 81 c4 80 65 71 00 	add    r12,0x716580
	tok  = cos_sched_sync();
  402049:	e8 c2 fa 00 00       	call   411b10 <cos_sched_sync>
  40204e:	41 89 c5             	mov    r13d,eax
SLM_MODULES_COMPOSE_FNS(quantum, fprr, static_cm);
  402051:	e8 4a 1b 01 00       	call   413ba0 <slm_sched_fprr_schedule>
	if (unlikely(!t)) t = &g->idle_thd;
  402056:	48 85 c0             	test   rax,rax
  402059:	48 89 c3             	mov    rbx,rax
  40205c:	49 0f 44 dc          	cmove  rbx,r12
{ return s == SLM_THD_RUNNABLE || s == SLM_THD_WOKEN; }
  402060:	8b 43 04             	mov    eax,DWORD PTR [rbx+0x4]
  402063:	83 e8 02             	sub    eax,0x2
	assert(slm_state_is_runnable(t->state));
  402066:	83 f8 01             	cmp    eax,0x1
  402069:	0f 87 c2 00 00 00    	ja     402131 <sched_thd_exit+0x1c1>
  40206f:	0f 01 f9             	rdtscp 
	struct slm_cs *cs = &(slm_global()->lock);
  402072:	81 e1 ff 0f 00 00    	and    ecx,0xfff
  402078:	48 8d 3c 89          	lea    rdi,[rcx+rcx*4]
  40207c:	48 c1 e7 06          	shl    rdi,0x6
  402080:	4c 8d bf 00 65 71 00 	lea    r15,[rdi+0x716500]
	while (ret != 0) {
  402087:	eb 13                	jmp    40209c <sched_thd_exit+0x12c>
  402089:	0f 1f 80 00 00 00 00 	nop    DWORD PTR [rax+0x0]
  402090:	f0 49 0f b1 17       	lock cmpxchg QWORD PTR [r15],rdx
  402095:	0f 94 c0             	sete   al
  402098:	84 c0                	test   al,al
  40209a:	75 28                	jne    4020c4 <sched_thd_exit+0x154>
		tok    = cos_sched_sync();
  40209c:	e8 6f fa 00 00       	call   411b10 <cos_sched_sync>
  4020a1:	89 c1                	mov    ecx,eax
	unsigned long oc = ps_load(&cs->owner_contention);
  4020a3:	49 8b 07             	mov    rax,QWORD PTR [r15]
		if (unlikely(contention)) {
  4020a6:	48 89 c2             	mov    rdx,rax
  4020a9:	83 e2 01             	and    edx,0x1
  4020ac:	74 e2                	je     402090 <sched_thd_exit+0x120>
	*thd        = (struct slm_thd *)(oc & (~0UL << 1));
  4020ae:	48 89 c6             	mov    rsi,rax
			if (!slm_cs_exit_contention(cs, current, cached, tok)) return;
  4020b1:	48 89 c2             	mov    rdx,rax
  4020b4:	4c 89 ff             	mov    rdi,r15
  4020b7:	48 83 e6 fe          	and    rsi,0xfffffffffffffffe
  4020bb:	e8 e0 2f 01 00       	call   4150a0 <slm_cs_exit_contention>
  4020c0:	85 c0                	test   eax,eax
  4020c2:	75 d8                	jne    40209c <sched_thd_exit+0x12c>
	struct cos_defcompinfo *dci = cos_defcompinfo_curr_get();
  4020c4:	e8 87 94 00 00       	call   40b550 <cos_defcompinfo_curr_get>
  4020c9:	0f 01 f9             	rdtscp 
	*coreid = c & 0xFFF;
  4020cc:	89 ca                	mov    edx,ecx
	timeout = g->timeout_next;
  4020ce:	81 e1 ff 0f 00 00    	and    ecx,0xfff
	prio = inherit_prio ? curr->priority : t->priority;
  4020d4:	48 8b 73 30          	mov    rsi,QWORD PTR [rbx+0x30]
	timeout = g->timeout_next;
  4020d8:	48 8d 04 89          	lea    rax,[rcx+rcx*4]
  4020dc:	66 81 e2 ff 0f       	and    dx,0xfff
  4020e1:	49 89 cf             	mov    r15,rcx
  4020e4:	48 c1 e0 06          	shl    rax,0x6
  4020e8:	4c 8b 88 08 66 71 00 	mov    r9,QWORD PTR [rax+0x716608]
	if (unlikely(t->properties & (SLM_THD_PROPERTY_SEND | SLM_THD_PROPERTY_OWN_TCAP | SLM_THD_PROPERTY_SPECIAL))) {
  4020ef:	8b 03                	mov    eax,DWORD PTR [rbx]
  4020f1:	a8 0b                	test   al,0xb
  4020f3:	75 58                	jne    40214d <sched_thd_exit+0x1dd>
	ret = cos_defswitch(t->thd, prio, timeout, tok);
  4020f5:	48 8b 7b 10          	mov    rdi,QWORD PTR [rbx+0x10]
  4020f9:	44 89 e9             	mov    ecx,r13d
  4020fc:	4c 89 ca             	mov    rdx,r9
  4020ff:	e8 9c a5 00 00       	call   40c6a0 <cos_defswitch>
	if (unlikely(ret == -EPERM && !slm_thd_normal(t))) {
  402104:	83 f8 ff             	cmp    eax,0xffffffff
  402107:	0f 84 05 01 00 00    	je     402212 <sched_thd_exit+0x2a2>
	if (unlikely(ret != 0)) {
  40210d:	85 c0                	test   eax,eax
  40210f:	0f 85 9d 00 00 00    	jne    4021b2 <sched_thd_exit+0x242>
  402115:	be 11 00 00 00       	mov    esi,0x11
  40211a:	bf ea d5 41 00       	mov    edi,0x41d5ea
  40211f:	e8 5c 8b 00 00       	call   40ac80 <cos_print_str>
	BUG();
  402124:	c7 04 25 00 00 00 00 	mov    DWORD PTR ds:0x0,0x0
  40212b:	00 00 00 00 
  40212f:	0f 0b                	ud2    
  402131:	be 61 00 00 00       	mov    esi,0x61
  402136:	bf e8 d1 41 00       	mov    edi,0x41d1e8
  40213b:	e8 40 8b 00 00       	call   40ac80 <cos_print_str>
	assert(slm_state_is_runnable(t->state));
  402140:	c7 04 25 00 00 00 00 	mov    DWORD PTR ds:0x0,0x0
  402147:	00 00 00 00 
  40214b:	0f 0b                	ud2    
		if (t == &g->sched_thd) {
  40214d:	0f b7 d2             	movzx  edx,dx
	timeout = g->timeout_next;
  402150:	4c 89 c9             	mov    rcx,r9
		if (t == &g->sched_thd) {
  402153:	48 69 d2 40 01 00 00 	imul   rdx,rdx,0x140
  40215a:	48 81 c2 08 65 71 00 	add    rdx,0x716508
  402161:	48 39 d3             	cmp    rbx,rdx
  402164:	0f 84 25 01 00 00    	je     40228f <sched_thd_exit+0x31f>
		if (t->properties & SLM_THD_PROPERTY_SEND) {
  40216a:	a8 02                	test   al,0x2
  40216c:	0f 85 67 01 00 00    	jne    4022d9 <sched_thd_exit+0x369>
		} else if (t->properties & SLM_THD_PROPERTY_OWN_TCAP) {
  402172:	49 89 c9             	mov    r9,rcx
  402175:	a8 01                	test   al,0x1
  402177:	0f 84 78 ff ff ff    	je     4020f5 <sched_thd_exit+0x185>
			return cos_switch(t->thd, t->tc, prio, timeout, g->sched_thd.rcv, tok);
  40217d:	4c 8b 53 08          	mov    r10,QWORD PTR [rbx+0x8]
  402181:	48 8b 7b 10          	mov    rdi,QWORD PTR [rbx+0x10]
  402185:	48 89 f2             	mov    rdx,rsi
  402188:	45 89 e9             	mov    r9d,r13d
  40218b:	4d 69 c7 40 01 00 00 	imul   r8,r15,0x140
  402192:	4c 89 d6             	mov    rsi,r10
  402195:	4d 8b 80 28 65 71 00 	mov    r8,QWORD PTR [r8+0x716528]
  40219c:	e8 8f f9 00 00       	call   411b30 <cos_switch>
	if (unlikely(ret != 0)) {
  4021a1:	85 c0                	test   eax,eax
  4021a3:	0f 84 6c ff ff ff    	je     402115 <sched_thd_exit+0x1a5>
		assert(ret != -EPERM);
  4021a9:	83 f8 ff             	cmp    eax,0xffffffff
  4021ac:	0f 84 8f 00 00 00    	je     402241 <sched_thd_exit+0x2d1>
		assert(ret != -EINVAL);
  4021b2:	83 f8 ea             	cmp    eax,0xffffffea
  4021b5:	0f 84 6e 01 00 00    	je     402329 <sched_thd_exit+0x3b9>
		if (ret == -EBUSY) return ret;
  4021bb:	83 f8 f0             	cmp    eax,0xfffffff0
  4021be:	0f 84 bc 00 00 00    	je     402280 <sched_thd_exit+0x310>
		assert(ret == -EAGAIN);
  4021c4:	83 f8 f5             	cmp    eax,0xfffffff5
  4021c7:	0f 85 9c 01 00 00    	jne    402369 <sched_thd_exit+0x3f9>
	__asm__ __volatile__("rdtscp" : "=a"(a), "=d"(d), "=c"(c) : : );
  4021cd:	0f 01 f9             	rdtscp 
	cs = &(slm_global()->lock);
  4021d0:	81 e1 ff 0f 00 00    	and    ecx,0xfff
  4021d6:	48 69 d9 40 01 00 00 	imul   rbx,rcx,0x140
  4021dd:	48 81 c3 00 65 71 00 	add    rbx,0x716500
		tok    = cos_sched_sync();
  4021e4:	e8 27 f9 00 00       	call   411b10 <cos_sched_sync>
  4021e9:	41 89 c1             	mov    r9d,eax
	unsigned long oc = ps_load(&cs->owner_contention);
  4021ec:	48 8b 03             	mov    rax,QWORD PTR [rbx]
		if (unlikely(owner)) {
  4021ef:	48 89 c1             	mov    rcx,rax
  4021f2:	48 83 e1 fe          	and    rcx,0xfffffffffffffffe
  4021f6:	0f 85 49 01 00 00    	jne    402345 <sched_thd_exit+0x3d5>
  4021fc:	48 8b 75 c8          	mov    rsi,QWORD PTR [rbp-0x38]
  402200:	f0 48 0f b1 33       	lock cmpxchg QWORD PTR [rbx],rsi
  402205:	0f 94 c0             	sete   al
		if (likely(!__slm_cs_cas(cs, cached, current, 0))) return 0;
  402208:	84 c0                	test   al,al
  40220a:	0f 85 39 fe ff ff    	jne    402049 <sched_thd_exit+0xd9>
  402210:	eb d2                	jmp    4021e4 <sched_thd_exit+0x274>
  402212:	0f 01 f9             	rdtscp 
	return t != &g->idle_thd && t != &g->sched_thd;
  402215:	81 e1 ff 0f 00 00    	and    ecx,0xfff
  40221b:	48 69 c1 40 01 00 00 	imul   rax,rcx,0x140
  402222:	48 8d 90 80 65 71 00 	lea    rdx,[rax+0x716580]
  402229:	48 39 d3             	cmp    rbx,rdx
  40222c:	0f 84 c9 00 00 00    	je     4022fb <sched_thd_exit+0x38b>
  402232:	48 05 08 65 71 00    	add    rax,0x716508
  402238:	48 39 c3             	cmp    rbx,rax
  40223b:	0f 84 ba 00 00 00    	je     4022fb <sched_thd_exit+0x38b>
  402241:	be 61 00 00 00       	mov    esi,0x61
  402246:	bf 50 d2 41 00       	mov    edi,0x41d250
  40224b:	e8 30 8a 00 00       	call   40ac80 <cos_print_str>
		assert(ret != -EPERM);
  402250:	c7 04 25 00 00 00 00 	mov    DWORD PTR ds:0x0,0x0
  402257:	00 00 00 00 
  40225b:	0f 0b                	ud2    
  40225d:	be 59 00 00 00       	mov    esi,0x59
  402262:	bf 00 d1 41 00       	mov    edi,0x41d100
  402267:	e8 14 8a 00 00       	call   40ac80 <cos_print_str>
	assert(current);
  40226c:	c7 04 25 00 00 00 00 	mov    DWORD PTR ds:0x0,0x0
  402273:	00 00 00 00 
  402277:	0f 0b                	ud2    
  402279:	0f 1f 80 00 00 00 00 	nop    DWORD PTR [rax+0x0]
	for (i = 0; slm_cs_exit_reschedule(current, SLM_CS_NONE) && i < 16; i++) ;
  402280:	41 83 ee 01          	sub    r14d,0x1
  402284:	0f 85 a2 fd ff ff    	jne    40202c <sched_thd_exit+0xbc>
  40228a:	e9 86 fe ff ff       	jmp    402115 <sched_thd_exit+0x1a5>
			prio    = curr->priority;
  40228f:	48 8b 75 c8          	mov    rsi,QWORD PTR [rbp-0x38]
			timeout = TCAP_TIME_NIL;
  402293:	31 c9                	xor    ecx,ecx
			prio    = curr->priority;
  402295:	48 8b 76 30          	mov    rsi,QWORD PTR [rsi+0x30]
  402299:	e9 cc fe ff ff       	jmp    40216a <sched_thd_exit+0x1fa>
			ret = slm_cs_enter_contention(cs, cached, current, owner, contended, tok);
  40229e:	41 89 c0             	mov    r8d,eax
  4022a1:	48 8b 55 c8          	mov    rdx,QWORD PTR [rbp-0x38]
  4022a5:	48 89 c6             	mov    rsi,rax
  4022a8:	48 89 df             	mov    rdi,rbx
  4022ab:	41 83 e0 01          	and    r8d,0x1
  4022af:	e8 8c 2d 01 00       	call   415040 <slm_cs_enter_contention>
			assert(ret != -EBUSY);
  4022b4:	83 f8 f0             	cmp    eax,0xfffffff0
  4022b7:	0f 85 3c fd ff ff    	jne    401ff9 <sched_thd_exit+0x89>
  4022bd:	be 59 00 00 00       	mov    esi,0x59
  4022c2:	bf 60 d1 41 00       	mov    edi,0x41d160
  4022c7:	e8 b4 89 00 00       	call   40ac80 <cos_print_str>
  4022cc:	c7 04 25 00 00 00 00 	mov    DWORD PTR ds:0x0,0x0
  4022d3:	00 00 00 00 
  4022d7:	0f 0b                	ud2    
			return cos_sched_asnd(t->asnd, g->timeout_next, g->sched_thd.rcv, tok);
  4022d9:	4d 69 c7 40 01 00 00 	imul   r8,r15,0x140
  4022e0:	48 8b 7b 28          	mov    rdi,QWORD PTR [rbx+0x28]
  4022e4:	44 89 e9             	mov    ecx,r13d
  4022e7:	4c 89 ce             	mov    rsi,r9
  4022ea:	49 8b 90 28 65 71 00 	mov    rdx,QWORD PTR [r8+0x716528]
  4022f1:	e8 aa f8 00 00       	call   411ba0 <cos_sched_asnd>
  4022f6:	e9 a6 fe ff ff       	jmp    4021a1 <sched_thd_exit+0x231>
		ret = cos_switch(g->sched_thd.thd, 0, curr->priority, TCAP_TIME_NIL, g->sched_thd.rcv, tok);
  4022fb:	49 69 c7 40 01 00 00 	imul   rax,r15,0x140
  402302:	48 8b 75 c8          	mov    rsi,QWORD PTR [rbp-0x38]
  402306:	45 89 e9             	mov    r9d,r13d
  402309:	31 c9                	xor    ecx,ecx
  40230b:	48 8b 56 30          	mov    rdx,QWORD PTR [rsi+0x30]
  40230f:	31 f6                	xor    esi,esi
  402311:	4c 8b 80 28 65 71 00 	mov    r8,QWORD PTR [rax+0x716528]
  402318:	48 8b b8 18 65 71 00 	mov    rdi,QWORD PTR [rax+0x716518]
  40231f:	e8 0c f8 00 00       	call   411b30 <cos_switch>
  402324:	e9 78 fe ff ff       	jmp    4021a1 <sched_thd_exit+0x231>
  402329:	be 61 00 00 00       	mov    esi,0x61
  40232e:	bf b8 d2 41 00       	mov    edi,0x41d2b8
  402333:	e8 48 89 00 00       	call   40ac80 <cos_print_str>
		assert(ret != -EINVAL);
  402338:	c7 04 25 00 00 00 00 	mov    DWORD PTR ds:0x0,0x0
  40233f:	00 00 00 00 
  402343:	0f 0b                	ud2    
			ret = slm_cs_enter_contention(cs, cached, current, owner, contended, tok);
  402345:	41 89 c0             	mov    r8d,eax
  402348:	48 8b 55 c8          	mov    rdx,QWORD PTR [rbp-0x38]
  40234c:	48 89 c6             	mov    rsi,rax
  40234f:	48 89 df             	mov    rdi,rbx
  402352:	41 83 e0 01          	and    r8d,0x1
  402356:	e8 e5 2c 01 00       	call   415040 <slm_cs_enter_contention>
			assert(ret != -EBUSY);
  40235b:	83 f8 f0             	cmp    eax,0xfffffff0
  40235e:	0f 85 80 fe ff ff    	jne    4021e4 <sched_thd_exit+0x274>
  402364:	e9 54 ff ff ff       	jmp    4022bd <sched_thd_exit+0x34d>
  402369:	be 61 00 00 00       	mov    esi,0x61
  40236e:	bf 20 d3 41 00       	mov    edi,0x41d320
  402373:	e8 08 89 00 00       	call   40ac80 <cos_print_str>
		assert(ret == -EAGAIN);
  402378:	c7 04 25 00 00 00 00 	mov    DWORD PTR ds:0x0,0x0
  40237f:	00 00 00 00 
  402383:	0f 0b                	ud2    
  402385:	66 66 2e 0f 1f 84 00 	data16 cs nop WORD PTR [rax+rax*1+0x0]
  40238c:	00 00 00 00 

0000000000402390 <sched_thd_yield_to>:
{
  402390:	f3 0f 1e fa          	endbr64 
  402394:	55                   	push   rbp
	__asm__("mov %%rsp, %0;" : "=r"(curr_stk_pointer));
  402395:	48 89 e0             	mov    rax,rsp
	return *(long *)((curr_stk_pointer & ~(COS_STACK_SZ - 1)) + COS_STACK_SZ - offset * sizeof(unsigned long));
  402398:	48 25 00 e0 ff ff    	and    rax,0xffffffffffffe000
  40239e:	48 89 e5             	mov    rbp,rsp
  4023a1:	41 57                	push   r15
  4023a3:	41 56                	push   r14
  4023a5:	41 55                	push   r13
  4023a7:	41 54                	push   r12
  4023a9:	53                   	push   rbx
  4023aa:	48 83 ec 08          	sub    rsp,0x8
  4023ae:	0f b7 80 f0 1f 00 00 	movzx  eax,WORD PTR [rax+0x1ff0]
SS_STATIC_SLAB(thd, struct slm_thd_container, MAX_NUM_THREADS);
  4023b5:	48 85 c0             	test   rax,rax
  4023b8:	0f 84 0a 02 00 00    	je     4025c8 <sched_thd_yield_to+0x238>
  4023be:	83 e8 01             	sub    eax,0x1
  4023c1:	3d c7 00 00 00       	cmp    eax,0xc7
  4023c6:	0f 87 fc 01 00 00    	ja     4025c8 <sched_thd_yield_to+0x238>
  4023cc:	48 8b 14 c5 20 f7 5b 	mov    rdx,QWORD PTR [rax*8+0x5bf720]
  4023d3:	00 
  4023d4:	45 31 e4             	xor    r12d,r12d
  4023d7:	48 f7 c2 fe ff ff ff 	test   rdx,0xfffffffffffffffe
  4023de:	0f 85 9c 01 00 00    	jne    402580 <sched_thd_yield_to+0x1f0>
  4023e4:	85 ff                	test   edi,edi
  4023e6:	0f 84 bc 01 00 00    	je     4025a8 <sched_thd_yield_to+0x218>
  4023ec:	83 ef 01             	sub    edi,0x1
  4023ef:	81 ff c7 00 00 00    	cmp    edi,0xc7
  4023f5:	0f 87 ad 01 00 00    	ja     4025a8 <sched_thd_yield_to+0x218>
  4023fb:	89 f8                	mov    eax,edi
  4023fd:	48 8b 14 c5 20 f7 5b 	mov    rdx,QWORD PTR [rax*8+0x5bf720]
  402404:	00 
  402405:	48 f7 c2 fe ff ff ff 	test   rdx,0xfffffffffffffffe
  40240c:	0f 84 96 01 00 00    	je     4025a8 <sched_thd_yield_to+0x218>
  402412:	83 e2 01             	and    edx,0x1
  402415:	0f 85 8d 01 00 00    	jne    4025a8 <sched_thd_yield_to+0x218>
	return &ss_thd_get(id)->thd;
  40241b:	48 8d 14 80          	lea    rdx,[rax+rax*4]
  40241f:	48 8d 04 50          	lea    rax,[rax+rdx*2]
  402423:	48 c1 e0 04          	shl    rax,0x4
  402427:	4c 8d a8 60 fd 5b 00 	lea    r13,[rax+0x5bfd60]
	assert(current);
  40242e:	4d 85 e4             	test   r12,r12
  402431:	0f 84 d3 01 00 00    	je     40260a <sched_thd_yield_to+0x27a>
	__asm__ __volatile__("rdtscp" : "=a"(a), "=d"(d), "=c"(c) : : );
  402437:	0f 01 f9             	rdtscp 
	cs = &(slm_global()->lock);
  40243a:	81 e1 ff 0f 00 00    	and    ecx,0xfff
  402440:	48 8d 1c 89          	lea    rbx,[rcx+rcx*4]
  402444:	48 c1 e3 06          	shl    rbx,0x6
  402448:	48 81 c3 00 65 71 00 	add    rbx,0x716500
		tok    = cos_sched_sync();
  40244f:	e8 bc f6 00 00       	call   411b10 <cos_sched_sync>
  402454:	41 89 c1             	mov    r9d,eax
	unsigned long oc = ps_load(&cs->owner_contention);
  402457:	48 8b 03             	mov    rax,QWORD PTR [rbx]
		if (unlikely(owner)) {
  40245a:	48 89 c1             	mov    rcx,rax
  40245d:	48 83 e1 fe          	and    rcx,0xfffffffffffffffe
  402461:	0f 85 69 01 00 00    	jne    4025d0 <sched_thd_yield_to+0x240>
  402467:	f0 4c 0f b1 23       	lock cmpxchg QWORD PTR [rbx],r12
  40246c:	0f 94 c0             	sete   al
		if (likely(!__slm_cs_cas(cs, cached, current, 0))) return 0;
  40246f:	84 c0                	test   al,al
  402471:	74 dc                	je     40244f <sched_thd_yield_to+0xbf>
SLM_MODULES_COMPOSE_FNS(quantum, fprr, static_cm);
  402473:	4c 89 ee             	mov    rsi,r13
  402476:	4c 89 e7             	mov    rdi,r12
  402479:	e8 52 18 01 00       	call   413cd0 <slm_sched_fprr_yield>
	struct cos_compinfo    *ci  = &cos_defcompinfo_curr_get()->ci;
  40247e:	e8 cd 90 00 00       	call   40b550 <cos_defcompinfo_curr_get>
  402483:	0f 01 f9             	rdtscp 
	if (unlikely(!t)) t = &g->idle_thd;
  402486:	81 e1 ff 0f 00 00    	and    ecx,0xfff
  40248c:	4c 8d 2c 89          	lea    r13,[rcx+rcx*4]
  402490:	49 c1 e5 06          	shl    r13,0x6
  402494:	49 81 c5 80 65 71 00 	add    r13,0x716580
	tok  = cos_sched_sync();
  40249b:	e8 70 f6 00 00       	call   411b10 <cos_sched_sync>
  4024a0:	41 89 c6             	mov    r14d,eax
  4024a3:	e8 f8 16 01 00       	call   413ba0 <slm_sched_fprr_schedule>
	if (unlikely(!t)) t = &g->idle_thd;
  4024a8:	48 85 c0             	test   rax,rax
  4024ab:	48 89 c3             	mov    rbx,rax
  4024ae:	49 0f 44 dd          	cmove  rbx,r13
{ return s == SLM_THD_RUNNABLE || s == SLM_THD_WOKEN; }
  4024b2:	8b 43 04             	mov    eax,DWORD PTR [rbx+0x4]
  4024b5:	83 e8 02             	sub    eax,0x2
	assert(slm_state_is_runnable(t->state));
  4024b8:	83 f8 01             	cmp    eax,0x1
  4024bb:	0f 87 65 01 00 00    	ja     402626 <sched_thd_yield_to+0x296>
  4024c1:	0f 01 f9             	rdtscp 
	struct slm_cs *cs = &(slm_global()->lock);
  4024c4:	81 e1 ff 0f 00 00    	and    ecx,0xfff
  4024ca:	4c 8d 3c 89          	lea    r15,[rcx+rcx*4]
  4024ce:	49 c1 e7 06          	shl    r15,0x6
  4024d2:	49 81 c7 00 65 71 00 	add    r15,0x716500
	while (ret != 0) {
  4024d9:	eb 11                	jmp    4024ec <sched_thd_yield_to+0x15c>
  4024db:	0f 1f 44 00 00       	nop    DWORD PTR [rax+rax*1+0x0]
  4024e0:	f0 49 0f b1 17       	lock cmpxchg QWORD PTR [r15],rdx
  4024e5:	0f 94 c0             	sete   al
  4024e8:	84 c0                	test   al,al
  4024ea:	75 28                	jne    402514 <sched_thd_yield_to+0x184>
		tok    = cos_sched_sync();
  4024ec:	e8 1f f6 00 00       	call   411b10 <cos_sched_sync>
  4024f1:	89 c1                	mov    ecx,eax
	unsigned long oc = ps_load(&cs->owner_contention);
  4024f3:	49 8b 07             	mov    rax,QWORD PTR [r15]
		if (unlikely(contention)) {
  4024f6:	48 89 c2             	mov    rdx,rax
  4024f9:	83 e2 01             	and    edx,0x1
  4024fc:	74 e2                	je     4024e0 <sched_thd_yield_to+0x150>
	*thd        = (struct slm_thd *)(oc & (~0UL << 1));
  4024fe:	48 89 c6             	mov    rsi,rax
			if (!slm_cs_exit_contention(cs, current, cached, tok)) return;
  402501:	48 89 c2             	mov    rdx,rax
  402504:	4c 89 ff             	mov    rdi,r15
  402507:	48 83 e6 fe          	and    rsi,0xfffffffffffffffe
  40250b:	e8 90 2b 01 00       	call   4150a0 <slm_cs_exit_contention>
  402510:	85 c0                	test   eax,eax
  402512:	75 d8                	jne    4024ec <sched_thd_yield_to+0x15c>
	struct cos_defcompinfo *dci = cos_defcompinfo_curr_get();
  402514:	e8 37 90 00 00       	call   40b550 <cos_defcompinfo_curr_get>
  402519:	0f 01 f9             	rdtscp 
	*coreid = c & 0xFFF;
  40251c:	89 ca                	mov    edx,ecx
	timeout = g->timeout_next;
  40251e:	81 e1 ff 0f 00 00    	and    ecx,0xfff
	prio = inherit_prio ? curr->priority : t->priority;
  402524:	48 8b 73 30          	mov    rsi,QWORD PTR [rbx+0x30]
	timeout = g->timeout_next;
  402528:	48 8d 04 89          	lea    rax,[rcx+rcx*4]
  40252c:	66 81 e2 ff 0f       	and    dx,0xfff
  402531:	49 89 cf             	mov    r15,rcx
  402534:	48 c1 e0 06          	shl    rax,0x6
  402538:	4c 8b 80 08 66 71 00 	mov    r8,QWORD PTR [rax+0x716608]
	if (unlikely(t->properties & (SLM_THD_PROPERTY_SEND | SLM_THD_PROPERTY_OWN_TCAP | SLM_THD_PROPERTY_SPECIAL))) {
  40253f:	8b 03                	mov    eax,DWORD PTR [rbx]
  402541:	a8 0b                	test   al,0xb
  402543:	0f 85 f9 00 00 00    	jne    402642 <sched_thd_yield_to+0x2b2>
	ret = cos_defswitch(t->thd, prio, timeout, tok);
  402549:	48 8b 7b 10          	mov    rdi,QWORD PTR [rbx+0x10]
  40254d:	44 89 f1             	mov    ecx,r14d
  402550:	4c 89 c2             	mov    rdx,r8
  402553:	e8 48 a1 00 00       	call   40c6a0 <cos_defswitch>
	if (unlikely(ret == -EPERM && !slm_thd_normal(t))) {
  402558:	83 f8 ff             	cmp    eax,0xffffffff
  40255b:	0f 84 39 01 00 00    	je     40269a <sched_thd_yield_to+0x30a>
	if (unlikely(ret != 0)) {
  402561:	85 c0                	test   eax,eax
  402563:	0f 85 a9 01 00 00    	jne    402712 <sched_thd_yield_to+0x382>
  402569:	31 c0                	xor    eax,eax
}
  40256b:	48 83 c4 08          	add    rsp,0x8
  40256f:	5b                   	pop    rbx
  402570:	41 5c                	pop    r12
  402572:	41 5d                	pop    r13
  402574:	41 5e                	pop    r14
  402576:	41 5f                	pop    r15
  402578:	5d                   	pop    rbp
  402579:	c3                   	ret    
  40257a:	66 0f 1f 44 00 00    	nop    WORD PTR [rax+rax*1+0x0]
  402580:	83 e2 01             	and    edx,0x1
  402583:	0f 85 5b fe ff ff    	jne    4023e4 <sched_thd_yield_to+0x54>
SS_STATIC_SLAB(thd, struct slm_thd_container, MAX_NUM_THREADS);
  402589:	48 8d 14 80          	lea    rdx,[rax+rax*4]
  40258d:	4c 8d 24 50          	lea    r12,[rax+rdx*2]
  402591:	49 c1 e4 04          	shl    r12,0x4
  402595:	49 81 c4 60 fd 5b 00 	add    r12,0x5bfd60
  40259c:	85 ff                	test   edi,edi
  40259e:	0f 85 48 fe ff ff    	jne    4023ec <sched_thd_yield_to+0x5c>
  4025a4:	0f 1f 40 00          	nop    DWORD PTR [rax+0x0]
  4025a8:	be 24 00 00 00       	mov    esi,0x24
  4025ad:	bf 00 d6 41 00       	mov    edi,0x41d600
  4025b2:	e8 c9 86 00 00       	call   40ac80 <cos_print_str>
	assert(to);
  4025b7:	c7 04 25 00 00 00 00 	mov    DWORD PTR ds:0x0,0x0
  4025be:	00 00 00 00 
  4025c2:	0f 0b                	ud2    
  4025c4:	0f 1f 40 00          	nop    DWORD PTR [rax+0x0]
SS_STATIC_SLAB(thd, struct slm_thd_container, MAX_NUM_THREADS);
  4025c8:	45 31 e4             	xor    r12d,r12d
  4025cb:	e9 14 fe ff ff       	jmp    4023e4 <sched_thd_yield_to+0x54>
			ret = slm_cs_enter_contention(cs, cached, current, owner, contended, tok);
  4025d0:	41 89 c0             	mov    r8d,eax
  4025d3:	4c 89 e2             	mov    rdx,r12
  4025d6:	48 89 c6             	mov    rsi,rax
  4025d9:	48 89 df             	mov    rdi,rbx
  4025dc:	41 83 e0 01          	and    r8d,0x1
  4025e0:	e8 5b 2a 01 00       	call   415040 <slm_cs_enter_contention>
			assert(ret != -EBUSY);
  4025e5:	83 f8 f0             	cmp    eax,0xfffffff0
  4025e8:	0f 85 61 fe ff ff    	jne    40244f <sched_thd_yield_to+0xbf>
  4025ee:	be 59 00 00 00       	mov    esi,0x59
  4025f3:	bf 60 d1 41 00       	mov    edi,0x41d160
  4025f8:	e8 83 86 00 00       	call   40ac80 <cos_print_str>
  4025fd:	c7 04 25 00 00 00 00 	mov    DWORD PTR ds:0x0,0x0
  402604:	00 00 00 00 
  402608:	0f 0b                	ud2    
  40260a:	be 59 00 00 00       	mov    esi,0x59
  40260f:	bf 00 d1 41 00       	mov    edi,0x41d100
  402614:	e8 67 86 00 00       	call   40ac80 <cos_print_str>
	assert(current);
  402619:	c7 04 25 00 00 00 00 	mov    DWORD PTR ds:0x0,0x0
  402620:	00 00 00 00 
  402624:	0f 0b                	ud2    
  402626:	be 61 00 00 00       	mov    esi,0x61
  40262b:	bf e8 d1 41 00       	mov    edi,0x41d1e8
  402630:	e8 4b 86 00 00       	call   40ac80 <cos_print_str>
	assert(slm_state_is_runnable(t->state));
  402635:	c7 04 25 00 00 00 00 	mov    DWORD PTR ds:0x0,0x0
  40263c:	00 00 00 00 
  402640:	0f 0b                	ud2    
		if (t == &g->sched_thd) {
  402642:	0f b7 d2             	movzx  edx,dx
	timeout = g->timeout_next;
  402645:	4c 89 c1             	mov    rcx,r8
		if (t == &g->sched_thd) {
  402648:	48 8d 14 92          	lea    rdx,[rdx+rdx*4]
  40264c:	48 c1 e2 06          	shl    rdx,0x6
  402650:	48 81 c2 08 65 71 00 	add    rdx,0x716508
  402657:	48 39 d3             	cmp    rbx,rdx
  40265a:	0f 84 07 01 00 00    	je     402767 <sched_thd_yield_to+0x3d7>
		if (t->properties & SLM_THD_PROPERTY_SEND) {
  402660:	a8 02                	test   al,0x2
  402662:	0f 85 0b 01 00 00    	jne    402773 <sched_thd_yield_to+0x3e3>
		} else if (t->properties & SLM_THD_PROPERTY_OWN_TCAP) {
  402668:	49 89 c8             	mov    r8,rcx
  40266b:	a8 01                	test   al,0x1
  40266d:	0f 84 d6 fe ff ff    	je     402549 <sched_thd_yield_to+0x1b9>
			return cos_switch(t->thd, t->tc, prio, timeout, g->sched_thd.rcv, tok);
  402673:	4b 8d 04 bf          	lea    rax,[r15+r15*4]
  402677:	4c 8b 53 08          	mov    r10,QWORD PTR [rbx+0x8]
  40267b:	48 8b 7b 10          	mov    rdi,QWORD PTR [rbx+0x10]
  40267f:	48 89 f2             	mov    rdx,rsi
  402682:	48 c1 e0 06          	shl    rax,0x6
  402686:	45 89 f1             	mov    r9d,r14d
  402689:	4c 8b 80 28 65 71 00 	mov    r8,QWORD PTR [rax+0x716528]
  402690:	4c 89 d6             	mov    rsi,r10
  402693:	e8 98 f4 00 00       	call   411b30 <cos_switch>
  402698:	eb 6b                	jmp    402705 <sched_thd_yield_to+0x375>
	__asm__ __volatile__("rdtscp" : "=a"(a), "=d"(d), "=c"(c) : : );
  40269a:	0f 01 f9             	rdtscp 
	return t != &g->idle_thd && t != &g->sched_thd;
  40269d:	81 e1 ff 0f 00 00    	and    ecx,0xfff
  4026a3:	48 8d 04 89          	lea    rax,[rcx+rcx*4]
  4026a7:	48 c1 e0 06          	shl    rax,0x6
  4026ab:	48 8d 90 80 65 71 00 	lea    rdx,[rax+0x716580]
  4026b2:	48 39 d3             	cmp    rbx,rdx
  4026b5:	74 27                	je     4026de <sched_thd_yield_to+0x34e>
  4026b7:	48 05 08 65 71 00    	add    rax,0x716508
  4026bd:	48 39 c3             	cmp    rbx,rax
  4026c0:	74 1c                	je     4026de <sched_thd_yield_to+0x34e>
  4026c2:	be 61 00 00 00       	mov    esi,0x61
  4026c7:	bf 50 d2 41 00       	mov    edi,0x41d250
  4026cc:	e8 af 85 00 00       	call   40ac80 <cos_print_str>
		assert(ret != -EPERM);
  4026d1:	c7 04 25 00 00 00 00 	mov    DWORD PTR ds:0x0,0x0
  4026d8:	00 00 00 00 
  4026dc:	0f 0b                	ud2    
		ret = cos_switch(g->sched_thd.thd, 0, curr->priority, TCAP_TIME_NIL, g->sched_thd.rcv, tok);
  4026de:	4b 8d 04 bf          	lea    rax,[r15+r15*4]
  4026e2:	49 8b 54 24 30       	mov    rdx,QWORD PTR [r12+0x30]
  4026e7:	45 89 f1             	mov    r9d,r14d
  4026ea:	31 c9                	xor    ecx,ecx
  4026ec:	48 c1 e0 06          	shl    rax,0x6
  4026f0:	31 f6                	xor    esi,esi
  4026f2:	4c 8b 80 28 65 71 00 	mov    r8,QWORD PTR [rax+0x716528]
  4026f9:	48 8b b8 18 65 71 00 	mov    rdi,QWORD PTR [rax+0x716518]
  402700:	e8 2b f4 00 00       	call   411b30 <cos_switch>
	if (unlikely(ret != 0)) {
  402705:	85 c0                	test   eax,eax
  402707:	0f 84 5c fe ff ff    	je     402569 <sched_thd_yield_to+0x1d9>
		assert(ret != -EPERM);
  40270d:	83 f8 ff             	cmp    eax,0xffffffff
  402710:	74 b0                	je     4026c2 <sched_thd_yield_to+0x332>
		assert(ret != -EINVAL);
  402712:	83 f8 ea             	cmp    eax,0xffffffea
  402715:	74 7f                	je     402796 <sched_thd_yield_to+0x406>
		if (ret == -EBUSY) return ret;
  402717:	83 f8 f0             	cmp    eax,0xfffffff0
  40271a:	0f 84 4b fe ff ff    	je     40256b <sched_thd_yield_to+0x1db>
		assert(ret == -EAGAIN);
  402720:	83 f8 f5             	cmp    eax,0xfffffff5
  402723:	0f 85 af 00 00 00    	jne    4027d8 <sched_thd_yield_to+0x448>
  402729:	0f 01 f9             	rdtscp 
	cs = &(slm_global()->lock);
  40272c:	81 e1 ff 0f 00 00    	and    ecx,0xfff
  402732:	48 8d 1c 89          	lea    rbx,[rcx+rcx*4]
  402736:	48 c1 e3 06          	shl    rbx,0x6
  40273a:	48 81 c3 00 65 71 00 	add    rbx,0x716500
		tok    = cos_sched_sync();
  402741:	e8 ca f3 00 00       	call   411b10 <cos_sched_sync>
  402746:	41 89 c1             	mov    r9d,eax
	unsigned long oc = ps_load(&cs->owner_contention);
  402749:	48 8b 03             	mov    rax,QWORD PTR [rbx]
		if (unlikely(owner)) {
  40274c:	48 89 c1             	mov    rcx,rax
  40274f:	48 83 e1 fe          	and    rcx,0xfffffffffffffffe
  402753:	75 5d                	jne    4027b2 <sched_thd_yield_to+0x422>
  402755:	f0 4c 0f b1 23       	lock cmpxchg QWORD PTR [rbx],r12
  40275a:	0f 94 c0             	sete   al
		if (likely(!__slm_cs_cas(cs, cached, current, 0))) return 0;
  40275d:	84 c0                	test   al,al
  40275f:	0f 85 36 fd ff ff    	jne    40249b <sched_thd_yield_to+0x10b>
  402765:	eb da                	jmp    402741 <sched_thd_yield_to+0x3b1>
			prio    = curr->priority;
  402767:	49 8b 74 24 30       	mov    rsi,QWORD PTR [r12+0x30]
			timeout = TCAP_TIME_NIL;
  40276c:	31 c9                	xor    ecx,ecx
  40276e:	e9 ed fe ff ff       	jmp    402660 <sched_thd_yield_to+0x2d0>
			return cos_sched_asnd(t->asnd, g->timeout_next, g->sched_thd.rcv, tok);
  402773:	4b 8d 04 bf          	lea    rax,[r15+r15*4]
  402777:	48 8b 7b 28          	mov    rdi,QWORD PTR [rbx+0x28]
  40277b:	44 89 f1             	mov    ecx,r14d
  40277e:	4c 89 c6             	mov    rsi,r8
  402781:	48 c1 e0 06          	shl    rax,0x6
  402785:	48 8b 90 28 65 71 00 	mov    rdx,QWORD PTR [rax+0x716528]
  40278c:	e8 0f f4 00 00       	call   411ba0 <cos_sched_asnd>
  402791:	e9 6f ff ff ff       	jmp    402705 <sched_thd_yield_to+0x375>
  402796:	be 61 00 00 00       	mov    esi,0x61
  40279b:	bf b8 d2 41 00       	mov    edi,0x41d2b8
  4027a0:	e8 db 84 00 00       	call   40ac80 <cos_print_str>
		assert(ret != -EINVAL);
  4027a5:	c7 04 25 00 00 00 00 	mov    DWORD PTR ds:0x0,0x0
  4027ac:	00 00 00 00 
  4027b0:	0f 0b                	ud2    
			ret = slm_cs_enter_contention(cs, cached, current, owner, contended, tok);
  4027b2:	41 89 c0             	mov    r8d,eax
  4027b5:	4c 89 e2             	mov    rdx,r12
  4027b8:	48 89 c6             	mov    rsi,rax
  4027bb:	48 89 df             	mov    rdi,rbx
  4027be:	41 83 e0 01          	and    r8d,0x1
  4027c2:	e8 79 28 01 00       	call   415040 <slm_cs_enter_contention>
			assert(ret != -EBUSY);
  4027c7:	83 f8 f0             	cmp    eax,0xfffffff0
  4027ca:	0f 85 71 ff ff ff    	jne    402741 <sched_thd_yield_to+0x3b1>
  4027d0:	e9 19 fe ff ff       	jmp    4025ee <sched_thd_yield_to+0x25e>
  4027d5:	0f 1f 00             	nop    DWORD PTR [rax]
  4027d8:	be 61 00 00 00       	mov    esi,0x61
  4027dd:	bf 20 d3 41 00       	mov    edi,0x41d320
  4027e2:	e8 99 84 00 00       	call   40ac80 <cos_print_str>
		assert(ret == -EAGAIN);
  4027e7:	c7 04 25 00 00 00 00 	mov    DWORD PTR ds:0x0,0x0
  4027ee:	00 00 00 00 
  4027f2:	0f 0b                	ud2    
  4027f4:	66 66 2e 0f 1f 84 00 	data16 cs nop WORD PTR [rax+rax*1+0x0]
  4027fb:	00 00 00 00 
  4027ff:	90                   	nop

0000000000402800 <sched_set_tls>:
{
  402800:	f3 0f 1e fa          	endbr64 
	__asm__("mov %%rsp, %0;" : "=r"(curr_stk_pointer));
  402804:	48 89 e0             	mov    rax,rsp
	return *(long *)((curr_stk_pointer & ~(COS_STACK_SZ - 1)) + COS_STACK_SZ - offset * sizeof(unsigned long));
  402807:	48 25 00 e0 ff ff    	and    rax,0xffffffffffffe000
  40280d:	0f b7 80 f0 1f 00 00 	movzx  eax,WORD PTR [rax+0x1ff0]
SS_STATIC_SLAB(thd, struct slm_thd_container, MAX_NUM_THREADS);
  402814:	48 85 c0             	test   rax,rax
  402817:	0f 84 13 41 01 00    	je     416930 <sched_set_tls.cold>
  40281d:	83 e8 01             	sub    eax,0x1
  402820:	3d c7 00 00 00       	cmp    eax,0xc7
  402825:	0f 87 05 41 01 00    	ja     416930 <sched_set_tls.cold>
  40282b:	48 8b 14 c5 20 f7 5b 	mov    rdx,QWORD PTR [rax*8+0x5bf720]
  402832:	00 
  402833:	48 f7 c2 fe ff ff ff 	test   rdx,0xfffffffffffffffe
  40283a:	0f 84 f0 40 01 00    	je     416930 <sched_set_tls.cold>
  402840:	83 e2 01             	and    edx,0x1
  402843:	0f 85 e7 40 01 00    	jne    416930 <sched_set_tls.cold>
	thdcap_t thdcap = current->thd;
  402849:	48 8d 14 80          	lea    rdx,[rax+rax*4]
	capmgr_set_tls(thdcap, tls_addr);
  40284d:	48 89 fe             	mov    rsi,rdi
	thdcap_t thdcap = current->thd;
  402850:	48 8d 04 50          	lea    rax,[rax+rdx*2]
  402854:	48 c1 e0 04          	shl    rax,0x4
	capmgr_set_tls(thdcap, tls_addr);
  402858:	4c 8b 80 70 fd 5b 00 	mov    r8,QWORD PTR [rax+0x5bfd70]
  40285f:	4c 89 c7             	mov    rdi,r8
  402862:	e9 29 57 00 00       	jmp    407f90 <__cosrt_extern_capmgr_set_tls>
  402867:	66 0f 1f 84 00 00 00 	nop    WORD PTR [rax+rax*1+0x0]
  40286e:	00 00 

0000000000402870 <thd_block>:
{
  402870:	f3 0f 1e fa          	endbr64 
  402874:	55                   	push   rbp
	__asm__("mov %%rsp, %0;" : "=r"(curr_stk_pointer));
  402875:	48 89 e0             	mov    rax,rsp
	return *(long *)((curr_stk_pointer & ~(COS_STACK_SZ - 1)) + COS_STACK_SZ - offset * sizeof(unsigned long));
  402878:	48 25 00 e0 ff ff    	and    rax,0xffffffffffffe000
  40287e:	48 89 e5             	mov    rbp,rsp
  402881:	41 57                	push   r15
  402883:	41 56                	push   r14
  402885:	41 55                	push   r13
  402887:	41 54                	push   r12
  402889:	53                   	push   rbx
  40288a:	48 83 ec 18          	sub    rsp,0x18
  40288e:	0f b7 80 f0 1f 00 00 	movzx  eax,WORD PTR [rax+0x1ff0]
SS_STATIC_SLAB(thd, struct slm_thd_container, MAX_NUM_THREADS);
  402895:	48 85 c0             	test   rax,rax
  402898:	0f 84 02 02 00 00    	je     402aa0 <thd_block+0x230>
  40289e:	83 e8 01             	sub    eax,0x1
  4028a1:	3d c7 00 00 00       	cmp    eax,0xc7
  4028a6:	0f 87 f4 01 00 00    	ja     402aa0 <thd_block+0x230>
  4028ac:	48 8b 14 c5 20 f7 5b 	mov    rdx,QWORD PTR [rax*8+0x5bf720]
  4028b3:	00 
  4028b4:	48 f7 c2 fe ff ff ff 	test   rdx,0xfffffffffffffffe
  4028bb:	0f 84 df 01 00 00    	je     402aa0 <thd_block+0x230>
  4028c1:	83 e2 01             	and    edx,0x1
  4028c4:	0f 85 d6 01 00 00    	jne    402aa0 <thd_block+0x230>
  4028ca:	48 8d 14 80          	lea    rdx,[rax+rax*4]
  4028ce:	48 8d 1c 50          	lea    rbx,[rax+rdx*2]
  4028d2:	48 c1 e3 04          	shl    rbx,0x4
  4028d6:	48 81 c3 60 fd 5b 00 	add    rbx,0x5bfd60
	__asm__ __volatile__("rdtscp" : "=a"(a), "=d"(d), "=c"(c) : : );
  4028dd:	0f 01 f9             	rdtscp 
	cs = &(slm_global()->lock);
  4028e0:	81 e1 ff 0f 00 00    	and    ecx,0xfff
  4028e6:	4c 8d 24 89          	lea    r12,[rcx+rcx*4]
  4028ea:	49 c1 e4 06          	shl    r12,0x6
  4028ee:	49 81 c4 00 65 71 00 	add    r12,0x716500
		tok    = cos_sched_sync();
  4028f5:	e8 16 f2 00 00       	call   411b10 <cos_sched_sync>
  4028fa:	41 89 c1             	mov    r9d,eax
	unsigned long oc = ps_load(&cs->owner_contention);
  4028fd:	49 8b 04 24          	mov    rax,QWORD PTR [r12]
		if (unlikely(owner)) {
  402901:	48 89 c1             	mov    rcx,rax
  402904:	48 83 e1 fe          	and    rcx,0xfffffffffffffffe
  402908:	0f 85 b2 01 00 00    	jne    402ac0 <thd_block+0x250>
  40290e:	f0 49 0f b1 1c 24    	lock cmpxchg QWORD PTR [r12],rbx
  402914:	0f 94 c0             	sete   al
		if (likely(!__slm_cs_cas(cs, cached, current, 0))) return 0;
  402917:	84 c0                	test   al,al
  402919:	74 da                	je     4028f5 <thd_block+0x85>
        ret = slm_thd_block(current);
  40291b:	48 89 df             	mov    rdi,rbx
  40291e:	e8 fd 27 01 00       	call   415120 <slm_thd_block>
  402923:	41 89 c5             	mov    r13d,eax
	if (!ret) ret = slm_cs_exit_reschedule(current, SLM_CS_NONE);
  402926:	85 c0                	test   eax,eax
  402928:	0f 85 12 01 00 00    	jne    402a40 <thd_block+0x1d0>
	struct cos_compinfo    *ci  = &cos_defcompinfo_curr_get()->ci;
  40292e:	e8 1d 8c 00 00       	call   40b550 <cos_defcompinfo_curr_get>
  402933:	0f 01 f9             	rdtscp 
	if (unlikely(!t)) t = &g->idle_thd;
  402936:	81 e1 ff 0f 00 00    	and    ecx,0xfff
  40293c:	4c 8d 34 89          	lea    r14,[rcx+rcx*4]
  402940:	49 c1 e6 06          	shl    r14,0x6
  402944:	49 8d 86 80 65 71 00 	lea    rax,[r14+0x716580]
  40294b:	48 89 45 c8          	mov    QWORD PTR [rbp-0x38],rax
	tok  = cos_sched_sync();
  40294f:	e8 bc f1 00 00       	call   411b10 <cos_sched_sync>
  402954:	41 89 c7             	mov    r15d,eax
SLM_MODULES_COMPOSE_FNS(quantum, fprr, static_cm);
  402957:	e8 44 12 01 00       	call   413ba0 <slm_sched_fprr_schedule>
	if (unlikely(!t)) t = &g->idle_thd;
  40295c:	48 85 c0             	test   rax,rax
  40295f:	49 89 c4             	mov    r12,rax
  402962:	4c 0f 44 65 c8       	cmove  r12,QWORD PTR [rbp-0x38]
{ return s == SLM_THD_RUNNABLE || s == SLM_THD_WOKEN; }
  402967:	41 8b 44 24 04       	mov    eax,DWORD PTR [r12+0x4]
  40296c:	83 e8 02             	sub    eax,0x2
	assert(slm_state_is_runnable(t->state));
  40296f:	83 f8 01             	cmp    eax,0x1
  402972:	0f 87 82 01 00 00    	ja     402afa <thd_block+0x28a>
  402978:	0f 01 f9             	rdtscp 
	struct slm_cs *cs = &(slm_global()->lock);
  40297b:	81 e1 ff 0f 00 00    	and    ecx,0xfff
  402981:	48 8d 3c 89          	lea    rdi,[rcx+rcx*4]
  402985:	48 c1 e7 06          	shl    rdi,0x6
  402989:	4c 8d b7 00 65 71 00 	lea    r14,[rdi+0x716500]
	while (ret != 0) {
  402990:	eb 12                	jmp    4029a4 <thd_block+0x134>
  402992:	66 0f 1f 44 00 00    	nop    WORD PTR [rax+rax*1+0x0]
  402998:	f0 49 0f b1 16       	lock cmpxchg QWORD PTR [r14],rdx
  40299d:	0f 94 c0             	sete   al
  4029a0:	84 c0                	test   al,al
  4029a2:	75 28                	jne    4029cc <thd_block+0x15c>
		tok    = cos_sched_sync();
  4029a4:	e8 67 f1 00 00       	call   411b10 <cos_sched_sync>
  4029a9:	89 c1                	mov    ecx,eax
	unsigned long oc = ps_load(&cs->owner_contention);
  4029ab:	49 8b 06             	mov    rax,QWORD PTR [r14]
		if (unlikely(contention)) {
  4029ae:	48 89 c2             	mov    rdx,rax
  4029b1:	83 e2 01             	and    edx,0x1
  4029b4:	74 e2                	je     402998 <thd_block+0x128>
	*thd        = (struct slm_thd *)(oc & (~0UL << 1));
  4029b6:	48 89 c6             	mov    rsi,rax
			if (!slm_cs_exit_contention(cs, current, cached, tok)) return;
  4029b9:	48 89 c2             	mov    rdx,rax
  4029bc:	4c 89 f7             	mov    rdi,r14
  4029bf:	48 83 e6 fe          	and    rsi,0xfffffffffffffffe
  4029c3:	e8 d8 26 01 00       	call   4150a0 <slm_cs_exit_contention>
  4029c8:	85 c0                	test   eax,eax
  4029ca:	75 d8                	jne    4029a4 <thd_block+0x134>
	struct cos_defcompinfo *dci = cos_defcompinfo_curr_get();
  4029cc:	e8 7f 8b 00 00       	call   40b550 <cos_defcompinfo_curr_get>
  4029d1:	0f 01 f9             	rdtscp 
	*coreid = c & 0xFFF;
  4029d4:	89 ca                	mov    edx,ecx
	timeout = g->timeout_next;
  4029d6:	81 e1 ff 0f 00 00    	and    ecx,0xfff
	prio = inherit_prio ? curr->priority : t->priority;
  4029dc:	49 8b 74 24 30       	mov    rsi,QWORD PTR [r12+0x30]
	timeout = g->timeout_next;
  4029e1:	48 8d 04 89          	lea    rax,[rcx+rcx*4]
  4029e5:	66 81 e2 ff 0f       	and    dx,0xfff
  4029ea:	49 89 ce             	mov    r14,rcx
  4029ed:	48 c1 e0 06          	shl    rax,0x6
  4029f1:	4c 8b 88 08 66 71 00 	mov    r9,QWORD PTR [rax+0x716608]
	if (unlikely(t->properties & (SLM_THD_PROPERTY_SEND | SLM_THD_PROPERTY_OWN_TCAP | SLM_THD_PROPERTY_SPECIAL))) {
  4029f8:	41 8b 04 24          	mov    eax,DWORD PTR [r12]
  4029fc:	a8 0b                	test   al,0xb
  4029fe:	0f 85 12 01 00 00    	jne    402b16 <thd_block+0x2a6>
	ret = cos_defswitch(t->thd, prio, timeout, tok);
  402a04:	49 8b 7c 24 10       	mov    rdi,QWORD PTR [r12+0x10]
  402a09:	44 89 f9             	mov    ecx,r15d
  402a0c:	4c 89 ca             	mov    rdx,r9
  402a0f:	e8 8c 9c 00 00       	call   40c6a0 <cos_defswitch>
	if (unlikely(ret == -EPERM && !slm_thd_normal(t))) {
  402a14:	83 f8 ff             	cmp    eax,0xffffffff
  402a17:	0f 84 c3 01 00 00    	je     402be0 <thd_block+0x370>
	if (unlikely(ret != 0)) {
  402a1d:	85 c0                	test   eax,eax
  402a1f:	0f 85 5a 01 00 00    	jne    402b7f <thd_block+0x30f>
}
  402a25:	48 83 c4 18          	add    rsp,0x18
  402a29:	44 89 e8             	mov    eax,r13d
  402a2c:	5b                   	pop    rbx
  402a2d:	41 5c                	pop    r12
  402a2f:	41 5d                	pop    r13
  402a31:	41 5e                	pop    r14
  402a33:	41 5f                	pop    r15
  402a35:	5d                   	pop    rbp
  402a36:	c3                   	ret    
  402a37:	66 0f 1f 84 00 00 00 	nop    WORD PTR [rax+rax*1+0x0]
  402a3e:	00 00 
	__asm__ __volatile__("rdtscp" : "=a"(a), "=d"(d), "=c"(c) : : );
  402a40:	0f 01 f9             	rdtscp 
	struct slm_cs *cs = &(slm_global()->lock);
  402a43:	81 e1 ff 0f 00 00    	and    ecx,0xfff
  402a49:	48 8d 1c 89          	lea    rbx,[rcx+rcx*4]
  402a4d:	48 c1 e3 06          	shl    rbx,0x6
  402a51:	48 81 c3 00 65 71 00 	add    rbx,0x716500
	while (ret != 0) {
  402a58:	eb 12                	jmp    402a6c <thd_block+0x1fc>
  402a5a:	66 0f 1f 44 00 00    	nop    WORD PTR [rax+rax*1+0x0]
  402a60:	f0 48 0f b1 13       	lock cmpxchg QWORD PTR [rbx],rdx
  402a65:	0f 94 c0             	sete   al
  402a68:	84 c0                	test   al,al
  402a6a:	75 b9                	jne    402a25 <thd_block+0x1b5>
		tok    = cos_sched_sync();
  402a6c:	e8 9f f0 00 00       	call   411b10 <cos_sched_sync>
  402a71:	89 c1                	mov    ecx,eax
	unsigned long oc = ps_load(&cs->owner_contention);
  402a73:	48 8b 03             	mov    rax,QWORD PTR [rbx]
		if (unlikely(contention)) {
  402a76:	48 89 c2             	mov    rdx,rax
  402a79:	83 e2 01             	and    edx,0x1
  402a7c:	74 e2                	je     402a60 <thd_block+0x1f0>
	*thd        = (struct slm_thd *)(oc & (~0UL << 1));
  402a7e:	48 89 c6             	mov    rsi,rax
			if (!slm_cs_exit_contention(cs, current, cached, tok)) return;
  402a81:	48 89 c2             	mov    rdx,rax
  402a84:	48 89 df             	mov    rdi,rbx
  402a87:	48 83 e6 fe          	and    rsi,0xfffffffffffffffe
  402a8b:	e8 10 26 01 00       	call   4150a0 <slm_cs_exit_contention>
  402a90:	85 c0                	test   eax,eax
  402a92:	74 91                	je     402a25 <thd_block+0x1b5>
  402a94:	eb d6                	jmp    402a6c <thd_block+0x1fc>
  402a96:	66 2e 0f 1f 84 00 00 	cs nop WORD PTR [rax+rax*1+0x0]
  402a9d:	00 00 00 
  402aa0:	be 59 00 00 00       	mov    esi,0x59
  402aa5:	bf 00 d1 41 00       	mov    edi,0x41d100
  402aaa:	e8 d1 81 00 00       	call   40ac80 <cos_print_str>
	assert(current);
  402aaf:	c7 04 25 00 00 00 00 	mov    DWORD PTR ds:0x0,0x0
  402ab6:	00 00 00 00 
  402aba:	0f 0b                	ud2    
  402abc:	0f 1f 40 00          	nop    DWORD PTR [rax+0x0]
			ret = slm_cs_enter_contention(cs, cached, current, owner, contended, tok);
  402ac0:	41 89 c0             	mov    r8d,eax
  402ac3:	48 89 da             	mov    rdx,rbx
  402ac6:	48 89 c6             	mov    rsi,rax
  402ac9:	4c 89 e7             	mov    rdi,r12
  402acc:	41 83 e0 01          	and    r8d,0x1
  402ad0:	e8 6b 25 01 00       	call   415040 <slm_cs_enter_contention>
			assert(ret != -EBUSY);
  402ad5:	83 f8 f0             	cmp    eax,0xfffffff0
  402ad8:	0f 85 17 fe ff ff    	jne    4028f5 <thd_block+0x85>
  402ade:	be 59 00 00 00       	mov    esi,0x59
  402ae3:	bf 60 d1 41 00       	mov    edi,0x41d160
  402ae8:	e8 93 81 00 00       	call   40ac80 <cos_print_str>
  402aed:	c7 04 25 00 00 00 00 	mov    DWORD PTR ds:0x0,0x0
  402af4:	00 00 00 00 
  402af8:	0f 0b                	ud2    
  402afa:	be 61 00 00 00       	mov    esi,0x61
  402aff:	bf e8 d1 41 00       	mov    edi,0x41d1e8
  402b04:	e8 77 81 00 00       	call   40ac80 <cos_print_str>
	assert(slm_state_is_runnable(t->state));
  402b09:	c7 04 25 00 00 00 00 	mov    DWORD PTR ds:0x0,0x0
  402b10:	00 00 00 00 
  402b14:	0f 0b                	ud2    
		if (t == &g->sched_thd) {
  402b16:	0f b7 d2             	movzx  edx,dx
	timeout = g->timeout_next;
  402b19:	4c 89 c9             	mov    rcx,r9
		if (t == &g->sched_thd) {
  402b1c:	48 8d 14 92          	lea    rdx,[rdx+rdx*4]
  402b20:	48 c1 e2 06          	shl    rdx,0x6
  402b24:	48 81 c2 08 65 71 00 	add    rdx,0x716508
  402b2b:	49 39 d4             	cmp    r12,rdx
  402b2e:	0f 84 f0 00 00 00    	je     402c24 <thd_block+0x3b4>
		if (t->properties & SLM_THD_PROPERTY_SEND) {
  402b34:	a8 02                	test   al,0x2
  402b36:	0f 85 f3 00 00 00    	jne    402c2f <thd_block+0x3bf>
		} else if (t->properties & SLM_THD_PROPERTY_OWN_TCAP) {
  402b3c:	49 89 c9             	mov    r9,rcx
  402b3f:	a8 01                	test   al,0x1
  402b41:	0f 84 bd fe ff ff    	je     402a04 <thd_block+0x194>
			return cos_switch(t->thd, t->tc, prio, timeout, g->sched_thd.rcv, tok);
  402b47:	4b 8d 04 b6          	lea    rax,[r14+r14*4]
  402b4b:	4d 8b 54 24 08       	mov    r10,QWORD PTR [r12+0x8]
  402b50:	48 89 f2             	mov    rdx,rsi
  402b53:	45 89 f9             	mov    r9d,r15d
  402b56:	48 c1 e0 06          	shl    rax,0x6
  402b5a:	49 8b 7c 24 10       	mov    rdi,QWORD PTR [r12+0x10]
  402b5f:	4c 8b 80 28 65 71 00 	mov    r8,QWORD PTR [rax+0x716528]
  402b66:	4c 89 d6             	mov    rsi,r10
  402b69:	e8 c2 ef 00 00       	call   411b30 <cos_switch>
	if (unlikely(ret != 0)) {
  402b6e:	85 c0                	test   eax,eax
  402b70:	0f 84 af fe ff ff    	je     402a25 <thd_block+0x1b5>
		assert(ret != -EPERM);
  402b76:	83 f8 ff             	cmp    eax,0xffffffff
  402b79:	0f 84 89 00 00 00    	je     402c08 <thd_block+0x398>
		assert(ret != -EINVAL);
  402b7f:	83 f8 ea             	cmp    eax,0xffffffea
  402b82:	0f 84 f6 00 00 00    	je     402c7e <thd_block+0x40e>
		if (ret == -EBUSY) return ret;
  402b88:	83 f8 f0             	cmp    eax,0xfffffff0
  402b8b:	0f 84 4b 01 00 00    	je     402cdc <thd_block+0x46c>
		assert(ret == -EAGAIN);
  402b91:	83 f8 f5             	cmp    eax,0xfffffff5
  402b94:	0f 85 26 01 00 00    	jne    402cc0 <thd_block+0x450>
  402b9a:	0f 01 f9             	rdtscp 
	cs = &(slm_global()->lock);
  402b9d:	81 e1 ff 0f 00 00    	and    ecx,0xfff
  402ba3:	4c 8d 24 89          	lea    r12,[rcx+rcx*4]
  402ba7:	49 c1 e4 06          	shl    r12,0x6
  402bab:	49 81 c4 00 65 71 00 	add    r12,0x716500
		tok    = cos_sched_sync();
  402bb2:	e8 59 ef 00 00       	call   411b10 <cos_sched_sync>
  402bb7:	41 89 c1             	mov    r9d,eax
	unsigned long oc = ps_load(&cs->owner_contention);
  402bba:	49 8b 04 24          	mov    rax,QWORD PTR [r12]
		if (unlikely(owner)) {
  402bbe:	48 89 c1             	mov    rcx,rax
  402bc1:	48 83 e1 fe          	and    rcx,0xfffffffffffffffe
  402bc5:	0f 85 cf 00 00 00    	jne    402c9a <thd_block+0x42a>
  402bcb:	f0 49 0f b1 1c 24    	lock cmpxchg QWORD PTR [r12],rbx
  402bd1:	0f 94 c0             	sete   al
		if (likely(!__slm_cs_cas(cs, cached, current, 0))) return 0;
  402bd4:	84 c0                	test   al,al
  402bd6:	0f 85 73 fd ff ff    	jne    40294f <thd_block+0xdf>
  402bdc:	eb d4                	jmp    402bb2 <thd_block+0x342>
  402bde:	66 90                	xchg   ax,ax
  402be0:	0f 01 f9             	rdtscp 
	return t != &g->idle_thd && t != &g->sched_thd;
  402be3:	81 e1 ff 0f 00 00    	and    ecx,0xfff
  402be9:	48 8d 04 89          	lea    rax,[rcx+rcx*4]
  402bed:	48 c1 e0 06          	shl    rax,0x6
  402bf1:	48 8d 90 80 65 71 00 	lea    rdx,[rax+0x716580]
  402bf8:	49 39 d4             	cmp    r12,rdx
  402bfb:	74 56                	je     402c53 <thd_block+0x3e3>
  402bfd:	48 05 08 65 71 00    	add    rax,0x716508
  402c03:	49 39 c4             	cmp    r12,rax
  402c06:	74 4b                	je     402c53 <thd_block+0x3e3>
  402c08:	be 61 00 00 00       	mov    esi,0x61
  402c0d:	bf 50 d2 41 00       	mov    edi,0x41d250
  402c12:	e8 69 80 00 00       	call   40ac80 <cos_print_str>
		assert(ret != -EPERM);
  402c17:	c7 04 25 00 00 00 00 	mov    DWORD PTR ds:0x0,0x0
  402c1e:	00 00 00 00 
  402c22:	0f 0b                	ud2    
			prio    = curr->priority;
  402c24:	48 8b 73 30          	mov    rsi,QWORD PTR [rbx+0x30]
			timeout = TCAP_TIME_NIL;
  402c28:	31 c9                	xor    ecx,ecx
  402c2a:	e9 05 ff ff ff       	jmp    402b34 <thd_block+0x2c4>
			return cos_sched_asnd(t->asnd, g->timeout_next, g->sched_thd.rcv, tok);
  402c2f:	4b 8d 04 b6          	lea    rax,[r14+r14*4]
  402c33:	49 8b 7c 24 28       	mov    rdi,QWORD PTR [r12+0x28]
  402c38:	44 89 f9             	mov    ecx,r15d
  402c3b:	4c 89 ce             	mov    rsi,r9
  402c3e:	48 c1 e0 06          	shl    rax,0x6
  402c42:	48 8b 90 28 65 71 00 	mov    rdx,QWORD PTR [rax+0x716528]
  402c49:	e8 52 ef 00 00       	call   411ba0 <cos_sched_asnd>
  402c4e:	e9 1b ff ff ff       	jmp    402b6e <thd_block+0x2fe>
		ret = cos_switch(g->sched_thd.thd, 0, curr->priority, TCAP_TIME_NIL, g->sched_thd.rcv, tok);
  402c53:	4b 8d 04 b6          	lea    rax,[r14+r14*4]
  402c57:	48 8b 53 30          	mov    rdx,QWORD PTR [rbx+0x30]
  402c5b:	45 89 f9             	mov    r9d,r15d
  402c5e:	31 c9                	xor    ecx,ecx
  402c60:	48 c1 e0 06          	shl    rax,0x6
  402c64:	31 f6                	xor    esi,esi
  402c66:	4c 8b 80 28 65 71 00 	mov    r8,QWORD PTR [rax+0x716528]
  402c6d:	48 8b b8 18 65 71 00 	mov    rdi,QWORD PTR [rax+0x716518]
  402c74:	e8 b7 ee 00 00       	call   411b30 <cos_switch>
  402c79:	e9 f0 fe ff ff       	jmp    402b6e <thd_block+0x2fe>
  402c7e:	be 61 00 00 00       	mov    esi,0x61
  402c83:	bf b8 d2 41 00       	mov    edi,0x41d2b8
  402c88:	e8 f3 7f 00 00       	call   40ac80 <cos_print_str>
		assert(ret != -EINVAL);
  402c8d:	c7 04 25 00 00 00 00 	mov    DWORD PTR ds:0x0,0x0
  402c94:	00 00 00 00 
  402c98:	0f 0b                	ud2    
			ret = slm_cs_enter_contention(cs, cached, current, owner, contended, tok);
  402c9a:	41 89 c0             	mov    r8d,eax
  402c9d:	48 89 da             	mov    rdx,rbx
  402ca0:	48 89 c6             	mov    rsi,rax
  402ca3:	4c 89 e7             	mov    rdi,r12
  402ca6:	41 83 e0 01          	and    r8d,0x1
  402caa:	e8 91 23 01 00       	call   415040 <slm_cs_enter_contention>
			assert(ret != -EBUSY);
  402caf:	83 f8 f0             	cmp    eax,0xfffffff0
  402cb2:	0f 85 fa fe ff ff    	jne    402bb2 <thd_block+0x342>
  402cb8:	e9 21 fe ff ff       	jmp    402ade <thd_block+0x26e>
  402cbd:	0f 1f 00             	nop    DWORD PTR [rax]
  402cc0:	be 61 00 00 00       	mov    esi,0x61
  402cc5:	bf 20 d3 41 00       	mov    edi,0x41d320
  402cca:	e8 b1 7f 00 00       	call   40ac80 <cos_print_str>
		assert(ret == -EAGAIN);
  402ccf:	c7 04 25 00 00 00 00 	mov    DWORD PTR ds:0x0,0x0
  402cd6:	00 00 00 00 
  402cda:	0f 0b                	ud2    
	ret = slm_thd_activate(curr, t, tok, 0);
  402cdc:	41 bd f0 ff ff ff    	mov    r13d,0xfffffff0
	return ret;
  402ce2:	e9 3e fd ff ff       	jmp    402a25 <thd_block+0x1b5>
  402ce7:	66 0f 1f 84 00 00 00 	nop    WORD PTR [rax+rax*1+0x0]
  402cee:	00 00 

0000000000402cf0 <sched_thd_block>:
{
  402cf0:	f3 0f 1e fa          	endbr64 
  402cf4:	55                   	push   rbp
  402cf5:	48 89 e5             	mov    rbp,rsp
  402cf8:	41 57                	push   r15
  402cfa:	41 56                	push   r14
  402cfc:	41 55                	push   r13
  402cfe:	41 54                	push   r12
  402d00:	53                   	push   rbx
  402d01:	48 83 ec 18          	sub    rsp,0x18
	if (dep_id) return -1;
  402d05:	48 85 ff             	test   rdi,rdi
  402d08:	0f 85 96 03 00 00    	jne    4030a4 <sched_thd_block+0x3b4>
	__asm__("mov %%rsp, %0;" : "=r"(curr_stk_pointer));
  402d0e:	48 89 e0             	mov    rax,rsp
	return *(long *)((curr_stk_pointer & ~(COS_STACK_SZ - 1)) + COS_STACK_SZ - offset * sizeof(unsigned long));
  402d11:	48 25 00 e0 ff ff    	and    rax,0xffffffffffffe000
  402d17:	0f b7 80 f0 1f 00 00 	movzx  eax,WORD PTR [rax+0x1ff0]
SS_STATIC_SLAB(thd, struct slm_thd_container, MAX_NUM_THREADS);
  402d1e:	48 85 c0             	test   rax,rax
  402d21:	0f 84 f9 01 00 00    	je     402f20 <sched_thd_block+0x230>
  402d27:	83 e8 01             	sub    eax,0x1
  402d2a:	3d c7 00 00 00       	cmp    eax,0xc7
  402d2f:	0f 87 eb 01 00 00    	ja     402f20 <sched_thd_block+0x230>
  402d35:	48 8b 14 c5 20 f7 5b 	mov    rdx,QWORD PTR [rax*8+0x5bf720]
  402d3c:	00 
  402d3d:	48 f7 c2 fe ff ff ff 	test   rdx,0xfffffffffffffffe
  402d44:	0f 84 d6 01 00 00    	je     402f20 <sched_thd_block+0x230>
  402d4a:	83 e2 01             	and    edx,0x1
  402d4d:	0f 85 cd 01 00 00    	jne    402f20 <sched_thd_block+0x230>
  402d53:	48 8d 14 80          	lea    rdx,[rax+rax*4]
  402d57:	48 8d 1c 50          	lea    rbx,[rax+rdx*2]
  402d5b:	48 c1 e3 04          	shl    rbx,0x4
  402d5f:	48 81 c3 60 fd 5b 00 	add    rbx,0x5bfd60
	__asm__ __volatile__("rdtscp" : "=a"(a), "=d"(d), "=c"(c) : : );
  402d66:	0f 01 f9             	rdtscp 
	cs = &(slm_global()->lock);
  402d69:	81 e1 ff 0f 00 00    	and    ecx,0xfff
  402d6f:	4c 8d 24 89          	lea    r12,[rcx+rcx*4]
  402d73:	49 c1 e4 06          	shl    r12,0x6
  402d77:	49 81 c4 00 65 71 00 	add    r12,0x716500
		tok    = cos_sched_sync();
  402d7e:	e8 8d ed 00 00       	call   411b10 <cos_sched_sync>
  402d83:	41 89 c1             	mov    r9d,eax
	unsigned long oc = ps_load(&cs->owner_contention);
  402d86:	49 8b 04 24          	mov    rax,QWORD PTR [r12]
		if (unlikely(owner)) {
  402d8a:	48 89 c1             	mov    rcx,rax
  402d8d:	48 83 e1 fe          	and    rcx,0xfffffffffffffffe
  402d91:	0f 85 a9 01 00 00    	jne    402f40 <sched_thd_block+0x250>
  402d97:	f0 49 0f b1 1c 24    	lock cmpxchg QWORD PTR [r12],rbx
  402d9d:	0f 94 c0             	sete   al
		if (likely(!__slm_cs_cas(cs, cached, current, 0))) return 0;
  402da0:	84 c0                	test   al,al
  402da2:	74 da                	je     402d7e <sched_thd_block+0x8e>
        ret = slm_thd_block(current);
  402da4:	48 89 df             	mov    rdi,rbx
  402da7:	e8 74 23 01 00       	call   415120 <slm_thd_block>
  402dac:	41 89 c5             	mov    r13d,eax
	if (!ret) ret = slm_cs_exit_reschedule(current, SLM_CS_NONE);
  402daf:	85 c0                	test   eax,eax
  402db1:	0f 85 09 01 00 00    	jne    402ec0 <sched_thd_block+0x1d0>
	struct cos_compinfo    *ci  = &cos_defcompinfo_curr_get()->ci;
  402db7:	e8 94 87 00 00       	call   40b550 <cos_defcompinfo_curr_get>
  402dbc:	0f 01 f9             	rdtscp 
	if (unlikely(!t)) t = &g->idle_thd;
  402dbf:	81 e1 ff 0f 00 00    	and    ecx,0xfff
  402dc5:	4c 8d 34 89          	lea    r14,[rcx+rcx*4]
  402dc9:	49 c1 e6 06          	shl    r14,0x6
  402dcd:	49 8d 86 80 65 71 00 	lea    rax,[r14+0x716580]
  402dd4:	48 89 45 c8          	mov    QWORD PTR [rbp-0x38],rax
	tok  = cos_sched_sync();
  402dd8:	e8 33 ed 00 00       	call   411b10 <cos_sched_sync>
  402ddd:	41 89 c7             	mov    r15d,eax
SLM_MODULES_COMPOSE_FNS(quantum, fprr, static_cm);
  402de0:	e8 bb 0d 01 00       	call   413ba0 <slm_sched_fprr_schedule>
	if (unlikely(!t)) t = &g->idle_thd;
  402de5:	48 85 c0             	test   rax,rax
  402de8:	49 89 c4             	mov    r12,rax
  402deb:	4c 0f 44 65 c8       	cmove  r12,QWORD PTR [rbp-0x38]
{ return s == SLM_THD_RUNNABLE || s == SLM_THD_WOKEN; }
  402df0:	41 8b 44 24 04       	mov    eax,DWORD PTR [r12+0x4]
  402df5:	83 e8 02             	sub    eax,0x2
	assert(slm_state_is_runnable(t->state));
  402df8:	83 f8 01             	cmp    eax,0x1
  402dfb:	0f 87 79 01 00 00    	ja     402f7a <sched_thd_block+0x28a>
  402e01:	0f 01 f9             	rdtscp 
	struct slm_cs *cs = &(slm_global()->lock);
  402e04:	81 e1 ff 0f 00 00    	and    ecx,0xfff
  402e0a:	48 8d 3c 89          	lea    rdi,[rcx+rcx*4]
  402e0e:	48 c1 e7 06          	shl    rdi,0x6
  402e12:	4c 8d b7 00 65 71 00 	lea    r14,[rdi+0x716500]
	while (ret != 0) {
  402e19:	eb 11                	jmp    402e2c <sched_thd_block+0x13c>
  402e1b:	0f 1f 44 00 00       	nop    DWORD PTR [rax+rax*1+0x0]
  402e20:	f0 49 0f b1 16       	lock cmpxchg QWORD PTR [r14],rdx
  402e25:	0f 94 c0             	sete   al
  402e28:	84 c0                	test   al,al
  402e2a:	75 28                	jne    402e54 <sched_thd_block+0x164>
		tok    = cos_sched_sync();
  402e2c:	e8 df ec 00 00       	call   411b10 <cos_sched_sync>
  402e31:	89 c1                	mov    ecx,eax
	unsigned long oc = ps_load(&cs->owner_contention);
  402e33:	49 8b 06             	mov    rax,QWORD PTR [r14]
		if (unlikely(contention)) {
  402e36:	48 89 c2             	mov    rdx,rax
  402e39:	83 e2 01             	and    edx,0x1
  402e3c:	74 e2                	je     402e20 <sched_thd_block+0x130>
	*thd        = (struct slm_thd *)(oc & (~0UL << 1));
  402e3e:	48 89 c6             	mov    rsi,rax
			if (!slm_cs_exit_contention(cs, current, cached, tok)) return;
  402e41:	48 89 c2             	mov    rdx,rax
  402e44:	4c 89 f7             	mov    rdi,r14
  402e47:	48 83 e6 fe          	and    rsi,0xfffffffffffffffe
  402e4b:	e8 50 22 01 00       	call   4150a0 <slm_cs_exit_contention>
  402e50:	85 c0                	test   eax,eax
  402e52:	75 d8                	jne    402e2c <sched_thd_block+0x13c>
	struct cos_defcompinfo *dci = cos_defcompinfo_curr_get();
  402e54:	e8 f7 86 00 00       	call   40b550 <cos_defcompinfo_curr_get>
  402e59:	0f 01 f9             	rdtscp 
	*coreid = c & 0xFFF;
  402e5c:	89 ca                	mov    edx,ecx
	timeout = g->timeout_next;
  402e5e:	81 e1 ff 0f 00 00    	and    ecx,0xfff
	prio = inherit_prio ? curr->priority : t->priority;
  402e64:	49 8b 74 24 30       	mov    rsi,QWORD PTR [r12+0x30]
	timeout = g->timeout_next;
  402e69:	48 8d 04 89          	lea    rax,[rcx+rcx*4]
  402e6d:	66 81 e2 ff 0f       	and    dx,0xfff
  402e72:	49 89 ce             	mov    r14,rcx
  402e75:	48 c1 e0 06          	shl    rax,0x6
  402e79:	4c 8b 88 08 66 71 00 	mov    r9,QWORD PTR [rax+0x716608]
	if (unlikely(t->properties & (SLM_THD_PROPERTY_SEND | SLM_THD_PROPERTY_OWN_TCAP | SLM_THD_PROPERTY_SPECIAL))) {
  402e80:	41 8b 04 24          	mov    eax,DWORD PTR [r12]
  402e84:	a8 0b                	test   al,0xb
  402e86:	0f 85 0a 01 00 00    	jne    402f96 <sched_thd_block+0x2a6>
	ret = cos_defswitch(t->thd, prio, timeout, tok);
  402e8c:	49 8b 7c 24 10       	mov    rdi,QWORD PTR [r12+0x10]
  402e91:	44 89 f9             	mov    ecx,r15d
  402e94:	4c 89 ca             	mov    rdx,r9
  402e97:	e8 04 98 00 00       	call   40c6a0 <cos_defswitch>
	if (unlikely(ret == -EPERM && !slm_thd_normal(t))) {
  402e9c:	83 f8 ff             	cmp    eax,0xffffffff
  402e9f:	0f 84 bb 01 00 00    	je     403060 <sched_thd_block+0x370>
	if (unlikely(ret != 0)) {
  402ea5:	85 c0                	test   eax,eax
  402ea7:	0f 85 52 01 00 00    	jne    402fff <sched_thd_block+0x30f>
}
  402ead:	48 83 c4 18          	add    rsp,0x18
  402eb1:	44 89 e8             	mov    eax,r13d
  402eb4:	5b                   	pop    rbx
  402eb5:	41 5c                	pop    r12
  402eb7:	41 5d                	pop    r13
  402eb9:	41 5e                	pop    r14
  402ebb:	41 5f                	pop    r15
  402ebd:	5d                   	pop    rbp
  402ebe:	c3                   	ret    
  402ebf:	90                   	nop
	__asm__ __volatile__("rdtscp" : "=a"(a), "=d"(d), "=c"(c) : : );
  402ec0:	0f 01 f9             	rdtscp 
	struct slm_cs *cs = &(slm_global()->lock);
  402ec3:	81 e1 ff 0f 00 00    	and    ecx,0xfff
  402ec9:	48 8d 1c 89          	lea    rbx,[rcx+rcx*4]
  402ecd:	48 c1 e3 06          	shl    rbx,0x6
  402ed1:	48 81 c3 00 65 71 00 	add    rbx,0x716500
	while (ret != 0) {
  402ed8:	eb 12                	jmp    402eec <sched_thd_block+0x1fc>
  402eda:	66 0f 1f 44 00 00    	nop    WORD PTR [rax+rax*1+0x0]
  402ee0:	f0 48 0f b1 13       	lock cmpxchg QWORD PTR [rbx],rdx
  402ee5:	0f 94 c0             	sete   al
  402ee8:	84 c0                	test   al,al
  402eea:	75 c1                	jne    402ead <sched_thd_block+0x1bd>
		tok    = cos_sched_sync();
  402eec:	e8 1f ec 00 00       	call   411b10 <cos_sched_sync>
  402ef1:	89 c1                	mov    ecx,eax
	unsigned long oc = ps_load(&cs->owner_contention);
  402ef3:	48 8b 03             	mov    rax,QWORD PTR [rbx]
		if (unlikely(contention)) {
  402ef6:	48 89 c2             	mov    rdx,rax
  402ef9:	83 e2 01             	and    edx,0x1
  402efc:	74 e2                	je     402ee0 <sched_thd_block+0x1f0>
	*thd        = (struct slm_thd *)(oc & (~0UL << 1));
  402efe:	48 89 c6             	mov    rsi,rax
			if (!slm_cs_exit_contention(cs, current, cached, tok)) return;
  402f01:	48 89 c2             	mov    rdx,rax
  402f04:	48 89 df             	mov    rdi,rbx
  402f07:	48 83 e6 fe          	and    rsi,0xfffffffffffffffe
  402f0b:	e8 90 21 01 00       	call   4150a0 <slm_cs_exit_contention>
  402f10:	85 c0                	test   eax,eax
  402f12:	74 99                	je     402ead <sched_thd_block+0x1bd>
  402f14:	eb d6                	jmp    402eec <sched_thd_block+0x1fc>
  402f16:	66 2e 0f 1f 84 00 00 	cs nop WORD PTR [rax+rax*1+0x0]
  402f1d:	00 00 00 
  402f20:	be 59 00 00 00       	mov    esi,0x59
  402f25:	bf 00 d1 41 00       	mov    edi,0x41d100
  402f2a:	e8 51 7d 00 00       	call   40ac80 <cos_print_str>
	assert(current);
  402f2f:	c7 04 25 00 00 00 00 	mov    DWORD PTR ds:0x0,0x0
  402f36:	00 00 00 00 
  402f3a:	0f 0b                	ud2    
  402f3c:	0f 1f 40 00          	nop    DWORD PTR [rax+0x0]
			ret = slm_cs_enter_contention(cs, cached, current, owner, contended, tok);
  402f40:	41 89 c0             	mov    r8d,eax
  402f43:	48 89 da             	mov    rdx,rbx
  402f46:	48 89 c6             	mov    rsi,rax
  402f49:	4c 89 e7             	mov    rdi,r12
  402f4c:	41 83 e0 01          	and    r8d,0x1
  402f50:	e8 eb 20 01 00       	call   415040 <slm_cs_enter_contention>
			assert(ret != -EBUSY);
  402f55:	83 f8 f0             	cmp    eax,0xfffffff0
  402f58:	0f 85 20 fe ff ff    	jne    402d7e <sched_thd_block+0x8e>
  402f5e:	be 59 00 00 00       	mov    esi,0x59
  402f63:	bf 60 d1 41 00       	mov    edi,0x41d160
  402f68:	e8 13 7d 00 00       	call   40ac80 <cos_print_str>
  402f6d:	c7 04 25 00 00 00 00 	mov    DWORD PTR ds:0x0,0x0
  402f74:	00 00 00 00 
  402f78:	0f 0b                	ud2    
  402f7a:	be 61 00 00 00       	mov    esi,0x61
  402f7f:	bf e8 d1 41 00       	mov    edi,0x41d1e8
  402f84:	e8 f7 7c 00 00       	call   40ac80 <cos_print_str>
	assert(slm_state_is_runnable(t->state));
  402f89:	c7 04 25 00 00 00 00 	mov    DWORD PTR ds:0x0,0x0
  402f90:	00 00 00 00 
  402f94:	0f 0b                	ud2    
		if (t == &g->sched_thd) {
  402f96:	0f b7 d2             	movzx  edx,dx
	timeout = g->timeout_next;
  402f99:	4c 89 c9             	mov    rcx,r9
		if (t == &g->sched_thd) {
  402f9c:	48 8d 14 92          	lea    rdx,[rdx+rdx*4]
  402fa0:	48 c1 e2 06          	shl    rdx,0x6
  402fa4:	48 81 c2 08 65 71 00 	add    rdx,0x716508
  402fab:	49 39 d4             	cmp    r12,rdx
  402fae:	0f 84 fb 00 00 00    	je     4030af <sched_thd_block+0x3bf>
		if (t->properties & SLM_THD_PROPERTY_SEND) {
  402fb4:	a8 02                	test   al,0x2
  402fb6:	0f 85 fe 00 00 00    	jne    4030ba <sched_thd_block+0x3ca>
		} else if (t->properties & SLM_THD_PROPERTY_OWN_TCAP) {
  402fbc:	49 89 c9             	mov    r9,rcx
  402fbf:	a8 01                	test   al,0x1
  402fc1:	0f 84 c5 fe ff ff    	je     402e8c <sched_thd_block+0x19c>
			return cos_switch(t->thd, t->tc, prio, timeout, g->sched_thd.rcv, tok);
  402fc7:	4b 8d 04 b6          	lea    rax,[r14+r14*4]
  402fcb:	4d 8b 54 24 08       	mov    r10,QWORD PTR [r12+0x8]
  402fd0:	48 89 f2             	mov    rdx,rsi
  402fd3:	45 89 f9             	mov    r9d,r15d
  402fd6:	48 c1 e0 06          	shl    rax,0x6
  402fda:	49 8b 7c 24 10       	mov    rdi,QWORD PTR [r12+0x10]
  402fdf:	4c 8b 80 28 65 71 00 	mov    r8,QWORD PTR [rax+0x716528]
  402fe6:	4c 89 d6             	mov    rsi,r10
  402fe9:	e8 42 eb 00 00       	call   411b30 <cos_switch>
	if (unlikely(ret != 0)) {
  402fee:	85 c0                	test   eax,eax
  402ff0:	0f 84 b7 fe ff ff    	je     402ead <sched_thd_block+0x1bd>
		assert(ret != -EPERM);
  402ff6:	83 f8 ff             	cmp    eax,0xffffffff
  402ff9:	0f 84 89 00 00 00    	je     403088 <sched_thd_block+0x398>
		assert(ret != -EINVAL);
  402fff:	83 f8 ea             	cmp    eax,0xffffffea
  403002:	0f 84 01 01 00 00    	je     403109 <sched_thd_block+0x419>
		if (ret == -EBUSY) return ret;
  403008:	83 f8 f0             	cmp    eax,0xfffffff0
  40300b:	0f 84 5b 01 00 00    	je     40316c <sched_thd_block+0x47c>
		assert(ret == -EAGAIN);
  403011:	83 f8 f5             	cmp    eax,0xfffffff5
  403014:	0f 85 36 01 00 00    	jne    403150 <sched_thd_block+0x460>
  40301a:	0f 01 f9             	rdtscp 
	cs = &(slm_global()->lock);
  40301d:	81 e1 ff 0f 00 00    	and    ecx,0xfff
  403023:	4c 8d 24 89          	lea    r12,[rcx+rcx*4]
  403027:	49 c1 e4 06          	shl    r12,0x6
  40302b:	49 81 c4 00 65 71 00 	add    r12,0x716500
		tok    = cos_sched_sync();
  403032:	e8 d9 ea 00 00       	call   411b10 <cos_sched_sync>
  403037:	41 89 c1             	mov    r9d,eax
	unsigned long oc = ps_load(&cs->owner_contention);
  40303a:	49 8b 04 24          	mov    rax,QWORD PTR [r12]
		if (unlikely(owner)) {
  40303e:	48 89 c1             	mov    rcx,rax
  403041:	48 83 e1 fe          	and    rcx,0xfffffffffffffffe
  403045:	0f 85 da 00 00 00    	jne    403125 <sched_thd_block+0x435>
  40304b:	f0 49 0f b1 1c 24    	lock cmpxchg QWORD PTR [r12],rbx
  403051:	0f 94 c0             	sete   al
		if (likely(!__slm_cs_cas(cs, cached, current, 0))) return 0;
  403054:	84 c0                	test   al,al
  403056:	0f 85 7c fd ff ff    	jne    402dd8 <sched_thd_block+0xe8>
  40305c:	eb d4                	jmp    403032 <sched_thd_block+0x342>
  40305e:	66 90                	xchg   ax,ax
  403060:	0f 01 f9             	rdtscp 
	return t != &g->idle_thd && t != &g->sched_thd;
  403063:	81 e1 ff 0f 00 00    	and    ecx,0xfff
  403069:	48 8d 04 89          	lea    rax,[rcx+rcx*4]
  40306d:	48 c1 e0 06          	shl    rax,0x6
  403071:	48 8d 90 80 65 71 00 	lea    rdx,[rax+0x716580]
  403078:	49 39 d4             	cmp    r12,rdx
  40307b:	74 61                	je     4030de <sched_thd_block+0x3ee>
  40307d:	48 05 08 65 71 00    	add    rax,0x716508
  403083:	49 39 c4             	cmp    r12,rax
  403086:	74 56                	je     4030de <sched_thd_block+0x3ee>
  403088:	be 61 00 00 00       	mov    esi,0x61
  40308d:	bf 50 d2 41 00       	mov    edi,0x41d250
  403092:	e8 e9 7b 00 00       	call   40ac80 <cos_print_str>
		assert(ret != -EPERM);
  403097:	c7 04 25 00 00 00 00 	mov    DWORD PTR ds:0x0,0x0
  40309e:	00 00 00 00 
  4030a2:	0f 0b                	ud2    
	if (dep_id) return -1;
  4030a4:	41 bd ff ff ff ff    	mov    r13d,0xffffffff
  4030aa:	e9 fe fd ff ff       	jmp    402ead <sched_thd_block+0x1bd>
			prio    = curr->priority;
  4030af:	48 8b 73 30          	mov    rsi,QWORD PTR [rbx+0x30]
			timeout = TCAP_TIME_NIL;
  4030b3:	31 c9                	xor    ecx,ecx
  4030b5:	e9 fa fe ff ff       	jmp    402fb4 <sched_thd_block+0x2c4>
			return cos_sched_asnd(t->asnd, g->timeout_next, g->sched_thd.rcv, tok);
  4030ba:	4b 8d 04 b6          	lea    rax,[r14+r14*4]
  4030be:	49 8b 7c 24 28       	mov    rdi,QWORD PTR [r12+0x28]
  4030c3:	44 89 f9             	mov    ecx,r15d
  4030c6:	4c 89 ce             	mov    rsi,r9
  4030c9:	48 c1 e0 06          	shl    rax,0x6
  4030cd:	48 8b 90 28 65 71 00 	mov    rdx,QWORD PTR [rax+0x716528]
  4030d4:	e8 c7 ea 00 00       	call   411ba0 <cos_sched_asnd>
  4030d9:	e9 10 ff ff ff       	jmp    402fee <sched_thd_block+0x2fe>
		ret = cos_switch(g->sched_thd.thd, 0, curr->priority, TCAP_TIME_NIL, g->sched_thd.rcv, tok);
  4030de:	4b 8d 04 b6          	lea    rax,[r14+r14*4]
  4030e2:	48 8b 53 30          	mov    rdx,QWORD PTR [rbx+0x30]
  4030e6:	45 89 f9             	mov    r9d,r15d
  4030e9:	31 c9                	xor    ecx,ecx
  4030eb:	48 c1 e0 06          	shl    rax,0x6
  4030ef:	31 f6                	xor    esi,esi
  4030f1:	4c 8b 80 28 65 71 00 	mov    r8,QWORD PTR [rax+0x716528]
  4030f8:	48 8b b8 18 65 71 00 	mov    rdi,QWORD PTR [rax+0x716518]
  4030ff:	e8 2c ea 00 00       	call   411b30 <cos_switch>
  403104:	e9 e5 fe ff ff       	jmp    402fee <sched_thd_block+0x2fe>
  403109:	be 61 00 00 00       	mov    esi,0x61
  40310e:	bf b8 d2 41 00       	mov    edi,0x41d2b8
  403113:	e8 68 7b 00 00       	call   40ac80 <cos_print_str>
		assert(ret != -EINVAL);
  403118:	c7 04 25 00 00 00 00 	mov    DWORD PTR ds:0x0,0x0
  40311f:	00 00 00 00 
  403123:	0f 0b                	ud2    
			ret = slm_cs_enter_contention(cs, cached, current, owner, contended, tok);
  403125:	41 89 c0             	mov    r8d,eax
  403128:	48 89 da             	mov    rdx,rbx
  40312b:	48 89 c6             	mov    rsi,rax
  40312e:	4c 89 e7             	mov    rdi,r12
  403131:	41 83 e0 01          	and    r8d,0x1
  403135:	e8 06 1f 01 00       	call   415040 <slm_cs_enter_contention>
			assert(ret != -EBUSY);
  40313a:	83 f8 f0             	cmp    eax,0xfffffff0
  40313d:	0f 85 ef fe ff ff    	jne    403032 <sched_thd_block+0x342>
  403143:	e9 16 fe ff ff       	jmp    402f5e <sched_thd_block+0x26e>
  403148:	0f 1f 84 00 00 00 00 	nop    DWORD PTR [rax+rax*1+0x0]
  40314f:	00 
  403150:	be 61 00 00 00       	mov    esi,0x61
  403155:	bf 20 d3 41 00       	mov    edi,0x41d320
  40315a:	e8 21 7b 00 00       	call   40ac80 <cos_print_str>
		assert(ret == -EAGAIN);
  40315f:	c7 04 25 00 00 00 00 	mov    DWORD PTR ds:0x0,0x0
  403166:	00 00 00 00 
  40316a:	0f 0b                	ud2    
	ret = slm_thd_activate(curr, t, tok, 0);
  40316c:	41 bd f0 ff ff ff    	mov    r13d,0xfffffff0
  403172:	e9 36 fd ff ff       	jmp    402ead <sched_thd_block+0x1bd>
  403177:	66 0f 1f 84 00 00 00 	nop    WORD PTR [rax+rax*1+0x0]
  40317e:	00 00 

0000000000403180 <thd_wakeup>:
{
  403180:	f3 0f 1e fa          	endbr64 
  403184:	55                   	push   rbp
	__asm__("mov %%rsp, %0;" : "=r"(curr_stk_pointer));
  403185:	48 89 e0             	mov    rax,rsp
	return *(long *)((curr_stk_pointer & ~(COS_STACK_SZ - 1)) + COS_STACK_SZ - offset * sizeof(unsigned long));
  403188:	48 25 00 e0 ff ff    	and    rax,0xffffffffffffe000
  40318e:	48 89 e5             	mov    rbp,rsp
  403191:	41 57                	push   r15
  403193:	41 56                	push   r14
  403195:	41 55                	push   r13
  403197:	41 54                	push   r12
  403199:	53                   	push   rbx
  40319a:	48 83 ec 18          	sub    rsp,0x18
  40319e:	0f b7 80 f0 1f 00 00 	movzx  eax,WORD PTR [rax+0x1ff0]
SS_STATIC_SLAB(thd, struct slm_thd_container, MAX_NUM_THREADS);
  4031a5:	48 85 c0             	test   rax,rax
  4031a8:	0f 84 02 02 00 00    	je     4033b0 <thd_wakeup+0x230>
  4031ae:	83 e8 01             	sub    eax,0x1
  4031b1:	3d c7 00 00 00       	cmp    eax,0xc7
  4031b6:	0f 87 f4 01 00 00    	ja     4033b0 <thd_wakeup+0x230>
  4031bc:	48 8b 14 c5 20 f7 5b 	mov    rdx,QWORD PTR [rax*8+0x5bf720]
  4031c3:	00 
  4031c4:	48 f7 c2 fe ff ff ff 	test   rdx,0xfffffffffffffffe
  4031cb:	0f 84 df 01 00 00    	je     4033b0 <thd_wakeup+0x230>
  4031d1:	83 e2 01             	and    edx,0x1
  4031d4:	0f 85 d6 01 00 00    	jne    4033b0 <thd_wakeup+0x230>
  4031da:	48 8d 14 80          	lea    rdx,[rax+rax*4]
  4031de:	49 89 fd             	mov    r13,rdi
  4031e1:	4c 8d 24 50          	lea    r12,[rax+rdx*2]
  4031e5:	49 c1 e4 04          	shl    r12,0x4
  4031e9:	49 81 c4 60 fd 5b 00 	add    r12,0x5bfd60
	__asm__ __volatile__("rdtscp" : "=a"(a), "=d"(d), "=c"(c) : : );
  4031f0:	0f 01 f9             	rdtscp 
	cs = &(slm_global()->lock);
  4031f3:	81 e1 ff 0f 00 00    	and    ecx,0xfff
  4031f9:	48 8d 1c 89          	lea    rbx,[rcx+rcx*4]
  4031fd:	48 c1 e3 06          	shl    rbx,0x6
  403201:	48 81 c3 00 65 71 00 	add    rbx,0x716500
		tok    = cos_sched_sync();
  403208:	e8 03 e9 00 00       	call   411b10 <cos_sched_sync>
  40320d:	41 89 c1             	mov    r9d,eax
	unsigned long oc = ps_load(&cs->owner_contention);
  403210:	48 8b 03             	mov    rax,QWORD PTR [rbx]
		if (unlikely(owner)) {
  403213:	48 89 c1             	mov    rcx,rax
  403216:	48 83 e1 fe          	and    rcx,0xfffffffffffffffe
  40321a:	0f 85 b0 01 00 00    	jne    4033d0 <thd_wakeup+0x250>
  403220:	f0 4c 0f b1 23       	lock cmpxchg QWORD PTR [rbx],r12
  403225:	0f 94 c0             	sete   al
		if (likely(!__slm_cs_cas(cs, cached, current, 0))) return 0;
  403228:	84 c0                	test   al,al
  40322a:	74 dc                	je     403208 <thd_wakeup+0x88>
	ret = slm_thd_wakeup(t, 0);
  40322c:	31 f6                	xor    esi,esi
  40322e:	4c 89 ef             	mov    rdi,r13
  403231:	e8 6a 25 01 00       	call   4157a0 <slm_thd_wakeup>
  403236:	41 89 c7             	mov    r15d,eax
	if (ret < 0) {
  403239:	85 c0                	test   eax,eax
  40323b:	0f 88 0f 01 00 00    	js     403350 <thd_wakeup+0x1d0>
	struct cos_compinfo    *ci  = &cos_defcompinfo_curr_get()->ci;
  403241:	e8 0a 83 00 00       	call   40b550 <cos_defcompinfo_curr_get>
  403246:	0f 01 f9             	rdtscp 
	if (unlikely(!t)) t = &g->idle_thd;
  403249:	81 e1 ff 0f 00 00    	and    ecx,0xfff
  40324f:	4c 8d 2c 89          	lea    r13,[rcx+rcx*4]
  403253:	49 c1 e5 06          	shl    r13,0x6
  403257:	49 8d 85 80 65 71 00 	lea    rax,[r13+0x716580]
  40325e:	48 89 45 c8          	mov    QWORD PTR [rbp-0x38],rax
	tok  = cos_sched_sync();
  403262:	e8 a9 e8 00 00       	call   411b10 <cos_sched_sync>
  403267:	41 89 c6             	mov    r14d,eax
SLM_MODULES_COMPOSE_FNS(quantum, fprr, static_cm);
  40326a:	e8 31 09 01 00       	call   413ba0 <slm_sched_fprr_schedule>
	if (unlikely(!t)) t = &g->idle_thd;
  40326f:	48 85 c0             	test   rax,rax
  403272:	48 89 c3             	mov    rbx,rax
  403275:	48 0f 44 5d c8       	cmove  rbx,QWORD PTR [rbp-0x38]
{ return s == SLM_THD_RUNNABLE || s == SLM_THD_WOKEN; }
  40327a:	8b 43 04             	mov    eax,DWORD PTR [rbx+0x4]
  40327d:	83 e8 02             	sub    eax,0x2
	assert(slm_state_is_runnable(t->state));
  403280:	83 f8 01             	cmp    eax,0x1
  403283:	0f 87 81 01 00 00    	ja     40340a <thd_wakeup+0x28a>
  403289:	0f 01 f9             	rdtscp 
	struct slm_cs *cs = &(slm_global()->lock);
  40328c:	81 e1 ff 0f 00 00    	and    ecx,0xfff
  403292:	4c 8d 3c 89          	lea    r15,[rcx+rcx*4]
  403296:	49 c1 e7 06          	shl    r15,0x6
  40329a:	49 81 c7 00 65 71 00 	add    r15,0x716500
	while (ret != 0) {
  4032a1:	eb 11                	jmp    4032b4 <thd_wakeup+0x134>
  4032a3:	0f 1f 44 00 00       	nop    DWORD PTR [rax+rax*1+0x0]
  4032a8:	f0 49 0f b1 17       	lock cmpxchg QWORD PTR [r15],rdx
  4032ad:	0f 94 c0             	sete   al
  4032b0:	84 c0                	test   al,al
  4032b2:	75 28                	jne    4032dc <thd_wakeup+0x15c>
		tok    = cos_sched_sync();
  4032b4:	e8 57 e8 00 00       	call   411b10 <cos_sched_sync>
  4032b9:	89 c1                	mov    ecx,eax
	unsigned long oc = ps_load(&cs->owner_contention);
  4032bb:	49 8b 07             	mov    rax,QWORD PTR [r15]
		if (unlikely(contention)) {
  4032be:	48 89 c2             	mov    rdx,rax
  4032c1:	83 e2 01             	and    edx,0x1
  4032c4:	74 e2                	je     4032a8 <thd_wakeup+0x128>
	*thd        = (struct slm_thd *)(oc & (~0UL << 1));
  4032c6:	48 89 c6             	mov    rsi,rax
			if (!slm_cs_exit_contention(cs, current, cached, tok)) return;
  4032c9:	48 89 c2             	mov    rdx,rax
  4032cc:	4c 89 ff             	mov    rdi,r15
  4032cf:	48 83 e6 fe          	and    rsi,0xfffffffffffffffe
  4032d3:	e8 c8 1d 01 00       	call   4150a0 <slm_cs_exit_contention>
  4032d8:	85 c0                	test   eax,eax
  4032da:	75 d8                	jne    4032b4 <thd_wakeup+0x134>
	struct cos_defcompinfo *dci = cos_defcompinfo_curr_get();
  4032dc:	e8 6f 82 00 00       	call   40b550 <cos_defcompinfo_curr_get>
  4032e1:	0f 01 f9             	rdtscp 
	*coreid = c & 0xFFF;
  4032e4:	89 ca                	mov    edx,ecx
	timeout = g->timeout_next;
  4032e6:	81 e1 ff 0f 00 00    	and    ecx,0xfff
	prio = inherit_prio ? curr->priority : t->priority;
  4032ec:	48 8b 73 30          	mov    rsi,QWORD PTR [rbx+0x30]
	timeout = g->timeout_next;
  4032f0:	48 8d 04 89          	lea    rax,[rcx+rcx*4]
  4032f4:	66 81 e2 ff 0f       	and    dx,0xfff
  4032f9:	49 89 cd             	mov    r13,rcx
  4032fc:	48 c1 e0 06          	shl    rax,0x6
  403300:	4c 8b 88 08 66 71 00 	mov    r9,QWORD PTR [rax+0x716608]
	if (unlikely(t->properties & (SLM_THD_PROPERTY_SEND | SLM_THD_PROPERTY_OWN_TCAP | SLM_THD_PROPERTY_SPECIAL))) {
  403307:	8b 03                	mov    eax,DWORD PTR [rbx]
  403309:	a8 0b                	test   al,0xb
  40330b:	0f 85 15 01 00 00    	jne    403426 <thd_wakeup+0x2a6>
	ret = cos_defswitch(t->thd, prio, timeout, tok);
  403311:	48 8b 7b 10          	mov    rdi,QWORD PTR [rbx+0x10]
  403315:	44 89 f1             	mov    ecx,r14d
  403318:	4c 89 ca             	mov    rdx,r9
  40331b:	e8 80 93 00 00       	call   40c6a0 <cos_defswitch>
  403320:	41 89 c7             	mov    r15d,eax
	if (unlikely(ret == -EPERM && !slm_thd_normal(t))) {
  403323:	83 f8 ff             	cmp    eax,0xffffffff
  403326:	0f 84 cc 01 00 00    	je     4034f8 <thd_wakeup+0x378>
	if (unlikely(ret != 0)) {
  40332c:	85 c0                	test   eax,eax
  40332e:	0f 85 5f 01 00 00    	jne    403493 <thd_wakeup+0x313>
  403334:	45 31 ff             	xor    r15d,r15d
}
  403337:	48 83 c4 18          	add    rsp,0x18
  40333b:	44 89 f8             	mov    eax,r15d
  40333e:	5b                   	pop    rbx
  40333f:	41 5c                	pop    r12
  403341:	41 5d                	pop    r13
  403343:	41 5e                	pop    r14
  403345:	41 5f                	pop    r15
  403347:	5d                   	pop    rbp
  403348:	c3                   	ret    
  403349:	0f 1f 80 00 00 00 00 	nop    DWORD PTR [rax+0x0]
	__asm__ __volatile__("rdtscp" : "=a"(a), "=d"(d), "=c"(c) : : );
  403350:	0f 01 f9             	rdtscp 
	struct slm_cs *cs = &(slm_global()->lock);
  403353:	81 e1 ff 0f 00 00    	and    ecx,0xfff
  403359:	48 8d 1c 89          	lea    rbx,[rcx+rcx*4]
  40335d:	48 c1 e3 06          	shl    rbx,0x6
  403361:	48 81 c3 00 65 71 00 	add    rbx,0x716500
	while (ret != 0) {
  403368:	eb 12                	jmp    40337c <thd_wakeup+0x1fc>
  40336a:	66 0f 1f 44 00 00    	nop    WORD PTR [rax+rax*1+0x0]
  403370:	f0 48 0f b1 13       	lock cmpxchg QWORD PTR [rbx],rdx
  403375:	0f 94 c0             	sete   al
  403378:	84 c0                	test   al,al
  40337a:	75 bb                	jne    403337 <thd_wakeup+0x1b7>
		tok    = cos_sched_sync();
  40337c:	e8 8f e7 00 00       	call   411b10 <cos_sched_sync>
  403381:	89 c1                	mov    ecx,eax
	unsigned long oc = ps_load(&cs->owner_contention);
  403383:	48 8b 03             	mov    rax,QWORD PTR [rbx]
		if (unlikely(contention)) {
  403386:	48 89 c2             	mov    rdx,rax
  403389:	83 e2 01             	and    edx,0x1
  40338c:	74 e2                	je     403370 <thd_wakeup+0x1f0>
	*thd        = (struct slm_thd *)(oc & (~0UL << 1));
  40338e:	48 89 c6             	mov    rsi,rax
			if (!slm_cs_exit_contention(cs, current, cached, tok)) return;
  403391:	48 89 c2             	mov    rdx,rax
  403394:	48 89 df             	mov    rdi,rbx
  403397:	48 83 e6 fe          	and    rsi,0xfffffffffffffffe
  40339b:	e8 00 1d 01 00       	call   4150a0 <slm_cs_exit_contention>
  4033a0:	85 c0                	test   eax,eax
  4033a2:	74 93                	je     403337 <thd_wakeup+0x1b7>
  4033a4:	eb d6                	jmp    40337c <thd_wakeup+0x1fc>
  4033a6:	66 2e 0f 1f 84 00 00 	cs nop WORD PTR [rax+rax*1+0x0]
  4033ad:	00 00 00 
  4033b0:	be 59 00 00 00       	mov    esi,0x59
  4033b5:	bf 00 d1 41 00       	mov    edi,0x41d100
  4033ba:	e8 c1 78 00 00       	call   40ac80 <cos_print_str>
	assert(current);
  4033bf:	c7 04 25 00 00 00 00 	mov    DWORD PTR ds:0x0,0x0
  4033c6:	00 00 00 00 
  4033ca:	0f 0b                	ud2    
  4033cc:	0f 1f 40 00          	nop    DWORD PTR [rax+0x0]
			ret = slm_cs_enter_contention(cs, cached, current, owner, contended, tok);
  4033d0:	41 89 c0             	mov    r8d,eax
  4033d3:	4c 89 e2             	mov    rdx,r12
  4033d6:	48 89 c6             	mov    rsi,rax
  4033d9:	48 89 df             	mov    rdi,rbx
  4033dc:	41 83 e0 01          	and    r8d,0x1
  4033e0:	e8 5b 1c 01 00       	call   415040 <slm_cs_enter_contention>
			assert(ret != -EBUSY);
  4033e5:	83 f8 f0             	cmp    eax,0xfffffff0
  4033e8:	0f 85 1a fe ff ff    	jne    403208 <thd_wakeup+0x88>
  4033ee:	be 59 00 00 00       	mov    esi,0x59
  4033f3:	bf 60 d1 41 00       	mov    edi,0x41d160
  4033f8:	e8 83 78 00 00       	call   40ac80 <cos_print_str>
  4033fd:	c7 04 25 00 00 00 00 	mov    DWORD PTR ds:0x0,0x0
  403404:	00 00 00 00 
  403408:	0f 0b                	ud2    
  40340a:	be 61 00 00 00       	mov    esi,0x61
  40340f:	bf e8 d1 41 00       	mov    edi,0x41d1e8
  403414:	e8 67 78 00 00       	call   40ac80 <cos_print_str>
	assert(slm_state_is_runnable(t->state));
  403419:	c7 04 25 00 00 00 00 	mov    DWORD PTR ds:0x0,0x0
  403420:	00 00 00 00 
  403424:	0f 0b                	ud2    
		if (t == &g->sched_thd) {
  403426:	0f b7 d2             	movzx  edx,dx
	timeout = g->timeout_next;
  403429:	4c 89 c9             	mov    rcx,r9
		if (t == &g->sched_thd) {
  40342c:	48 8d 14 92          	lea    rdx,[rdx+rdx*4]
  403430:	48 c1 e2 06          	shl    rdx,0x6
  403434:	48 81 c2 08 65 71 00 	add    rdx,0x716508
  40343b:	48 39 d3             	cmp    rbx,rdx
  40343e:	0f 84 f8 00 00 00    	je     40353c <thd_wakeup+0x3bc>
		if (t->properties & SLM_THD_PROPERTY_SEND) {
  403444:	a8 02                	test   al,0x2
  403446:	0f 85 2c 01 00 00    	jne    403578 <thd_wakeup+0x3f8>
		} else if (t->properties & SLM_THD_PROPERTY_OWN_TCAP) {
  40344c:	49 89 c9             	mov    r9,rcx
  40344f:	a8 01                	test   al,0x1
  403451:	0f 84 ba fe ff ff    	je     403311 <thd_wakeup+0x191>
			return cos_switch(t->thd, t->tc, prio, timeout, g->sched_thd.rcv, tok);
  403457:	4b 8d 44 ad 00       	lea    rax,[r13+r13*4+0x0]
  40345c:	4c 8b 53 08          	mov    r10,QWORD PTR [rbx+0x8]
  403460:	48 8b 7b 10          	mov    rdi,QWORD PTR [rbx+0x10]
  403464:	48 89 f2             	mov    rdx,rsi
  403467:	48 c1 e0 06          	shl    rax,0x6
  40346b:	45 89 f1             	mov    r9d,r14d
  40346e:	4c 8b 80 28 65 71 00 	mov    r8,QWORD PTR [rax+0x716528]
  403475:	4c 89 d6             	mov    rsi,r10
  403478:	e8 b3 e6 00 00       	call   411b30 <cos_switch>
  40347d:	41 89 c7             	mov    r15d,eax
	if (unlikely(ret != 0)) {
  403480:	45 85 ff             	test   r15d,r15d
  403483:	0f 84 ab fe ff ff    	je     403334 <thd_wakeup+0x1b4>
		assert(ret != -EPERM);
  403489:	41 83 ff ff          	cmp    r15d,0xffffffff
  40348d:	0f 84 8d 00 00 00    	je     403520 <thd_wakeup+0x3a0>
		assert(ret != -EINVAL);
  403493:	41 83 ff ea          	cmp    r15d,0xffffffea
  403497:	0f 84 02 01 00 00    	je     40359f <thd_wakeup+0x41f>
		if (ret == -EBUSY) return ret;
  40349d:	41 83 ff f0          	cmp    r15d,0xfffffff0
  4034a1:	0f 84 90 fe ff ff    	je     403337 <thd_wakeup+0x1b7>
		assert(ret == -EAGAIN);
  4034a7:	41 83 ff f5          	cmp    r15d,0xfffffff5
  4034ab:	0f 85 2f 01 00 00    	jne    4035e0 <thd_wakeup+0x460>
  4034b1:	0f 01 f9             	rdtscp 
	cs = &(slm_global()->lock);
  4034b4:	81 e1 ff 0f 00 00    	and    ecx,0xfff
  4034ba:	48 8d 1c 89          	lea    rbx,[rcx+rcx*4]
  4034be:	48 c1 e3 06          	shl    rbx,0x6
  4034c2:	48 81 c3 00 65 71 00 	add    rbx,0x716500
		tok    = cos_sched_sync();
  4034c9:	e8 42 e6 00 00       	call   411b10 <cos_sched_sync>
  4034ce:	41 89 c1             	mov    r9d,eax
	unsigned long oc = ps_load(&cs->owner_contention);
  4034d1:	48 8b 03             	mov    rax,QWORD PTR [rbx]
		if (unlikely(owner)) {
  4034d4:	48 89 c1             	mov    rcx,rax
  4034d7:	48 83 e1 fe          	and    rcx,0xfffffffffffffffe
  4034db:	0f 85 da 00 00 00    	jne    4035bb <thd_wakeup+0x43b>
  4034e1:	f0 4c 0f b1 23       	lock cmpxchg QWORD PTR [rbx],r12
  4034e6:	0f 94 c0             	sete   al
		if (likely(!__slm_cs_cas(cs, cached, current, 0))) return 0;
  4034e9:	84 c0                	test   al,al
  4034eb:	0f 85 71 fd ff ff    	jne    403262 <thd_wakeup+0xe2>
  4034f1:	eb d6                	jmp    4034c9 <thd_wakeup+0x349>
  4034f3:	0f 1f 44 00 00       	nop    DWORD PTR [rax+rax*1+0x0]
  4034f8:	0f 01 f9             	rdtscp 
	return t != &g->idle_thd && t != &g->sched_thd;
  4034fb:	81 e1 ff 0f 00 00    	and    ecx,0xfff
  403501:	48 8d 04 89          	lea    rax,[rcx+rcx*4]
  403505:	48 c1 e0 06          	shl    rax,0x6
  403509:	48 8d 90 80 65 71 00 	lea    rdx,[rax+0x716580]
  403510:	48 39 d3             	cmp    rbx,rdx
  403513:	74 33                	je     403548 <thd_wakeup+0x3c8>
  403515:	48 05 08 65 71 00    	add    rax,0x716508
  40351b:	48 39 c3             	cmp    rbx,rax
  40351e:	74 28                	je     403548 <thd_wakeup+0x3c8>
  403520:	be 61 00 00 00       	mov    esi,0x61
  403525:	bf 50 d2 41 00       	mov    edi,0x41d250
  40352a:	e8 51 77 00 00       	call   40ac80 <cos_print_str>
		assert(ret != -EPERM);
  40352f:	c7 04 25 00 00 00 00 	mov    DWORD PTR ds:0x0,0x0
  403536:	00 00 00 00 
  40353a:	0f 0b                	ud2    
			prio    = curr->priority;
  40353c:	49 8b 74 24 30       	mov    rsi,QWORD PTR [r12+0x30]
			timeout = TCAP_TIME_NIL;
  403541:	31 c9                	xor    ecx,ecx
  403543:	e9 fc fe ff ff       	jmp    403444 <thd_wakeup+0x2c4>
		ret = cos_switch(g->sched_thd.thd, 0, curr->priority, TCAP_TIME_NIL, g->sched_thd.rcv, tok);
  403548:	4b 8d 44 ad 00       	lea    rax,[r13+r13*4+0x0]
  40354d:	49 8b 54 24 30       	mov    rdx,QWORD PTR [r12+0x30]
  403552:	45 89 f1             	mov    r9d,r14d
  403555:	31 c9                	xor    ecx,ecx
  403557:	48 c1 e0 06          	shl    rax,0x6
  40355b:	31 f6                	xor    esi,esi
  40355d:	4c 8b 80 28 65 71 00 	mov    r8,QWORD PTR [rax+0x716528]
  403564:	48 8b b8 18 65 71 00 	mov    rdi,QWORD PTR [rax+0x716518]
  40356b:	e8 c0 e5 00 00       	call   411b30 <cos_switch>
  403570:	41 89 c7             	mov    r15d,eax
  403573:	e9 08 ff ff ff       	jmp    403480 <thd_wakeup+0x300>
			return cos_sched_asnd(t->asnd, g->timeout_next, g->sched_thd.rcv, tok);
  403578:	4b 8d 44 ad 00       	lea    rax,[r13+r13*4+0x0]
  40357d:	48 8b 7b 28          	mov    rdi,QWORD PTR [rbx+0x28]
  403581:	44 89 f1             	mov    ecx,r14d
  403584:	4c 89 ce             	mov    rsi,r9
  403587:	48 c1 e0 06          	shl    rax,0x6
  40358b:	48 8b 90 28 65 71 00 	mov    rdx,QWORD PTR [rax+0x716528]
  403592:	e8 09 e6 00 00       	call   411ba0 <cos_sched_asnd>
  403597:	41 89 c7             	mov    r15d,eax
  40359a:	e9 e1 fe ff ff       	jmp    403480 <thd_wakeup+0x300>
  40359f:	be 61 00 00 00       	mov    esi,0x61
  4035a4:	bf b8 d2 41 00       	mov    edi,0x41d2b8
  4035a9:	e8 d2 76 00 00       	call   40ac80 <cos_print_str>
		assert(ret != -EINVAL);
  4035ae:	c7 04 25 00 00 00 00 	mov    DWORD PTR ds:0x0,0x0
  4035b5:	00 00 00 00 
  4035b9:	0f 0b                	ud2    
			ret = slm_cs_enter_contention(cs, cached, current, owner, contended, tok);
  4035bb:	41 89 c0             	mov    r8d,eax
  4035be:	4c 89 e2             	mov    rdx,r12
  4035c1:	48 89 c6             	mov    rsi,rax
  4035c4:	48 89 df             	mov    rdi,rbx
  4035c7:	41 83 e0 01          	and    r8d,0x1
  4035cb:	e8 70 1a 01 00       	call   415040 <slm_cs_enter_contention>
			assert(ret != -EBUSY);
  4035d0:	83 f8 f0             	cmp    eax,0xfffffff0
  4035d3:	0f 85 f0 fe ff ff    	jne    4034c9 <thd_wakeup+0x349>
  4035d9:	e9 10 fe ff ff       	jmp    4033ee <thd_wakeup+0x26e>
  4035de:	66 90                	xchg   ax,ax
  4035e0:	be 61 00 00 00       	mov    esi,0x61
  4035e5:	bf 20 d3 41 00       	mov    edi,0x41d320
  4035ea:	e8 91 76 00 00       	call   40ac80 <cos_print_str>
		assert(ret == -EAGAIN);
  4035ef:	c7 04 25 00 00 00 00 	mov    DWORD PTR ds:0x0,0x0
  4035f6:	00 00 00 00 
  4035fa:	0f 0b                	ud2    
  4035fc:	0f 1f 40 00          	nop    DWORD PTR [rax+0x0]

0000000000403600 <sched_thd_wakeup>:
{
  403600:	f3 0f 1e fa          	endbr64 
  403604:	55                   	push   rbp
  403605:	48 89 e5             	mov    rbp,rsp
  403608:	41 57                	push   r15
  40360a:	41 56                	push   r14
  40360c:	41 55                	push   r13
  40360e:	41 54                	push   r12
  403610:	53                   	push   rbx
  403611:	48 83 ec 18          	sub    rsp,0x18
SS_STATIC_SLAB(thd, struct slm_thd_container, MAX_NUM_THREADS);
  403615:	85 ff                	test   edi,edi
  403617:	74 1e                	je     403637 <sched_thd_wakeup+0x37>
  403619:	83 ef 01             	sub    edi,0x1
  40361c:	81 ff c7 00 00 00    	cmp    edi,0xc7
  403622:	77 13                	ja     403637 <sched_thd_wakeup+0x37>
  403624:	89 f8                	mov    eax,edi
  403626:	48 8b 14 c5 20 f7 5b 	mov    rdx,QWORD PTR [rax*8+0x5bf720]
  40362d:	00 
  40362e:	48 f7 c2 fe ff ff ff 	test   rdx,0xfffffffffffffffe
  403635:	75 19                	jne    403650 <sched_thd_wakeup+0x50>
	if (!t) return -1;
  403637:	41 bf ff ff ff ff    	mov    r15d,0xffffffff
}
  40363d:	48 83 c4 18          	add    rsp,0x18
  403641:	44 89 f8             	mov    eax,r15d
  403644:	5b                   	pop    rbx
  403645:	41 5c                	pop    r12
  403647:	41 5d                	pop    r13
  403649:	41 5e                	pop    r14
  40364b:	41 5f                	pop    r15
  40364d:	5d                   	pop    rbp
  40364e:	c3                   	ret    
  40364f:	90                   	nop
  403650:	83 e2 01             	and    edx,0x1
  403653:	75 e2                	jne    403637 <sched_thd_wakeup+0x37>
	return &ss_thd_get(id)->thd;
  403655:	48 8d 14 80          	lea    rdx,[rax+rax*4]
  403659:	4c 8d 2c 50          	lea    r13,[rax+rdx*2]
	__asm__("mov %%rsp, %0;" : "=r"(curr_stk_pointer));
  40365d:	48 89 e0             	mov    rax,rsp
	return *(long *)((curr_stk_pointer & ~(COS_STACK_SZ - 1)) + COS_STACK_SZ - offset * sizeof(unsigned long));
  403660:	48 25 00 e0 ff ff    	and    rax,0xffffffffffffe000
  403666:	49 c1 e5 04          	shl    r13,0x4
  40366a:	0f b7 80 f0 1f 00 00 	movzx  eax,WORD PTR [rax+0x1ff0]
  403671:	49 81 c5 60 fd 5b 00 	add    r13,0x5bfd60
SS_STATIC_SLAB(thd, struct slm_thd_container, MAX_NUM_THREADS);
  403678:	48 85 c0             	test   rax,rax
  40367b:	74 1b                	je     403698 <sched_thd_wakeup+0x98>
  40367d:	83 e8 01             	sub    eax,0x1
  403680:	3d c7 00 00 00       	cmp    eax,0xc7
  403685:	77 11                	ja     403698 <sched_thd_wakeup+0x98>
  403687:	48 8b 14 c5 20 f7 5b 	mov    rdx,QWORD PTR [rax*8+0x5bf720]
  40368e:	00 
  40368f:	48 f7 c2 fe ff ff ff 	test   rdx,0xfffffffffffffffe
  403696:	75 20                	jne    4036b8 <sched_thd_wakeup+0xb8>
  403698:	be 59 00 00 00       	mov    esi,0x59
  40369d:	bf 00 d1 41 00       	mov    edi,0x41d100
  4036a2:	e8 d9 75 00 00       	call   40ac80 <cos_print_str>
	assert(current);
  4036a7:	c7 04 25 00 00 00 00 	mov    DWORD PTR ds:0x0,0x0
  4036ae:	00 00 00 00 
  4036b2:	0f 0b                	ud2    
  4036b4:	0f 1f 40 00          	nop    DWORD PTR [rax+0x0]
  4036b8:	83 e2 01             	and    edx,0x1
  4036bb:	75 db                	jne    403698 <sched_thd_wakeup+0x98>
  4036bd:	48 8d 14 80          	lea    rdx,[rax+rax*4]
  4036c1:	4c 8d 24 50          	lea    r12,[rax+rdx*2]
  4036c5:	49 c1 e4 04          	shl    r12,0x4
  4036c9:	49 81 c4 60 fd 5b 00 	add    r12,0x5bfd60
	__asm__ __volatile__("rdtscp" : "=a"(a), "=d"(d), "=c"(c) : : );
  4036d0:	0f 01 f9             	rdtscp 
	cs = &(slm_global()->lock);
  4036d3:	81 e1 ff 0f 00 00    	and    ecx,0xfff
  4036d9:	48 8d 1c 89          	lea    rbx,[rcx+rcx*4]
  4036dd:	48 c1 e3 06          	shl    rbx,0x6
  4036e1:	48 81 c3 00 65 71 00 	add    rbx,0x716500
		tok    = cos_sched_sync();
  4036e8:	e8 23 e4 00 00       	call   411b10 <cos_sched_sync>
  4036ed:	41 89 c1             	mov    r9d,eax
	unsigned long oc = ps_load(&cs->owner_contention);
  4036f0:	48 8b 03             	mov    rax,QWORD PTR [rbx]
		if (unlikely(owner)) {
  4036f3:	48 89 c1             	mov    rcx,rax
  4036f6:	48 83 e1 fe          	and    rcx,0xfffffffffffffffe
  4036fa:	0f 85 80 01 00 00    	jne    403880 <sched_thd_wakeup+0x280>
  403700:	f0 4c 0f b1 23       	lock cmpxchg QWORD PTR [rbx],r12
  403705:	0f 94 c0             	sete   al
		if (likely(!__slm_cs_cas(cs, cached, current, 0))) return 0;
  403708:	84 c0                	test   al,al
  40370a:	74 dc                	je     4036e8 <sched_thd_wakeup+0xe8>
	ret = slm_thd_wakeup(t, 0);
  40370c:	31 f6                	xor    esi,esi
  40370e:	4c 89 ef             	mov    rdi,r13
  403711:	e8 8a 20 01 00       	call   4157a0 <slm_thd_wakeup>
  403716:	41 89 c7             	mov    r15d,eax
	if (ret < 0) {
  403719:	85 c0                	test   eax,eax
  40371b:	0f 88 ff 00 00 00    	js     403820 <sched_thd_wakeup+0x220>
	struct cos_compinfo    *ci  = &cos_defcompinfo_curr_get()->ci;
  403721:	e8 2a 7e 00 00       	call   40b550 <cos_defcompinfo_curr_get>
  403726:	0f 01 f9             	rdtscp 
	if (unlikely(!t)) t = &g->idle_thd;
  403729:	81 e1 ff 0f 00 00    	and    ecx,0xfff
  40372f:	4c 8d 2c 89          	lea    r13,[rcx+rcx*4]
  403733:	49 c1 e5 06          	shl    r13,0x6
  403737:	49 8d 85 80 65 71 00 	lea    rax,[r13+0x716580]
  40373e:	48 89 45 c8          	mov    QWORD PTR [rbp-0x38],rax
	tok  = cos_sched_sync();
  403742:	e8 c9 e3 00 00       	call   411b10 <cos_sched_sync>
  403747:	41 89 c6             	mov    r14d,eax
SLM_MODULES_COMPOSE_FNS(quantum, fprr, static_cm);
  40374a:	e8 51 04 01 00       	call   413ba0 <slm_sched_fprr_schedule>
	if (unlikely(!t)) t = &g->idle_thd;
  40374f:	48 85 c0             	test   rax,rax
  403752:	48 89 c3             	mov    rbx,rax
  403755:	48 0f 44 5d c8       	cmove  rbx,QWORD PTR [rbp-0x38]
{ return s == SLM_THD_RUNNABLE || s == SLM_THD_WOKEN; }
  40375a:	8b 43 04             	mov    eax,DWORD PTR [rbx+0x4]
  40375d:	83 e8 02             	sub    eax,0x2
	assert(slm_state_is_runnable(t->state));
  403760:	83 f8 01             	cmp    eax,0x1
  403763:	0f 87 51 01 00 00    	ja     4038ba <sched_thd_wakeup+0x2ba>
  403769:	0f 01 f9             	rdtscp 
	struct slm_cs *cs = &(slm_global()->lock);
  40376c:	81 e1 ff 0f 00 00    	and    ecx,0xfff
  403772:	4c 8d 3c 89          	lea    r15,[rcx+rcx*4]
  403776:	49 c1 e7 06          	shl    r15,0x6
  40377a:	49 81 c7 00 65 71 00 	add    r15,0x716500
	while (ret != 0) {
  403781:	eb 11                	jmp    403794 <sched_thd_wakeup+0x194>
  403783:	0f 1f 44 00 00       	nop    DWORD PTR [rax+rax*1+0x0]
  403788:	f0 49 0f b1 17       	lock cmpxchg QWORD PTR [r15],rdx
  40378d:	0f 94 c0             	sete   al
  403790:	84 c0                	test   al,al
  403792:	75 28                	jne    4037bc <sched_thd_wakeup+0x1bc>
		tok    = cos_sched_sync();
  403794:	e8 77 e3 00 00       	call   411b10 <cos_sched_sync>
  403799:	89 c1                	mov    ecx,eax
	unsigned long oc = ps_load(&cs->owner_contention);
  40379b:	49 8b 07             	mov    rax,QWORD PTR [r15]
		if (unlikely(contention)) {
  40379e:	48 89 c2             	mov    rdx,rax
  4037a1:	83 e2 01             	and    edx,0x1
  4037a4:	74 e2                	je     403788 <sched_thd_wakeup+0x188>
	*thd        = (struct slm_thd *)(oc & (~0UL << 1));
  4037a6:	48 89 c6             	mov    rsi,rax
			if (!slm_cs_exit_contention(cs, current, cached, tok)) return;
  4037a9:	48 89 c2             	mov    rdx,rax
  4037ac:	4c 89 ff             	mov    rdi,r15
  4037af:	48 83 e6 fe          	and    rsi,0xfffffffffffffffe
  4037b3:	e8 e8 18 01 00       	call   4150a0 <slm_cs_exit_contention>
  4037b8:	85 c0                	test   eax,eax
  4037ba:	75 d8                	jne    403794 <sched_thd_wakeup+0x194>
	struct cos_defcompinfo *dci = cos_defcompinfo_curr_get();
  4037bc:	e8 8f 7d 00 00       	call   40b550 <cos_defcompinfo_curr_get>
  4037c1:	0f 01 f9             	rdtscp 
	*coreid = c & 0xFFF;
  4037c4:	89 ca                	mov    edx,ecx
	timeout = g->timeout_next;
  4037c6:	81 e1 ff 0f 00 00    	and    ecx,0xfff
	prio = inherit_prio ? curr->priority : t->priority;
  4037cc:	48 8b 73 30          	mov    rsi,QWORD PTR [rbx+0x30]
	timeout = g->timeout_next;
  4037d0:	48 8d 04 89          	lea    rax,[rcx+rcx*4]
  4037d4:	66 81 e2 ff 0f       	and    dx,0xfff
  4037d9:	49 89 cd             	mov    r13,rcx
  4037dc:	48 c1 e0 06          	shl    rax,0x6
  4037e0:	4c 8b 88 08 66 71 00 	mov    r9,QWORD PTR [rax+0x716608]
	if (unlikely(t->properties & (SLM_THD_PROPERTY_SEND | SLM_THD_PROPERTY_OWN_TCAP | SLM_THD_PROPERTY_SPECIAL))) {
  4037e7:	8b 03                	mov    eax,DWORD PTR [rbx]
  4037e9:	a8 0b                	test   al,0xb
  4037eb:	0f 85 e5 00 00 00    	jne    4038d6 <sched_thd_wakeup+0x2d6>
	ret = cos_defswitch(t->thd, prio, timeout, tok);
  4037f1:	48 8b 7b 10          	mov    rdi,QWORD PTR [rbx+0x10]
  4037f5:	44 89 f1             	mov    ecx,r14d
  4037f8:	4c 89 ca             	mov    rdx,r9
  4037fb:	e8 a0 8e 00 00       	call   40c6a0 <cos_defswitch>
  403800:	41 89 c7             	mov    r15d,eax
	if (unlikely(ret == -EPERM && !slm_thd_normal(t))) {
  403803:	83 f8 ff             	cmp    eax,0xffffffff
  403806:	0f 84 9c 01 00 00    	je     4039a8 <sched_thd_wakeup+0x3a8>
	if (unlikely(ret != 0)) {
  40380c:	85 c0                	test   eax,eax
  40380e:	0f 85 2f 01 00 00    	jne    403943 <sched_thd_wakeup+0x343>
	if (!t) return -1;
  403814:	45 31 ff             	xor    r15d,r15d
  403817:	e9 21 fe ff ff       	jmp    40363d <sched_thd_wakeup+0x3d>
  40381c:	0f 1f 40 00          	nop    DWORD PTR [rax+0x0]
	__asm__ __volatile__("rdtscp" : "=a"(a), "=d"(d), "=c"(c) : : );
  403820:	0f 01 f9             	rdtscp 
	struct slm_cs *cs = &(slm_global()->lock);
  403823:	81 e1 ff 0f 00 00    	and    ecx,0xfff
  403829:	48 8d 1c 89          	lea    rbx,[rcx+rcx*4]
  40382d:	48 c1 e3 06          	shl    rbx,0x6
  403831:	48 81 c3 00 65 71 00 	add    rbx,0x716500
	while (ret != 0) {
  403838:	eb 16                	jmp    403850 <sched_thd_wakeup+0x250>
  40383a:	66 0f 1f 44 00 00    	nop    WORD PTR [rax+rax*1+0x0]
  403840:	f0 48 0f b1 13       	lock cmpxchg QWORD PTR [rbx],rdx
  403845:	0f 94 c0             	sete   al
  403848:	84 c0                	test   al,al
  40384a:	0f 85 ed fd ff ff    	jne    40363d <sched_thd_wakeup+0x3d>
		tok    = cos_sched_sync();
  403850:	e8 bb e2 00 00       	call   411b10 <cos_sched_sync>
  403855:	89 c1                	mov    ecx,eax
	unsigned long oc = ps_load(&cs->owner_contention);
  403857:	48 8b 03             	mov    rax,QWORD PTR [rbx]
		if (unlikely(contention)) {
  40385a:	48 89 c2             	mov    rdx,rax
  40385d:	83 e2 01             	and    edx,0x1
  403860:	74 de                	je     403840 <sched_thd_wakeup+0x240>
	*thd        = (struct slm_thd *)(oc & (~0UL << 1));
  403862:	48 89 c6             	mov    rsi,rax
			if (!slm_cs_exit_contention(cs, current, cached, tok)) return;
  403865:	48 89 c2             	mov    rdx,rax
  403868:	48 89 df             	mov    rdi,rbx
  40386b:	48 83 e6 fe          	and    rsi,0xfffffffffffffffe
  40386f:	e8 2c 18 01 00       	call   4150a0 <slm_cs_exit_contention>
  403874:	85 c0                	test   eax,eax
  403876:	0f 84 c1 fd ff ff    	je     40363d <sched_thd_wakeup+0x3d>
  40387c:	eb d2                	jmp    403850 <sched_thd_wakeup+0x250>
  40387e:	66 90                	xchg   ax,ax
			ret = slm_cs_enter_contention(cs, cached, current, owner, contended, tok);
  403880:	41 89 c0             	mov    r8d,eax
  403883:	4c 89 e2             	mov    rdx,r12
  403886:	48 89 c6             	mov    rsi,rax
  403889:	48 89 df             	mov    rdi,rbx
  40388c:	41 83 e0 01          	and    r8d,0x1
  403890:	e8 ab 17 01 00       	call   415040 <slm_cs_enter_contention>
			assert(ret != -EBUSY);
  403895:	83 f8 f0             	cmp    eax,0xfffffff0
  403898:	0f 85 4a fe ff ff    	jne    4036e8 <sched_thd_wakeup+0xe8>
  40389e:	be 59 00 00 00       	mov    esi,0x59
  4038a3:	bf 60 d1 41 00       	mov    edi,0x41d160
  4038a8:	e8 d3 73 00 00       	call   40ac80 <cos_print_str>
  4038ad:	c7 04 25 00 00 00 00 	mov    DWORD PTR ds:0x0,0x0
  4038b4:	00 00 00 00 
  4038b8:	0f 0b                	ud2    
  4038ba:	be 61 00 00 00       	mov    esi,0x61
  4038bf:	bf e8 d1 41 00       	mov    edi,0x41d1e8
  4038c4:	e8 b7 73 00 00       	call   40ac80 <cos_print_str>
	assert(slm_state_is_runnable(t->state));
  4038c9:	c7 04 25 00 00 00 00 	mov    DWORD PTR ds:0x0,0x0
  4038d0:	00 00 00 00 
  4038d4:	0f 0b                	ud2    
		if (t == &g->sched_thd) {
  4038d6:	0f b7 d2             	movzx  edx,dx
	timeout = g->timeout_next;
  4038d9:	4c 89 c9             	mov    rcx,r9
		if (t == &g->sched_thd) {
  4038dc:	48 8d 14 92          	lea    rdx,[rdx+rdx*4]
  4038e0:	48 c1 e2 06          	shl    rdx,0x6
  4038e4:	48 81 c2 08 65 71 00 	add    rdx,0x716508
  4038eb:	48 39 d3             	cmp    rbx,rdx
  4038ee:	0f 84 f8 00 00 00    	je     4039ec <sched_thd_wakeup+0x3ec>
		if (t->properties & SLM_THD_PROPERTY_SEND) {
  4038f4:	a8 02                	test   al,0x2
  4038f6:	0f 85 2c 01 00 00    	jne    403a28 <sched_thd_wakeup+0x428>
		} else if (t->properties & SLM_THD_PROPERTY_OWN_TCAP) {
  4038fc:	49 89 c9             	mov    r9,rcx
  4038ff:	a8 01                	test   al,0x1
  403901:	0f 84 ea fe ff ff    	je     4037f1 <sched_thd_wakeup+0x1f1>
			return cos_switch(t->thd, t->tc, prio, timeout, g->sched_thd.rcv, tok);
  403907:	4b 8d 44 ad 00       	lea    rax,[r13+r13*4+0x0]
  40390c:	4c 8b 53 08          	mov    r10,QWORD PTR [rbx+0x8]
  403910:	48 8b 7b 10          	mov    rdi,QWORD PTR [rbx+0x10]
  403914:	48 89 f2             	mov    rdx,rsi
  403917:	48 c1 e0 06          	shl    rax,0x6
  40391b:	45 89 f1             	mov    r9d,r14d
  40391e:	4c 8b 80 28 65 71 00 	mov    r8,QWORD PTR [rax+0x716528]
  403925:	4c 89 d6             	mov    rsi,r10
  403928:	e8 03 e2 00 00       	call   411b30 <cos_switch>
  40392d:	41 89 c7             	mov    r15d,eax
	if (unlikely(ret != 0)) {
  403930:	45 85 ff             	test   r15d,r15d
  403933:	0f 84 db fe ff ff    	je     403814 <sched_thd_wakeup+0x214>
		assert(ret != -EPERM);
  403939:	41 83 ff ff          	cmp    r15d,0xffffffff
  40393d:	0f 84 8d 00 00 00    	je     4039d0 <sched_thd_wakeup+0x3d0>
		assert(ret != -EINVAL);
  403943:	41 83 ff ea          	cmp    r15d,0xffffffea
  403947:	0f 84 02 01 00 00    	je     403a4f <sched_thd_wakeup+0x44f>
		if (ret == -EBUSY) return ret;
  40394d:	41 83 ff f0          	cmp    r15d,0xfffffff0
  403951:	0f 84 e6 fc ff ff    	je     40363d <sched_thd_wakeup+0x3d>
		assert(ret == -EAGAIN);
  403957:	41 83 ff f5          	cmp    r15d,0xfffffff5
  40395b:	0f 85 2f 01 00 00    	jne    403a90 <sched_thd_wakeup+0x490>
  403961:	0f 01 f9             	rdtscp 
	cs = &(slm_global()->lock);
  403964:	81 e1 ff 0f 00 00    	and    ecx,0xfff
  40396a:	48 8d 1c 89          	lea    rbx,[rcx+rcx*4]
  40396e:	48 c1 e3 06          	shl    rbx,0x6
  403972:	48 81 c3 00 65 71 00 	add    rbx,0x716500
		tok    = cos_sched_sync();
  403979:	e8 92 e1 00 00       	call   411b10 <cos_sched_sync>
  40397e:	41 89 c1             	mov    r9d,eax
	unsigned long oc = ps_load(&cs->owner_contention);
  403981:	48 8b 03             	mov    rax,QWORD PTR [rbx]
		if (unlikely(owner)) {
  403984:	48 89 c1             	mov    rcx,rax
  403987:	48 83 e1 fe          	and    rcx,0xfffffffffffffffe
  40398b:	0f 85 da 00 00 00    	jne    403a6b <sched_thd_wakeup+0x46b>
  403991:	f0 4c 0f b1 23       	lock cmpxchg QWORD PTR [rbx],r12
  403996:	0f 94 c0             	sete   al
		if (likely(!__slm_cs_cas(cs, cached, current, 0))) return 0;
  403999:	84 c0                	test   al,al
  40399b:	0f 85 a1 fd ff ff    	jne    403742 <sched_thd_wakeup+0x142>
  4039a1:	eb d6                	jmp    403979 <sched_thd_wakeup+0x379>
  4039a3:	0f 1f 44 00 00       	nop    DWORD PTR [rax+rax*1+0x0]
  4039a8:	0f 01 f9             	rdtscp 
	return t != &g->idle_thd && t != &g->sched_thd;
  4039ab:	81 e1 ff 0f 00 00    	and    ecx,0xfff
  4039b1:	48 8d 04 89          	lea    rax,[rcx+rcx*4]
  4039b5:	48 c1 e0 06          	shl    rax,0x6
  4039b9:	48 8d 90 80 65 71 00 	lea    rdx,[rax+0x716580]
  4039c0:	48 39 d3             	cmp    rbx,rdx
  4039c3:	74 33                	je     4039f8 <sched_thd_wakeup+0x3f8>
  4039c5:	48 05 08 65 71 00    	add    rax,0x716508
  4039cb:	48 39 c3             	cmp    rbx,rax
  4039ce:	74 28                	je     4039f8 <sched_thd_wakeup+0x3f8>
  4039d0:	be 61 00 00 00       	mov    esi,0x61
  4039d5:	bf 50 d2 41 00       	mov    edi,0x41d250
  4039da:	e8 a1 72 00 00       	call   40ac80 <cos_print_str>
		assert(ret != -EPERM);
  4039df:	c7 04 25 00 00 00 00 	mov    DWORD PTR ds:0x0,0x0
  4039e6:	00 00 00 00 
  4039ea:	0f 0b                	ud2    
			prio    = curr->priority;
  4039ec:	49 8b 74 24 30       	mov    rsi,QWORD PTR [r12+0x30]
			timeout = TCAP_TIME_NIL;
  4039f1:	31 c9                	xor    ecx,ecx
  4039f3:	e9 fc fe ff ff       	jmp    4038f4 <sched_thd_wakeup+0x2f4>
		ret = cos_switch(g->sched_thd.thd, 0, curr->priority, TCAP_TIME_NIL, g->sched_thd.rcv, tok);
  4039f8:	4b 8d 44 ad 00       	lea    rax,[r13+r13*4+0x0]
  4039fd:	49 8b 54 24 30       	mov    rdx,QWORD PTR [r12+0x30]
  403a02:	45 89 f1             	mov    r9d,r14d
  403a05:	31 c9                	xor    ecx,ecx
  403a07:	48 c1 e0 06          	shl    rax,0x6
  403a0b:	31 f6                	xor    esi,esi
  403a0d:	4c 8b 80 28 65 71 00 	mov    r8,QWORD PTR [rax+0x716528]
  403a14:	48 8b b8 18 65 71 00 	mov    rdi,QWORD PTR [rax+0x716518]
  403a1b:	e8 10 e1 00 00       	call   411b30 <cos_switch>
  403a20:	41 89 c7             	mov    r15d,eax
  403a23:	e9 08 ff ff ff       	jmp    403930 <sched_thd_wakeup+0x330>
			return cos_sched_asnd(t->asnd, g->timeout_next, g->sched_thd.rcv, tok);
  403a28:	4b 8d 44 ad 00       	lea    rax,[r13+r13*4+0x0]
  403a2d:	48 8b 7b 28          	mov    rdi,QWORD PTR [rbx+0x28]
  403a31:	44 89 f1             	mov    ecx,r14d
  403a34:	4c 89 ce             	mov    rsi,r9
  403a37:	48 c1 e0 06          	shl    rax,0x6
  403a3b:	48 8b 90 28 65 71 00 	mov    rdx,QWORD PTR [rax+0x716528]
  403a42:	e8 59 e1 00 00       	call   411ba0 <cos_sched_asnd>
  403a47:	41 89 c7             	mov    r15d,eax
  403a4a:	e9 e1 fe ff ff       	jmp    403930 <sched_thd_wakeup+0x330>
  403a4f:	be 61 00 00 00       	mov    esi,0x61
  403a54:	bf b8 d2 41 00       	mov    edi,0x41d2b8
  403a59:	e8 22 72 00 00       	call   40ac80 <cos_print_str>
		assert(ret != -EINVAL);
  403a5e:	c7 04 25 00 00 00 00 	mov    DWORD PTR ds:0x0,0x0
  403a65:	00 00 00 00 
  403a69:	0f 0b                	ud2    
			ret = slm_cs_enter_contention(cs, cached, current, owner, contended, tok);
  403a6b:	41 89 c0             	mov    r8d,eax
  403a6e:	4c 89 e2             	mov    rdx,r12
  403a71:	48 89 c6             	mov    rsi,rax
  403a74:	48 89 df             	mov    rdi,rbx
  403a77:	41 83 e0 01          	and    r8d,0x1
  403a7b:	e8 c0 15 01 00       	call   415040 <slm_cs_enter_contention>
			assert(ret != -EBUSY);
  403a80:	83 f8 f0             	cmp    eax,0xfffffff0
  403a83:	0f 85 f0 fe ff ff    	jne    403979 <sched_thd_wakeup+0x379>
  403a89:	e9 10 fe ff ff       	jmp    40389e <sched_thd_wakeup+0x29e>
  403a8e:	66 90                	xchg   ax,ax
  403a90:	be 61 00 00 00       	mov    esi,0x61
  403a95:	bf 20 d3 41 00       	mov    edi,0x41d320
  403a9a:	e8 e1 71 00 00       	call   40ac80 <cos_print_str>
		assert(ret == -EAGAIN);
  403a9f:	c7 04 25 00 00 00 00 	mov    DWORD PTR ds:0x0,0x0
  403aa6:	00 00 00 00 
  403aaa:	0f 0b                	ud2    
  403aac:	0f 1f 40 00          	nop    DWORD PTR [rax+0x0]

0000000000403ab0 <sched_debug_thd_state>:
{
  403ab0:	f3 0f 1e fa          	endbr64 
SS_STATIC_SLAB(thd, struct slm_thd_container, MAX_NUM_THREADS);
  403ab4:	85 ff                	test   edi,edi
  403ab6:	0f 84 7e 2e 01 00    	je     41693a <sched_debug_thd_state.cold>
  403abc:	83 ef 01             	sub    edi,0x1
  403abf:	81 ff c7 00 00 00    	cmp    edi,0xc7
  403ac5:	0f 87 6f 2e 01 00    	ja     41693a <sched_debug_thd_state.cold>
  403acb:	48 8b 04 fd 20 f7 5b 	mov    rax,QWORD PTR [rdi*8+0x5bf720]
  403ad2:	00 
  403ad3:	48 a9 fe ff ff ff    	test   rax,0xfffffffffffffffe
  403ad9:	0f 84 5b 2e 01 00    	je     41693a <sched_debug_thd_state.cold>
  403adf:	a8 01                	test   al,0x1
  403ae1:	0f 85 53 2e 01 00    	jne    41693a <sched_debug_thd_state.cold>
	return t->state;
  403ae7:	48 8d 04 bf          	lea    rax,[rdi+rdi*4]
  403aeb:	48 8d 04 47          	lea    rax,[rdi+rax*2]
  403aef:	48 c1 e0 04          	shl    rax,0x4
  403af3:	8b 80 64 fd 5b 00    	mov    eax,DWORD PTR [rax+0x5bfd64]
}
  403af9:	c3                   	ret    
  403afa:	66 0f 1f 44 00 00    	nop    WORD PTR [rax+rax*1+0x0]

0000000000403b00 <sched_thd_block_timeout>:
{
  403b00:	f3 0f 1e fa          	endbr64 
	if (dep_id) return 0;
  403b04:	48 85 ff             	test   rdi,rdi
  403b07:	74 07                	je     403b10 <sched_thd_block_timeout+0x10>
  403b09:	31 c0                	xor    eax,eax
}
  403b0b:	c3                   	ret    
  403b0c:	0f 1f 40 00          	nop    DWORD PTR [rax+0x0]
{
  403b10:	55                   	push   rbp
	__asm__("mov %%rsp, %0;" : "=r"(curr_stk_pointer));
  403b11:	48 89 e0             	mov    rax,rsp
	return *(long *)((curr_stk_pointer & ~(COS_STACK_SZ - 1)) + COS_STACK_SZ - offset * sizeof(unsigned long));
  403b14:	48 25 00 e0 ff ff    	and    rax,0xffffffffffffe000
  403b1a:	48 89 e5             	mov    rbp,rsp
  403b1d:	41 57                	push   r15
  403b1f:	41 56                	push   r14
  403b21:	49 89 f6             	mov    r14,rsi
